文件：comm.c       编译器版本 HGASM 0202 页次1


   1  0000              ; Generated by holtek-gcc v3.19, Mon Nov 01 10:16:48 2021
   2  0000              ; 
   3  0000              ; Configuration:
   4  0000              ;       with long instruction
   5  0000              ;       Single ROM, Multi-RAM
   6  0000              ;       bits_per_rom_unit:16
   7  0000              ;       with mp1
   8  0000              ;       with tbhp, address(0x9)
   9  0000              ;          Use tabrd-const
  10  0000              ;       
  11  0000              ; SFR address of long-instruction arch:
  12  0000              ;    mp0 = -1,1,0
  13  0000              ;    mp1 = 4,3,2
  14  0000              ;    mp2 = 14,13,12
  15  0000              ;    tbp = 9,7,8
  16  0000              ;    acc = 5
  17  0000              ;    pcl = 6
  18  0000              ;    status = 10
  19  0000              ;    bp = 11
  20  0000              ;    intc = 72
  21  0000              ;       
  22  0000              ;       
  23  0000              ; use 'tabrdc' instead of 'tabrd'
  24  0000              ;       
  25  0000              
  26  0000              #pragma translator "holtek-gcc 4.6.4" "3.19" "build 20130711"
  27  0000              ; Rebuild 718
  28  0000              
  29  0000              ir equ [2]
  30  0000              mp equ [3]
  31  0000              sbp equ [4]
  32  0000              acc equ [5]
  33  0000              bp equ [11]
  34  0000              tblp equ [7]
  35  0000              tbhp equ [9]
  36  0000              status equ [10]
  37  0000              c equ [10].0
  38  0000              ac equ [10].1
  39  0000              z equ [10].2
  40  0000              ov equ [10].3
  41  0000              cz equ [10].6
  42  0000              sc equ [10].7
  43  0000              intc equ [72]
  44  0000              
  45  0000              extern ra:byte
  46  0000              extern rb:byte
  47  0000              extern rc:byte
  48  0000              extern rd:byte
  49  0000              extern re:byte
  50  0000              extern rf:byte
  51  0000              extern rg:byte
  52  0000              extern rh:byte
  53  0000              extern _Crom2Prom:near
  54  0000              extern _Crom2PromNext:near
  55  0000              
  56  0000              RAMBANK 0 @BITDATASEC, @BITDATASEC1
  57  0000              @HCCINIT	.section 'data'
  58  0000              @HCCINIT0	.section 'data'
  59  0000              @BITDATASEC	 .section 'data'
文件：comm.ASM     编译器版本 HGASM 0202 页次2

  60  0000              @BITDATASEC1	 .section 'data'
  61  0000              
  62  0000              #pragma debug scope 1 1
  63  0000              	extern __DELAY3:near
  64  0000              	extern __DELAYX3:near
  65  0000              	extern __DELAYX6:near
  66  0000              	extern __DELAYY5:near
  67  0000              	extern __DELAYY3:near
  68  0000              	extern _builtin_holtek_delay_2:byte
  69  0000              ___scc equ [18]
  70  0000              public _CommTimeout
  71  0000              #pragma debug scope 2 1

  17  0000              #line 17 "C:\Users\houlinfeng\Desktop\TwoWireDevice_Hou\source\comm.c"
  17  0000              _CommTimeout .section 'code'
  17  0000              _CommTimeout proc
  18  0000              #line 18 "C:\Users\houlinfeng\Desktop\TwoWireDevice_Hou\source\comm.c"
  18  0000  1F00     E  	clr _CommData[0]
  19  0001              #line 19 "C:\Users\houlinfeng\Desktop\TwoWireDevice_Hou\source\comm.c"
  19  0001  1F00     E  	clr _CommData[7]
  20  0002              #line 20 "C:\Users\houlinfeng\Desktop\TwoWireDevice_Hou\source\comm.c"
  20  0002  1F00     E  	clr _CommData[8]
  21  0003              #line 21 "C:\Users\houlinfeng\Desktop\TwoWireDevice_Hou\source\comm.c"
  21  0003  1F00     E  	clr _CommData[9]
  22  0004              #line 22 "C:\Users\houlinfeng\Desktop\TwoWireDevice_Hou\source\comm.c"
  22  0004  1F00     E  	clr _CommData[10]
  23  0005              #line 23 "C:\Users\houlinfeng\Desktop\TwoWireDevice_Hou\source\comm.c"
  23  0005  3400     E  	clr _SysData[0].0
  25  0006              #line 25 "C:\Users\houlinfeng\Desktop\TwoWireDevice_Hou\source\comm.c"
  25  0006  0F01        	mov a,1
  25  0007  0092        	mov [18],a
  25  0008  0003        	ret
  25  0009              _CommTimeout endp
  25  0009              #line 25 "C:\Users\houlinfeng\Desktop\TwoWireDevice_Hou\source\comm.c"
  25  0009              #pragma debug scope 1 1
  25  0009              public _CommBitErr
  25  0009              #pragma debug scope 3 1
  32  0009              #line 32 "C:\Users\houlinfeng\Desktop\TwoWireDevice_Hou\source\comm.c"
  32  0000              _CommBitErr .section 'code'
  32  0000              _CommBitErr proc
  34  0000              #line 34 "C:\Users\houlinfeng\Desktop\TwoWireDevice_Hou\source\comm.c"
  34  0000  0F03        	mov a,3
  34  0001  0080     E  	mov _CommData[0],a
  36  0002              #line 36 "C:\Users\houlinfeng\Desktop\TwoWireDevice_Hou\source\comm.c"
  36  0002  1F00     E  	clr _CommData[7]
  37  0003              #line 37 "C:\Users\houlinfeng\Desktop\TwoWireDevice_Hou\source\comm.c"
  37  0003  1F00     E  	clr _CommData[8]
  38  0004              #line 38 "C:\Users\houlinfeng\Desktop\TwoWireDevice_Hou\source\comm.c"
  38  0004  1F00     E  	clr _CommData[9]
  39  0005              #line 39 "C:\Users\houlinfeng\Desktop\TwoWireDevice_Hou\source\comm.c"
  39  0005  1F00     E  	clr _CommData[10]
  41  0006              #line 41 "C:\Users\houlinfeng\Desktop\TwoWireDevice_Hou\source\comm.c"
  41  0006  3400     E  	clr _SysData[0].0
  41  0007  0003        	ret
  41  0008              _CommBitErr endp
  41  0008              #line 41 "C:\Users\houlinfeng\Desktop\TwoWireDevice_Hou\source\comm.c"
  41  0008              #pragma debug scope 1 1
  41  0008              public _GetReg
  41  0008              #pragma debug scope 4 1
 880  0008              #line 880 "C:\Users\houlinfeng\Desktop\TwoWireDevice_Hou\source\comm.c"
文件：comm.c       编译器版本 HGASM 0202 页次3

 880  0000              _GetReg .section 'code'
 880  0000              _GetReg proc
 880  0000  0002[           local _GetReg_2 db 2 dup(?)	; 0,2
            00
            ]
 880  0000  0080     E  	mov ra,a
 880  0001              #pragma debug variable 8 4 _GetReg_2+0 "Index"
 883  0001              #line 883 "C:\Users\houlinfeng\Desktop\TwoWireDevice_Hou\source\comm.c"
 883  0001  0700     E  	mov a,ra
 883  0002  0A00        	sub a,0
 883  0003  3D0A        	sz z
 883  0004  2800     R  	jmp _L5
 883  0005  0A01        	sub a,(1)-(0)
 883  0006  3D0A        	sz z
 883  0007  2800     R  	jmp _L6
 883  0008              #line 883 "C:\Users\houlinfeng\Desktop\TwoWireDevice_Hou\source\comm.c"
 883  0008  0700     E  	mov a,ra
 883  0009  0A02        	sub a,2
 883  000A  3D0A        	sz z
 883  000B  2800     R  	jmp _L7
 883  000C  0A01        	sub a,(3)-(2)
 883  000D  3D0A        	sz z
 883  000E  2800     R  	jmp _L8
 883  000F  0700     E  	mov a,ra
 883  0010  0A04        	sub a,4
 883  0011  3D0A        	sz z
 883  0012  2800     R  	jmp _L9
 883  0013  0A04        	sub a,(8)-(4)
 883  0014  3D0A        	sz z
 883  0015  2800     R  	jmp _L10
 883  0016  0700     E  	mov a,ra
 883  0017  0A09        	sub a,9
 883  0018  3D0A        	sz z
 883  0019  2800     R  	jmp _L11
 883  001A  0A07        	sub a,(16)-(9)
 883  001B  3D0A        	sz z
 883  001C  2800     R  	jmp _L12
 883  001D  0700     E  	mov a,ra
 883  001E  0A11        	sub a,17
 883  001F  3D0A        	sz z
 883  0020  2800     R  	jmp _L13
 883  0021  0A01        	sub a,(18)-(17)
 883  0022  3D0A        	sz z
 883  0023  2800     R  	jmp _L14
 883  0024  0700     E  	mov a,ra
 883  0025  0A13        	sub a,19
 883  0026  3D0A        	sz z
 883  0027  2800     R  	jmp _L15
 883  0028  0A01        	sub a,(20)-(19)
 883  0029  3D0A        	sz z
 883  002A  2800     R  	jmp _L16
 883  002B  0700     E  	mov a,ra
 883  002C  0A15        	sub a,21
 883  002D  3D0A        	sz z
 883  002E  2800     R  	jmp _L17
 883  002F  0A01        	sub a,(22)-(21)
 883  0030  3D0A        	sz z
 883  0031  2800     R  	jmp _L18
 883  0032  0700     E  	mov a,ra
 883  0033  0A17        	sub a,23
文件：comm.c       编译器版本 HGASM 0202 页次4

 883  0034  3D0A        	sz z
 883  0035  2800     R  	jmp _L19
 883  0036  0A01        	sub a,(24)-(23)
 883  0037  3D0A        	sz z
 883  0038  2800     R  	jmp _L20
 883  0039  0700     E  	mov a,ra
 883  003A  0A19        	sub a,25
 883  003B  3D0A        	sz z
 883  003C  2800     R  	jmp _L21
 883  003D  0700     E  	mov a,ra
 883  003E  0AD0        	sub a,208
 883  003F  390A        	snz z
 883  0040  2800     R  	jmp _L29
1024  0041              #line 1024 "C:\Users\houlinfeng\Desktop\TwoWireDevice_Hou\source\comm.c"
1024  0041  0700     E  	mov a,_FuncData[26]
1024  0042  0080     E  	mov ra,a
1024  0043  2800     R  	jmp _L4
1024  0044              _L5:
 889  0044              #line 889 "C:\Users\houlinfeng\Desktop\TwoWireDevice_Hou\source\comm.c"
 889  0044  1700     E  	sdza _SysData[4]
 889  0045  2800     R  	jmp _L23
 891  0046              #line 891 "C:\Users\houlinfeng\Desktop\TwoWireDevice_Hou\source\comm.c"
 891  0046  0700     E  	mov a,_CommData[11]
 891  0047  0080     R  	mov _GetReg_2[1],a
 891  0048  0700     R  	mov a,_GetReg_2[1]
 891  0049  0200     E  	sub a,_CommData[4]
 891  004A  390A        	snz z
 891  004B  2800     R  	jmp _L24
 894  004C              #line 894 "C:\Users\houlinfeng\Desktop\TwoWireDevice_Hou\source\comm.c"
 894  004C  0700     E  	mov a,_FuncData[39]
 894  004D  0080     E  	mov ra,a
 895  004E              #line 895 "C:\Users\houlinfeng\Desktop\TwoWireDevice_Hou\source\comm.c"
 895  004E  0F01        	mov a,1
 895  004F  0080     E  	mov _CommData[23],a
 896  0050              #line 896 "C:\Users\houlinfeng\Desktop\TwoWireDevice_Hou\source\comm.c"
 896  0050  3400     E  	clr _CommData[24].1
 896  0051  2800     R  	jmp _L4
 896  0052              _L24:
 898  0052              #line 898 "C:\Users\houlinfeng\Desktop\TwoWireDevice_Hou\source\comm.c"
 898  0052  0700     R  	mov a,_GetReg_2[1]
 898  0053  0200     E  	sub a,_CommData[1]
 898  0054  3D0A        	sz z
 898  0055  2800     R  	jmp _L23
 899  0056              #line 899 "C:\Users\houlinfeng\Desktop\TwoWireDevice_Hou\source\comm.c"
 899  0056  1080     R  	sz _GetReg_2[1]
 899  0057  2800     R  	jmp _L29
 899  0058              _L23:
 901  0058              #line 901 "C:\Users\houlinfeng\Desktop\TwoWireDevice_Hou\source\comm.c"
 901  0058  0700     E  	mov a,_FuncData[10]
 901  0059  0080     E  	mov ra,a
 902  005A              #line 902 "C:\Users\houlinfeng\Desktop\TwoWireDevice_Hou\source\comm.c"
 902  005A  0F01        	mov a,1
 902  005B  0080     E  	mov _CommData[19],a
 903  005C              #line 903 "C:\Users\houlinfeng\Desktop\TwoWireDevice_Hou\source\comm.c"
 903  005C  3400     E  	clr _CommData[20].1
 903  005D  2800     R  	jmp _L4
 903  005E              _L6:
 923  005E              #line 923 "C:\Users\houlinfeng\Desktop\TwoWireDevice_Hou\source\comm.c"
 923  005E  1700     E  	sdza _SysData[4]
 923  005F  2800     R  	jmp _L25
文件：comm.c       编译器版本 HGASM 0202 页次5

 925  0060              #line 925 "C:\Users\houlinfeng\Desktop\TwoWireDevice_Hou\source\comm.c"
 925  0060  0700     E  	mov a,_CommData[11]
 925  0061  0080     R  	mov _GetReg_2[1],a
 925  0062  0700     R  	mov a,_GetReg_2[1]
 925  0063  0200     E  	sub a,_CommData[4]
 925  0064  390A        	snz z
 925  0065  2800     R  	jmp _L26
 928  0066              #line 928 "C:\Users\houlinfeng\Desktop\TwoWireDevice_Hou\source\comm.c"
 928  0066  0700     E  	mov a,_FuncData[40]
 928  0067  0080     E  	mov ra,a
 928  0068  2800     R  	jmp _L4
 928  0069              _L26:
 930  0069              #line 930 "C:\Users\houlinfeng\Desktop\TwoWireDevice_Hou\source\comm.c"
 930  0069  0700     R  	mov a,_GetReg_2[1]
 930  006A  0200     E  	sub a,_CommData[1]
 930  006B  3D0A        	sz z
 930  006C  2800     R  	jmp _L25
 931  006D              #line 931 "C:\Users\houlinfeng\Desktop\TwoWireDevice_Hou\source\comm.c"
 931  006D  1080     R  	sz _GetReg_2[1]
 931  006E  2800     R  	jmp _L29
 931  006F              _L25:
 933  006F              #line 933 "C:\Users\houlinfeng\Desktop\TwoWireDevice_Hou\source\comm.c"
 933  006F  0700     E  	mov a,_FuncData[11]
 933  0070  0080     E  	mov ra,a
 933  0071  2800     R  	jmp _L4
 933  0072              _L7:
 947  0072              #line 947 "C:\Users\houlinfeng\Desktop\TwoWireDevice_Hou\source\comm.c"
 947  0072  0700     E  	mov a,_MemData[9]
 947  0073  0080     E  	mov ra,a
 950  0074              #line 950 "C:\Users\houlinfeng\Desktop\TwoWireDevice_Hou\source\comm.c"
 950  0074  1700     E  	sdza _SysData[4]
 950  0075  2800     R  	jmp _L4
 952  0076              #line 952 "C:\Users\houlinfeng\Desktop\TwoWireDevice_Hou\source\comm.c"
 952  0076  0700     E  	mov a,_CommData[11]
 952  0077  0200     E  	sub a,_CommData[4]
 952  0078  390A        	snz z
 952  0079  2800     R  	jmp _L4
 954  007A              #line 954 "C:\Users\houlinfeng\Desktop\TwoWireDevice_Hou\source\comm.c"
 954  007A  0700     E  	mov a,_SysData[3]
 954  007B  0080     E  	mov ra,a
 954  007C  2800     R  	jmp _L4
 954  007D              _L8:
 964  007D              #line 964 "C:\Users\houlinfeng\Desktop\TwoWireDevice_Hou\source\comm.c"
 964  007D  0700     E  	mov a,_FuncData[35]
 964  007E  0080     E  	mov ra,a
 966  007F              #line 966 "C:\Users\houlinfeng\Desktop\TwoWireDevice_Hou\source\comm.c"
 966  007F  2800     R  	jmp _L4
 966  0080              _L9:
 972  0080              #line 972 "C:\Users\houlinfeng\Desktop\TwoWireDevice_Hou\source\comm.c"
 972  0080  0700     E  	mov a,_FuncData[31]
 972  0081  0080     E  	mov ra,a
 974  0082              #line 974 "C:\Users\houlinfeng\Desktop\TwoWireDevice_Hou\source\comm.c"
 974  0082  1700     E  	sdza _SysData[4]
 974  0083  2800     R  	jmp _L4
 976  0084              #line 976 "C:\Users\houlinfeng\Desktop\TwoWireDevice_Hou\source\comm.c"
 976  0084  0700     E  	mov a,_CommData[11]
 976  0085  0200     E  	sub a,_CommData[4]
 976  0086  390A        	snz z
 976  0087  2800     R  	jmp _L4
 978  0088              #line 978 "C:\Users\houlinfeng\Desktop\TwoWireDevice_Hou\source\comm.c"
文件：comm.c       编译器版本 HGASM 0202 页次6

 978  0088  0700     E  	mov a,_FuncData[37]
 978  0089  0080     E  	mov ra,a
 978  008A  2800     R  	jmp _L4
 978  008B              _L10:
 988  008B              #line 988 "C:\Users\houlinfeng\Desktop\TwoWireDevice_Hou\source\comm.c"
 988  008B  0700     E  	mov a,_FuncData[34]
 988  008C  0080     E  	mov ra,a
 990  008D              #line 990 "C:\Users\houlinfeng\Desktop\TwoWireDevice_Hou\source\comm.c"
 990  008D  2800     R  	jmp _L4
 990  008E              _L11:
 995  008E              #line 995 "C:\Users\houlinfeng\Desktop\TwoWireDevice_Hou\source\comm.c"
 995  008E  0700     E  	mov a,_FuncData[32]
 995  008F  0080     E  	mov ra,a
 998  0090              #line 998 "C:\Users\houlinfeng\Desktop\TwoWireDevice_Hou\source\comm.c"
 998  0090  1700     E  	sdza _SysData[4]
 998  0091  2800     R  	jmp _L4
1000  0092              #line 1000 "C:\Users\houlinfeng\Desktop\TwoWireDevice_Hou\source\comm.c"
1000  0092  0700     E  	mov a,_CommData[11]
1000  0093  0200     E  	sub a,_CommData[4]
1000  0094  390A        	snz z
1000  0095  2800     R  	jmp _L4
1002  0096              #line 1002 "C:\Users\houlinfeng\Desktop\TwoWireDevice_Hou\source\comm.c"
1002  0096  0700     E  	mov a,_FuncData[38]
1002  0097  0080     E  	mov ra,a
1002  0098  2800     R  	jmp _L4
1002  0099              _L12:
1012  0099              #line 1012 "C:\Users\houlinfeng\Desktop\TwoWireDevice_Hou\source\comm.c"
1012  0099  0700     E  	mov a,_FuncData[16]
1012  009A  0080     E  	mov ra,a
1012  009B  2800     R  	jmp _L4
1012  009C              _L13:
1013  009C              #line 1013 "C:\Users\houlinfeng\Desktop\TwoWireDevice_Hou\source\comm.c"
1013  009C  0700     E  	mov a,_FuncData[17]
1013  009D  0080     E  	mov ra,a
1013  009E  2800     R  	jmp _L4
1013  009F              _L14:
1014  009F              #line 1014 "C:\Users\houlinfeng\Desktop\TwoWireDevice_Hou\source\comm.c"
1014  009F  0700     E  	mov a,_FuncData[18]
1014  00A0  0080     E  	mov ra,a
1014  00A1  2800     R  	jmp _L4
1014  00A2              _L15:
1015  00A2              #line 1015 "C:\Users\houlinfeng\Desktop\TwoWireDevice_Hou\source\comm.c"
1015  00A2  0700     E  	mov a,_FuncData[19]
1015  00A3  0080     E  	mov ra,a
1015  00A4  2800     R  	jmp _L4
1015  00A5              _L16:
1016  00A5              #line 1016 "C:\Users\houlinfeng\Desktop\TwoWireDevice_Hou\source\comm.c"
1016  00A5  0700     E  	mov a,_FuncData[20]
1016  00A6  0080     E  	mov ra,a
1016  00A7  2800     R  	jmp _L4
1016  00A8              _L17:
1017  00A8              #line 1017 "C:\Users\houlinfeng\Desktop\TwoWireDevice_Hou\source\comm.c"
1017  00A8  0700     E  	mov a,_FuncData[21]
1017  00A9  0080     E  	mov ra,a
1017  00AA  2800     R  	jmp _L4
1017  00AB              _L18:
1018  00AB              #line 1018 "C:\Users\houlinfeng\Desktop\TwoWireDevice_Hou\source\comm.c"
1018  00AB  0700     E  	mov a,_FuncData[22]
1018  00AC  0080     E  	mov ra,a
1018  00AD  2800     R  	jmp _L4
文件：comm.c       编译器版本 HGASM 0202 页次7

1018  00AE              _L19:
1019  00AE              #line 1019 "C:\Users\houlinfeng\Desktop\TwoWireDevice_Hou\source\comm.c"
1019  00AE  0700     E  	mov a,_FuncData[23]
1019  00AF  0080     E  	mov ra,a
1019  00B0  2800     R  	jmp _L4
1019  00B1              _L20:
1020  00B1              #line 1020 "C:\Users\houlinfeng\Desktop\TwoWireDevice_Hou\source\comm.c"
1020  00B1  0700     E  	mov a,_FuncData[24]
1020  00B2  0080     E  	mov ra,a
1020  00B3  2800     R  	jmp _L4
1020  00B4              _L21:
1021  00B4              #line 1021 "C:\Users\houlinfeng\Desktop\TwoWireDevice_Hou\source\comm.c"
1021  00B4  0700     E  	mov a,_FuncData[25]
1021  00B5  0080     E  	mov ra,a
1021  00B6  2800     R  	jmp _L4
1021  00B7              _L29:
 881  00B7              #line 881 "C:\Users\houlinfeng\Desktop\TwoWireDevice_Hou\source\comm.c"
 881  00B7  1F00     E  	clr ra
 881  00B8              _L4:
1029  00B8              #line 1029 "C:\Users\houlinfeng\Desktop\TwoWireDevice_Hou\source\comm.c"
1029  00B8  0700     E  	mov a,ra
1029  00B9  0003        	ret
1029  00BA              _GetReg endp
1029  00BA              #line 1029 "C:\Users\houlinfeng\Desktop\TwoWireDevice_Hou\source\comm.c"
1029  00BA              #pragma debug scope 1 1
1029  00BA              public _SetReg
1029  00BA              #pragma debug scope 5 1
1035  00BA              #line 1035 "C:\Users\houlinfeng\Desktop\TwoWireDevice_Hou\source\comm.c"
1035  0000              _SetReg .section 'code'
1035  0000              _SetReg proc
1035  0000              public _SetReg_2
1035  0000  0003[           local _SetReg_2 db 3 dup(?)	; 1,2
            00
            ]
1035  0000  0080     E  	mov ra,a
1035  0001              #pragma debug variable 8 5 _SetReg_2+1 "Index"
1035  0001              #pragma debug variable 8 5 _SetReg_2+0 "Data"
1038  0001              #line 1038 "C:\Users\houlinfeng\Desktop\TwoWireDevice_Hou\source\comm.c"
1038  0001  0700     E  	mov a,ra
1038  0002  0A03        	sub a,3
1038  0003  3D0A        	sz z
1038  0004  2800     R  	jmp _L34
1038  0005  0A01        	sub a,(4)-(3)
1038  0006  3D0A        	sz z
1038  0007  2800     R  	jmp _L35
1038  0008              #line 1038 "C:\Users\houlinfeng\Desktop\TwoWireDevice_Hou\source\comm.c"
1038  0008  0700     E  	mov a,ra
1038  0009  0A08        	sub a,8
1038  000A  3D0A        	sz z
1038  000B  2800     R  	jmp _L36
1038  000C  0A01        	sub a,(9)-(8)
1038  000D  3D0A        	sz z
1038  000E  2800     R  	jmp _L37
1038  000F  0700     E  	mov a,ra
1038  0010  0AD0        	sub a,208
1038  0011  390A        	snz z
1038  0012  2800     R  	jmp _L48
1114  0013              #line 1114 "C:\Users\houlinfeng\Desktop\TwoWireDevice_Hou\source\comm.c"
1114  0013  0700     R  	mov a,_SetReg_2[0]
1114  0014  0080     E  	mov _FuncData[26],a
文件：comm.c       编译器版本 HGASM 0202 页次8

1114  0015  2800     R  	jmp _L47
1114  0016              _L34:
1044  0016              #line 1044 "C:\Users\houlinfeng\Desktop\TwoWireDevice_Hou\source\comm.c"
1044  0016  0F00        	mov a,0
1044  0017  0200     R  	sub a,_SetReg_2[0]
1044  0018  0080     E  	mov ra,a
1044  0019  0700     R  	mov a,_SetReg_2[0]
1044  001A  0580     E  	orm a,ra
1044  001B  1800     E  	rla ra
1044  001C  0E01        	and a,1
1044  001D  0080     E  	mov _FuncData[35],a
1044  001E  2800     R  	jmp _L47
1044  001F              _L35:
1044  001F              #pragma debug scope 6 5
1044  001F              ;begin block, line: 1044.-1
1044  001F              #pragma debug scope 7 6
1044  001F              ;begin block, line: 1044.-1
1053  001F              #line 1053 "C:\Users\houlinfeng\Desktop\TwoWireDevice_Hou\source\comm.c"
1053  001F  1700     E  	sdza _SysData[4]
1053  0020  2800     R  	jmp _L50
1055  0021              #line 1055 "C:\Users\houlinfeng\Desktop\TwoWireDevice_Hou\source\comm.c"
1055  0021  0700     E  	mov a,_CommData[11]
1055  0022  0080     R  	mov _SetReg_2[2],a
1055  0023  0700     R  	mov a,_SetReg_2[2]
1055  0024  0200     E  	sub a,_CommData[4]
1055  0025  390A        	snz z
1055  0026  2800     R  	jmp _L40
1057  0027              #line 1057 "C:\Users\houlinfeng\Desktop\TwoWireDevice_Hou\source\comm.c"
1057  0027  0700     R  	mov a,_SetReg_2[0]
1057  0028  0080     E  	mov _FuncData[37],a
1057  0029  2800     R  	jmp _L47
1057  002A              _L40:
1059  002A              #line 1059 "C:\Users\houlinfeng\Desktop\TwoWireDevice_Hou\source\comm.c"
1059  002A  0700     R  	mov a,_SetReg_2[2]
1059  002B  0200     E  	sub a,_CommData[1]
1059  002C  3D0A        	sz z
1059  002D  2800     R  	jmp _L50
1063  002E              #line 1063 "C:\Users\houlinfeng\Desktop\TwoWireDevice_Hou\source\comm.c"
1063  002E  1080     R  	sz _SetReg_2[2]
1063  002F  2800     R  	jmp _L47
1065  0030              #line 1065 "C:\Users\houlinfeng\Desktop\TwoWireDevice_Hou\source\comm.c"
1065  0030  0700     R  	mov a,_SetReg_2[0]
1065  0031  0080     E  	mov _FuncData[37],a
1065  0032              _L50:
1066  0032              #line 1066 "C:\Users\houlinfeng\Desktop\TwoWireDevice_Hou\source\comm.c"
1066  0032  0700     R  	mov a,_SetReg_2[0]
1066  0033  0080     E  	mov _FuncData[31],a
1066  0034  2800     R  	jmp _L47
1066  0035              _L36:
1066  0035              #pragma debug scope 6 5
1066  0035              #pragma debug scope 5 1
1080  0035              #line 1080 "C:\Users\houlinfeng\Desktop\TwoWireDevice_Hou\source\comm.c"
1080  0035  0700     R  	mov a,_SetReg_2[0]
1080  0036  0080     E  	mov _FuncData[34],a
1080  0037  2800     R  	jmp _L47
1080  0038              _L37:
1089  0038              #line 1089 "C:\Users\houlinfeng\Desktop\TwoWireDevice_Hou\source\comm.c"
1089  0038  1700     E  	sdza _SysData[4]
1089  0039  2800     R  	jmp _L49
1091  003A              #line 1091 "C:\Users\houlinfeng\Desktop\TwoWireDevice_Hou\source\comm.c"
文件：comm.c       编译器版本 HGASM 0202 页次9

1091  003A  0700     E  	mov a,_CommData[11]
1091  003B  0080     R  	mov _SetReg_2[2],a
1091  003C  0700     R  	mov a,_SetReg_2[2]
1091  003D  0200     E  	sub a,_CommData[4]
1091  003E  390A        	snz z
1091  003F  2800     R  	jmp _L43
1093  0040              #line 1093 "C:\Users\houlinfeng\Desktop\TwoWireDevice_Hou\source\comm.c"
1093  0040  0700     R  	mov a,_SetReg_2[0]
1093  0041  0080     E  	mov _FuncData[38],a
1093  0042  2800     R  	jmp _L47
1093  0043              _L43:
1095  0043              #line 1095 "C:\Users\houlinfeng\Desktop\TwoWireDevice_Hou\source\comm.c"
1095  0043  0700     R  	mov a,_SetReg_2[2]
1095  0044  0200     E  	sub a,_CommData[1]
1095  0045  3D0A        	sz z
1095  0046  2800     R  	jmp _L49
1099  0047              #line 1099 "C:\Users\houlinfeng\Desktop\TwoWireDevice_Hou\source\comm.c"
1099  0047  1080     R  	sz _SetReg_2[2]
1099  0048  2800     R  	jmp _L47
1101  0049              #line 1101 "C:\Users\houlinfeng\Desktop\TwoWireDevice_Hou\source\comm.c"
1101  0049  0700     R  	mov a,_SetReg_2[0]
1101  004A  0080     E  	mov _FuncData[38],a
1101  004B              _L49:
1102  004B              #line 1102 "C:\Users\houlinfeng\Desktop\TwoWireDevice_Hou\source\comm.c"
1102  004B  0700     R  	mov a,_SetReg_2[0]
1102  004C  0080     E  	mov _FuncData[32],a
1102  004D  2800     R  	jmp _L47
1102  004E              _L48:
1117  004E              #line 1117 "C:\Users\houlinfeng\Desktop\TwoWireDevice_Hou\source\comm.c"
1117  004E  1F00     E  	clr ra
1117  004F  2800     R  	jmp _L33
1117  0050              _L47:
1117  0050  0F01        	mov a,1
1117  0051  0080     E  	mov ra,a
1117  0052              _L33:
1120  0052              #line 1120 "C:\Users\houlinfeng\Desktop\TwoWireDevice_Hou\source\comm.c"
1120  0052  0700     E  	mov a,ra
1120  0053  0003        	ret
1120  0054              _SetReg endp
1120  0054              #line 1120 "C:\Users\houlinfeng\Desktop\TwoWireDevice_Hou\source\comm.c"
1120  0054              #pragma debug scope 1 1
1120  0054              public _CommProtocol
1120  0054              #pragma debug scope 8 1
  48  0054              #line 48 "C:\Users\houlinfeng\Desktop\TwoWireDevice_Hou\source\comm.c"
  48  0000              _CommProtocol .section 'code'
  48  0000              _CommProtocol proc
  48  0000  0003[           local _CommProtocol_2 db 3 dup(?)	; 0,3
            00
            ]
  56  0003              #line 56 "C:\Users\houlinfeng\Desktop\TwoWireDevice_Hou\source\comm.c"
  56  0000  0700     E  	mov a,_CommData[0]
  56  0001  0A10        	sub a,16
  56  0002  3D0A        	sz z
  56  0003  2800     R  	jmp _L53
  56  0004  0A11        	sub a,(33)-(16)
  56  0005  3D0A        	sz z
  56  0006  2800     R  	jmp _L139
  56  0007              #line 56 "C:\Users\houlinfeng\Desktop\TwoWireDevice_Hou\source\comm.c"
  56  0007  0700     E  	mov a,_CommData[0]
  56  0008  0A22        	sub a,34
文件：comm.c       编译器版本 HGASM 0202 页次10

  56  0009  3D0A        	sz z
  56  000A  2800     R  	jmp _L55
  56  000B  0700     E  	mov a,_CommData[0]
  56  000C  0A23        	sub a,35
  56  000D  390A        	snz z
  56  000E  2800     R  	jmp _L51
  56  000F  2800     R  	jmp _L217
  56  0010              _L53:
  61  0010              #line 61 "C:\Users\houlinfeng\Desktop\TwoWireDevice_Hou\source\comm.c"
  61  0010  0700     E  	mov a,_CommData[10]
  61  0011  0A09        	sub a,9
  61  0012  390A        	snz z
  61  0013  2800     R  	jmp _L51
  82  0014              #line 82 "C:\Users\houlinfeng\Desktop\TwoWireDevice_Hou\source\comm.c"
  82  0014  0700     E  	mov a,_CommData[8]
  82  0015  0080     R  	mov _CommProtocol_2[0],a
  82  0016  0700     R  	mov a,_CommProtocol_2[0]
  82  0017  0080     E  	mov _CommData[11],a
  83  0018              #line 83 "C:\Users\houlinfeng\Desktop\TwoWireDevice_Hou\source\comm.c"
  83  0018  0700     R  	mov a,_CommProtocol_2[0]
  83  0019  0AF9        	sub a,249
  83  001A  3D0A        	sz z
  83  001B  2800     R  	jmp _L59
  83  001C  0A01        	sub a,(250)-(249)
  83  001D  3D0A        	sz z
  83  001E  2800     R  	jmp _L60
  83  001F  0700     R  	mov a,_CommProtocol_2[0]
  83  0020  0AFB        	sub a,251
  83  0021  3D0A        	sz z
  83  0022  2800     R  	jmp _L59
  83  0023  0A01        	sub a,(252)-(251)
  83  0024  3D0A        	sz z
  83  0025  2800     R  	jmp _L59
  83  0026  0700     R  	mov a,_CommProtocol_2[0]
  83  0027  0AFD        	sub a,253
  83  0028  3D0A        	sz z
  83  0029  2800     R  	jmp _L61
  83  002A  0700     R  	mov a,_CommProtocol_2[0]
  83  002B  0AFE        	sub a,254
  83  002C  390A        	snz z
  83  002D  2800     R  	jmp _L186
  88  002E              #line 88 "C:\Users\houlinfeng\Desktop\TwoWireDevice_Hou\source\comm.c"
  88  002E  0F21        	mov a,33
  88  002F  0080     E  	mov _CommData[0],a
  89  0030              #line 89 "C:\Users\houlinfeng\Desktop\TwoWireDevice_Hou\source\comm.c"
  89  0030  1E00     E  	snz _CommData[17]
  89  0031  2800     R  	jmp _L144
  89  0032  0F80        	mov a,128
  89  0033  0080     E  	mov ra,a
  89  0034  2800     R  	jmp _L63
  89  0035              _L144:
  89  0035  1F00     E  	clr ra
  89  0036              _L63:
  89  0036  0700     E  	mov a,ra
  89  0037  0080     E  	mov _CommData[7],a
  93  0038              #line 93 "C:\Users\houlinfeng\Desktop\TwoWireDevice_Hou\source\comm.c"
  93  0038  1700     E  	sdza _SysData[4]
  93  0039  2800     R  	jmp _L64
  95  003A              #line 95 "C:\Users\houlinfeng\Desktop\TwoWireDevice_Hou\source\comm.c"
  95  003A  1E00     E  	snz _CommData[21]
文件：comm.c       编译器版本 HGASM 0202 页次11

  95  003B  2800     R  	jmp _L145
  95  003C  0F80        	mov a,128
  95  003D  0080     E  	mov rb,a
  95  003E  2800     R  	jmp _L65
  95  003F              _L145:
  95  003F  1F00     E  	clr rb
  95  0040              _L65:
  95  0040  0700     E  	mov a,rb
  95  0041  0500     E  	or a,ra
  95  0042  0080     E  	mov _CommData[7],a
  95  0043              _L64:
  99  0043              #line 99 "C:\Users\houlinfeng\Desktop\TwoWireDevice_Hou\source\comm.c"
  99  0043  0F01        	mov a,1
  99  0044  0080     E  	mov _CommData[9],a
 100  0045              #line 100 "C:\Users\houlinfeng\Desktop\TwoWireDevice_Hou\source\comm.c"
 100  0045  2800     R  	jmp _L51
 100  0046              _L61:
 104  0046              #line 104 "C:\Users\houlinfeng\Desktop\TwoWireDevice_Hou\source\comm.c"
 104  0046  0F21        	mov a,33
 104  0047  0080     E  	mov _CommData[0],a
 105  0048              #line 105 "C:\Users\houlinfeng\Desktop\TwoWireDevice_Hou\source\comm.c"
 105  0048  1E00     E  	snz _CommData[17]
 105  0049  2800     R  	jmp _L146
 105  004A  0F80        	mov a,128
 105  004B  0080     E  	mov ra,a
 105  004C  2800     R  	jmp _L66
 105  004D              _L146:
 105  004D  1F00     E  	clr ra
 105  004E              _L66:
 105  004E  0700     E  	mov a,ra
 105  004F  0080     E  	mov _CommData[7],a
 108  0050              #line 108 "C:\Users\houlinfeng\Desktop\TwoWireDevice_Hou\source\comm.c"
 108  0050  1700     E  	sdza _SysData[4]
 108  0051  2800     R  	jmp _L67
 110  0052              #line 110 "C:\Users\houlinfeng\Desktop\TwoWireDevice_Hou\source\comm.c"
 110  0052  1E00     E  	snz _CommData[21]
 110  0053  2800     R  	jmp _L147
 110  0054  0F80        	mov a,128
 110  0055  0080     E  	mov rb,a
 110  0056  2800     R  	jmp _L68
 110  0057              _L147:
 110  0057  1F00     E  	clr rb
 110  0058              _L68:
 110  0058  0700     E  	mov a,rb
 110  0059  0500     E  	or a,ra
 110  005A  0080     E  	mov _CommData[7],a
 110  005B              _L67:
 113  005B              #line 113 "C:\Users\houlinfeng\Desktop\TwoWireDevice_Hou\source\comm.c"
 113  005B  0F01        	mov a,1
 113  005C  0080     E  	mov _CommData[9],a
 132  005D              #line 132 "C:\Users\houlinfeng\Desktop\TwoWireDevice_Hou\source\comm.c"
 132  005D  0700     E  	mov a,_SysData[2]
 132  005E  0A28        	sub a,40
 132  005F  3D0A        	sz z
 132  0060  2800     R  	jmp _L70
 132  0061  0A0A        	sub a,(50)-(40)
 132  0062  3D0A        	sz z
 132  0063  2800     R  	jmp _L70
 132  0064  0700     E  	mov a,_SysData[2]
 132  0065  0A33        	sub a,51
文件：comm.c       编译器版本 HGASM 0202 页次12

 132  0066  3D0A        	sz z
 132  0067  2800     R  	jmp _L70
 132  0068  0A09        	sub a,(60)-(51)
 132  0069  3D0A        	sz z
 132  006A  2800     R  	jmp _L70
 132  006B  0700     E  	mov a,_SysData[2]
 132  006C  0A3D        	sub a,61
 132  006D  390A        	snz z
 132  006E  2800     R  	jmp _L187
 132  006F              _L70:
 141  006F              #line 141 "C:\Users\houlinfeng\Desktop\TwoWireDevice_Hou\source\comm.c"
 141  006F  3000     E  	set _FuncData[0].5
 143  0070              #line 143 "C:\Users\houlinfeng\Desktop\TwoWireDevice_Hou\source\comm.c"
 143  0070  2800     R  	jmp _L51
 143  0071              _L187:
 147  0071              #line 147 "C:\Users\houlinfeng\Desktop\TwoWireDevice_Hou\source\comm.c"
 147  0071  3000     E  	set _FuncData[0].4
 149  0072              #line 149 "C:\Users\houlinfeng\Desktop\TwoWireDevice_Hou\source\comm.c"
 149  0072  2800     R  	jmp _L51
 149  0073              _L59:
 163  0073              #line 163 "C:\Users\houlinfeng\Desktop\TwoWireDevice_Hou\source\comm.c"
 163  0073  0F22        	mov a,34
 163  0074  0080     E  	mov _CommData[0],a
 164  0075              #line 164 "C:\Users\houlinfeng\Desktop\TwoWireDevice_Hou\source\comm.c"
 164  0075  2800     R  	jmp _L51
 164  0076              _L60:
 168  0076              #line 168 "C:\Users\houlinfeng\Desktop\TwoWireDevice_Hou\source\comm.c"
 168  0076  0F21        	mov a,33
 168  0077  0080     E  	mov _CommData[0],a
 169  0078              #line 169 "C:\Users\houlinfeng\Desktop\TwoWireDevice_Hou\source\comm.c"
 169  0078  1E00     E  	snz _CommData[17]
 169  0079  2800     R  	jmp _L148
 169  007A  0F80        	mov a,128
 169  007B  0080     E  	mov ra,a
 169  007C  2800     R  	jmp _L71
 169  007D              _L148:
 169  007D  1F00     E  	clr ra
 169  007E              _L71:
 169  007E  0700     E  	mov a,ra
 169  007F  0080     E  	mov _CommData[7],a
 173  0080              #line 173 "C:\Users\houlinfeng\Desktop\TwoWireDevice_Hou\source\comm.c"
 173  0080  1700     E  	sdza _SysData[4]
 173  0081  2800     R  	jmp _L72
 175  0082              #line 175 "C:\Users\houlinfeng\Desktop\TwoWireDevice_Hou\source\comm.c"
 175  0082  1E00     E  	snz _CommData[21]
 175  0083  2800     R  	jmp _L149
 175  0084  0F80        	mov a,128
 175  0085  0080     E  	mov rb,a
 175  0086  2800     R  	jmp _L73
 175  0087              _L149:
 175  0087  1F00     E  	clr rb
 175  0088              _L73:
 175  0088  0700     E  	mov a,rb
 175  0089  0500     E  	or a,ra
 175  008A  0080     E  	mov _CommData[7],a
 175  008B              _L72:
 179  008B              #line 179 "C:\Users\houlinfeng\Desktop\TwoWireDevice_Hou\source\comm.c"
 179  008B  0F01        	mov a,1
 179  008C  0080     E  	mov _CommData[9],a
 181  008D              #line 181 "C:\Users\houlinfeng\Desktop\TwoWireDevice_Hou\source\comm.c"
文件：comm.c       编译器版本 HGASM 0202 页次13

 181  008D  0F01        	mov a,1
 181  008E  0080     E  	mov _FuncData[7],a
 182  008F              #line 182 "C:\Users\houlinfeng\Desktop\TwoWireDevice_Hou\source\comm.c"
 182  008F  2800     R  	jmp _L51
 182  0090              _L186:
 187  0090              #line 187 "C:\Users\houlinfeng\Desktop\TwoWireDevice_Hou\source\comm.c"
 187  0090  1E00     R  	snz _CommProtocol_2[0]
 187  0091  2800     R  	jmp _L74
 187  0092  0700     R  	mov a,_CommProtocol_2[0]
 187  0093  0200     E  	sub a,_CommData[1]
 187  0094  390A        	snz z
 187  0095  2800     R  	jmp _L75
 187  0096              _L74:
 190  0096              #line 190 "C:\Users\houlinfeng\Desktop\TwoWireDevice_Hou\source\comm.c"
 190  0096  0F01        	mov a,1
 190  0097  0080     E  	mov _CommData[16],a
 190  0098  2800     R  	jmp _L188
 190  0099              _L75:
 195  0099              #line 195 "C:\Users\houlinfeng\Desktop\TwoWireDevice_Hou\source\comm.c"
 195  0099  0700     R  	mov a,_CommProtocol_2[0]
 195  009A  0200     E  	sub a,_CommData[4]
 195  009B  390A        	snz z
 195  009C  2800     R  	jmp _L77
 196  009D              #line 196 "C:\Users\houlinfeng\Desktop\TwoWireDevice_Hou\source\comm.c"
 196  009D  1700     E  	sdza _SysData[4]
 196  009E  2800     R  	jmp _L77
 199  009F              #line 199 "C:\Users\houlinfeng\Desktop\TwoWireDevice_Hou\source\comm.c"
 199  009F  0F02        	mov a,2
 199  00A0  0080     E  	mov _CommData[16],a
 199  00A1              _L188:
 200  00A1              #line 200 "C:\Users\houlinfeng\Desktop\TwoWireDevice_Hou\source\comm.c"
 200  00A1  0F23        	mov a,35
 200  00A2  0080     E  	mov _CommData[0],a
 200  00A3  2800     R  	jmp _L76
 200  00A4              _L77:
 205  00A4              #line 205 "C:\Users\houlinfeng\Desktop\TwoWireDevice_Hou\source\comm.c"
 205  00A4  1F00     E  	clr _CommData[16]
 206  00A5              #line 206 "C:\Users\houlinfeng\Desktop\TwoWireDevice_Hou\source\comm.c"
 206  00A5  0F12        	mov a,18
 206  00A6  0080     E  	mov _CommData[0],a
 206  00A7              _L76:
 210  00A7              #line 210 "C:\Users\houlinfeng\Desktop\TwoWireDevice_Hou\source\comm.c"
 210  00A7  0700     R  	mov a,_CommProtocol_2[0]
 210  00A8  0080     E  	mov _CommData[15],a
 211  00A9              #line 211 "C:\Users\houlinfeng\Desktop\TwoWireDevice_Hou\source\comm.c"
 211  00A9  2800     R  	jmp _L51
 211  00AA              _L55:
 227  00AA              #line 227 "C:\Users\houlinfeng\Desktop\TwoWireDevice_Hou\source\comm.c"
 227  00AA  0700     E  	mov a,_CommData[10]
 227  00AB  0A0E        	sub a,14
 227  00AC  3D0A        	sz z
 227  00AD  2800     R  	jmp _L78
 227  00AE  0A08        	sub a,(22)-(14)
 227  00AF  3D0A        	sz z
 227  00B0  2800     R  	jmp _L79
 227  00B1  0700     E  	mov a,_CommData[10]
 227  00B2  0A1E        	sub a,30
 227  00B3  390A        	snz z
 227  00B4  2800     R  	jmp _L51
 227  00B5  2800     R  	jmp _L139
文件：comm.c       编译器版本 HGASM 0202 页次14

 227  00B6              _L78:
 233  00B6              #line 233 "C:\Users\houlinfeng\Desktop\TwoWireDevice_Hou\source\comm.c"
 233  00B6  0700     E  	mov a,_CommData[8]
 233  00B7  0E0F        	and a,15
 233  00B8  0080     R  	mov _CommProtocol_2[0],a
 233  00B9  0700     R  	mov a,_CommProtocol_2[0]
 233  00BA  0080     E  	mov _CommData[12],a
 234  00BB              #line 234 "C:\Users\houlinfeng\Desktop\TwoWireDevice_Hou\source\comm.c"
 234  00BB  1F00     E  	clr _CommData[7]
 235  00BC              #line 235 "C:\Users\houlinfeng\Desktop\TwoWireDevice_Hou\source\comm.c"
 235  00BC  0F08        	mov a,8
 235  00BD  0080     E  	mov _CommData[9],a
 237  00BE              #line 237 "C:\Users\houlinfeng\Desktop\TwoWireDevice_Hou\source\comm.c"
 237  00BE  0700     E  	mov a,_CommData[2]
 237  00BF  0080     E  	mov rd,a
 237  00C0  0700     R  	mov a,_CommProtocol_2[0]
 237  00C1  0200     E  	sub a,rd
 237  00C2  390A        	snz z
 237  00C3  2800     R  	jmp _L81
 239  00C4              #line 239 "C:\Users\houlinfeng\Desktop\TwoWireDevice_Hou\source\comm.c"
 239  00C4  0700     E  	mov a,_CommData[3]
 239  00C5  0080     E  	mov rd,a
 239  00C6  2800     R  	jmp _L214
 239  00C7              _L81:
 262  00C7              #line 262 "C:\Users\houlinfeng\Desktop\TwoWireDevice_Hou\source\comm.c"
 262  00C7  0700     R  	mov a,_CommProtocol_2[0]
 262  00C8  0A0F        	sub a,15
 262  00C9  390A        	snz z
 262  00CA  2800     R  	jmp _L82
 262  00CB              _L214:
 264  00CB              #line 264 "C:\Users\houlinfeng\Desktop\TwoWireDevice_Hou\source\comm.c"
 264  00CB  0F07        	mov a,7
 264  00CC  0200     E  	sub a,rd
 264  00CD  3C0A        	sz c
 264  00CE  2800     R  	jmp _L82
 266  00CF              #line 266 "C:\Users\houlinfeng\Desktop\TwoWireDevice_Hou\source\comm.c"
 266  00CF  0700     E  	mov a,_CommData[11]
 266  00D0  0080     R  	mov _CommProtocol_2[1],a
 266  00D1  0700     R  	mov a,_CommProtocol_2[1]
 266  00D2  0AFC        	sub a,252
 266  00D3  390A        	snz z
 266  00D4  2800     R  	jmp _L85
 268  00D5              #line 268 "C:\Users\houlinfeng\Desktop\TwoWireDevice_Hou\source\comm.c"
 268  00D5  1E00     E  	snz _CommData[17]
 268  00D6  2800     R  	jmp _L82
 268  00D7  2800     R  	jmp _L86
 268  00D8              _L85:
 273  00D8              #line 273 "C:\Users\houlinfeng\Desktop\TwoWireDevice_Hou\source\comm.c"
 273  00D8  0700     R  	mov a,_CommProtocol_2[1]
 273  00D9  0AF9        	sub a,249
 273  00DA  390A        	snz z
 273  00DB  2800     R  	jmp _L86
 275  00DC              #line 275 "C:\Users\houlinfeng\Desktop\TwoWireDevice_Hou\source\comm.c"
 275  00DC  1E00     E  	snz _CommData[18]
 275  00DD  2800     R  	jmp _L82
 275  00DE              _L86:
 282  00DE              #line 282 "C:\Users\houlinfeng\Desktop\TwoWireDevice_Hou\source\comm.c"
 282  00DE  0FF8        	mov a,248
 282  00DF  0300     E  	add a,rd
 282  00E0  0080     E  	mov ra,a
文件：comm.c       编译器版本 HGASM 0202 页次15

 282  00E1  0FFF        	mov a,255
 282  00E2  1F00     E  	clr rb
 282  00E3  1380     E  	adcm a,rb
 282  00E4  0700     E  	mov a,ra
 282  00E5  0080     E  	mov rd,a
 282  00E6  0700     E  	mov a,rb
 282  00E7  0080     E  	mov re,a
 282  00E8  0F01        	mov a,1
 282  00E9  0080     E  	mov rb,a
 282  00EA  1F00     E  	clr rc
 282  00EB  1400     E  	inca rd
 282  00EC  2800     R  	jmp _LI1
 282  00ED              _LI2:
 282  00ED  340A        	clr c
 282  00EE  1A80     E  	rlc rb
 282  00EF  1A80     E  	rlc rc
 282  00F0              _LI1:
 282  00F0  1785        	sdz acc
 282  00F1  2800     R  	jmp _LI2
 282  00F2  0700     E  	mov a,rb
 282  00F3  0080     E  	mov _CommData[7],a
 282  00F4              _L82:
 289  00F4              #line 289 "C:\Users\houlinfeng\Desktop\TwoWireDevice_Hou\source\comm.c"
 289  00F4  1700     E  	sdza _SysData[4]
 289  00F5  2800     R  	jmp _L51
 292  00F6              #line 292 "C:\Users\houlinfeng\Desktop\TwoWireDevice_Hou\source\comm.c"
 292  00F6  0700     E  	mov a,_CommData[5]
 292  00F7  0080     E  	mov rd,a
 292  00F8  0700     R  	mov a,_CommProtocol_2[0]
 292  00F9  0200     E  	sub a,rd
 292  00FA  390A        	snz z
 292  00FB  2800     R  	jmp _L88
 294  00FC              #line 294 "C:\Users\houlinfeng\Desktop\TwoWireDevice_Hou\source\comm.c"
 294  00FC  0700     E  	mov a,_CommData[6]
 294  00FD  0080     E  	mov rd,a
 294  00FE  0F07        	mov a,7
 294  00FF  0200     E  	sub a,rd
 294  0100  3C0A        	sz c
 294  0101  2800     R  	jmp _L51
 296  0102              #line 296 "C:\Users\houlinfeng\Desktop\TwoWireDevice_Hou\source\comm.c"
 296  0102  0700     E  	mov a,_CommData[11]
 296  0103  0080     R  	mov _CommProtocol_2[0],a
 296  0104  0700     R  	mov a,_CommProtocol_2[0]
 296  0105  0AFC        	sub a,252
 296  0106  390A        	snz z
 296  0107  2800     R  	jmp _L89
 298  0108              #line 298 "C:\Users\houlinfeng\Desktop\TwoWireDevice_Hou\source\comm.c"
 298  0108  1E00     E  	snz _CommData[21]
 298  0109  2800     R  	jmp _L51
 298  010A  2800     R  	jmp _L92
 298  010B              _L89:
 304  010B              #line 304 "C:\Users\houlinfeng\Desktop\TwoWireDevice_Hou\source\comm.c"
 304  010B  0700     R  	mov a,_CommProtocol_2[0]
 304  010C  0AF9        	sub a,249
 304  010D  390A        	snz z
 304  010E  2800     R  	jmp _L92
 306  010F              #line 306 "C:\Users\houlinfeng\Desktop\TwoWireDevice_Hou\source\comm.c"
 306  010F  1E00     E  	snz _CommData[22]
 306  0110  2800     R  	jmp _L51
 306  0111  2800     R  	jmp _L92
文件：comm.c       编译器版本 HGASM 0202 页次16

 306  0112              _L88:
 318  0112              #line 318 "C:\Users\houlinfeng\Desktop\TwoWireDevice_Hou\source\comm.c"
 318  0112  0700     R  	mov a,_CommProtocol_2[0]
 318  0113  0A0F        	sub a,15
 318  0114  390A        	snz z
 318  0115  2800     R  	jmp _L51
 320  0116              #line 320 "C:\Users\houlinfeng\Desktop\TwoWireDevice_Hou\source\comm.c"
 320  0116  0F07        	mov a,7
 320  0117  0200     E  	sub a,rd
 320  0118  3C0A        	sz c
 320  0119  2800     R  	jmp _L51
 322  011A              #line 322 "C:\Users\houlinfeng\Desktop\TwoWireDevice_Hou\source\comm.c"
 322  011A  0700     E  	mov a,_CommData[11]
 322  011B  0080     R  	mov _CommProtocol_2[0],a
 322  011C  0700     R  	mov a,_CommProtocol_2[0]
 322  011D  0AFC        	sub a,252
 322  011E  390A        	snz z
 322  011F  2800     R  	jmp _L91
 324  0120              #line 324 "C:\Users\houlinfeng\Desktop\TwoWireDevice_Hou\source\comm.c"
 324  0120  1E00     E  	snz _CommData[21]
 324  0121  2800     R  	jmp _L51
 324  0122  2800     R  	jmp _L92
 324  0123              _L91:
 329  0123              #line 329 "C:\Users\houlinfeng\Desktop\TwoWireDevice_Hou\source\comm.c"
 329  0123  0700     R  	mov a,_CommProtocol_2[0]
 329  0124  0AF9        	sub a,249
 329  0125  390A        	snz z
 329  0126  2800     R  	jmp _L92
 331  0127              #line 331 "C:\Users\houlinfeng\Desktop\TwoWireDevice_Hou\source\comm.c"
 331  0127  1E00     E  	snz _CommData[22]
 331  0128  2800     R  	jmp _L51
 331  0129              _L92:
 338  0129              #line 338 "C:\Users\houlinfeng\Desktop\TwoWireDevice_Hou\source\comm.c"
 338  0129  0FF8        	mov a,248
 338  012A  0300     E  	add a,rd
 338  012B  0080     E  	mov ra,a
 338  012C  0FFF        	mov a,255
 338  012D  1F00     E  	clr rb
 338  012E  1380     E  	adcm a,rb
 338  012F  0700     E  	mov a,ra
 338  0130  0080     E  	mov rd,a
 338  0131  0700     E  	mov a,rb
 338  0132  0080     E  	mov re,a
 338  0133  0F01        	mov a,1
 338  0134  0080     E  	mov rb,a
 338  0135  1F00     E  	clr rc
 338  0136  1400     E  	inca rd
 338  0137  2800     R  	jmp _LI3
 338  0138              _LI4:
 338  0138  340A        	clr c
 338  0139  1A80     E  	rlc rb
 338  013A  1A80     E  	rlc rc
 338  013B              _LI3:
 338  013B  1785        	sdz acc
 338  013C  2800     R  	jmp _LI4
 338  013D  2800     R  	jmp _L197
 338  013E              _L79:
 353  013E              #line 353 "C:\Users\houlinfeng\Desktop\TwoWireDevice_Hou\source\comm.c"
 353  013E  1F00     E  	clr _CommData[7]
 354  013F              #line 354 "C:\Users\houlinfeng\Desktop\TwoWireDevice_Hou\source\comm.c"
文件：comm.c       编译器版本 HGASM 0202 页次17

 354  013F  0F08        	mov a,8
 354  0140  0080     E  	mov _CommData[9],a
 356  0141              #line 356 "C:\Users\houlinfeng\Desktop\TwoWireDevice_Hou\source\comm.c"
 356  0141  0700     E  	mov a,_CommData[12]
 356  0142  0080     R  	mov _CommProtocol_2[1],a
 356  0143  0700     E  	mov a,_CommData[2]
 356  0144  0080     R  	mov _CommProtocol_2[0],a
 356  0145  0700     R  	mov a,_CommProtocol_2[1]
 356  0146  0200     R  	sub a,_CommProtocol_2[0]
 356  0147  390A        	snz z
 356  0148  2800     R  	jmp _L93
 358  0149              #line 358 "C:\Users\houlinfeng\Desktop\TwoWireDevice_Hou\source\comm.c"
 358  0149  0700     E  	mov a,_CommData[3]
 358  014A  0080     R  	mov _CommProtocol_2[0],a
 358  014B  2800     R  	jmp _L216
 358  014C              _L93:
 381  014C              #line 381 "C:\Users\houlinfeng\Desktop\TwoWireDevice_Hou\source\comm.c"
 381  014C  0700     R  	mov a,_CommProtocol_2[1]
 381  014D  0A0F        	sub a,15
 381  014E  390A        	snz z
 381  014F  2800     R  	jmp _L94
 381  0150              _L216:
 383  0150              #line 383 "C:\Users\houlinfeng\Desktop\TwoWireDevice_Hou\source\comm.c"
 383  0150  0F07        	mov a,7
 383  0151  0200     R  	sub a,_CommProtocol_2[0]
 383  0152  380A        	snz c
 383  0153  2800     R  	jmp _L94
 385  0154              #line 385 "C:\Users\houlinfeng\Desktop\TwoWireDevice_Hou\source\comm.c"
 385  0154  0700     E  	mov a,_CommData[11]
 385  0155  0080     R  	mov _CommProtocol_2[2],a
 385  0156  0700     R  	mov a,_CommProtocol_2[2]
 385  0157  0AFC        	sub a,252
 385  0158  390A        	snz z
 385  0159  2800     R  	jmp _L97
 387  015A              #line 387 "C:\Users\houlinfeng\Desktop\TwoWireDevice_Hou\source\comm.c"
 387  015A  1E00     E  	snz _CommData[17]
 387  015B  2800     R  	jmp _L94
 387  015C  2800     R  	jmp _L98
 387  015D              _L97:
 392  015D              #line 392 "C:\Users\houlinfeng\Desktop\TwoWireDevice_Hou\source\comm.c"
 392  015D  0700     R  	mov a,_CommProtocol_2[2]
 392  015E  0AF9        	sub a,249
 392  015F  390A        	snz z
 392  0160  2800     R  	jmp _L98
 394  0161              #line 394 "C:\Users\houlinfeng\Desktop\TwoWireDevice_Hou\source\comm.c"
 394  0161  1E00     E  	snz _CommData[18]
 394  0162  2800     R  	jmp _L94
 394  0163              _L98:
 401  0163              #line 401 "C:\Users\houlinfeng\Desktop\TwoWireDevice_Hou\source\comm.c"
 401  0163  0F01        	mov a,1
 401  0164  0080     E  	mov rb,a
 401  0165  1F00     E  	clr rc
 401  0166  1400     R  	inca _CommProtocol_2[0]
 401  0167  2800     R  	jmp _LI5
 401  0168              _LI6:
 401  0168  340A        	clr c
 401  0169  1A80     E  	rlc rb
 401  016A  1A80     E  	rlc rc
 401  016B              _LI5:
 401  016B  1785        	sdz acc
文件：comm.c       编译器版本 HGASM 0202 页次18

 401  016C  2800     R  	jmp _LI6
 401  016D  0700     E  	mov a,rb
 401  016E  0080     E  	mov _CommData[7],a
 401  016F              _L94:
 407  016F              #line 407 "C:\Users\houlinfeng\Desktop\TwoWireDevice_Hou\source\comm.c"
 407  016F  1700     E  	sdza _SysData[4]
 407  0170  2800     R  	jmp _L51
 409  0171              #line 409 "C:\Users\houlinfeng\Desktop\TwoWireDevice_Hou\source\comm.c"
 409  0171  0700     E  	mov a,_CommData[5]
 409  0172  0080     R  	mov _CommProtocol_2[0],a
 409  0173  0700     R  	mov a,_CommProtocol_2[1]
 409  0174  0200     R  	sub a,_CommProtocol_2[0]
 409  0175  390A        	snz z
 409  0176  2800     R  	jmp _L99
 411  0177              #line 411 "C:\Users\houlinfeng\Desktop\TwoWireDevice_Hou\source\comm.c"
 411  0177  0700     E  	mov a,_CommData[6]
 411  0178  0080     R  	mov _CommProtocol_2[0],a
 411  0179  0F07        	mov a,7
 411  017A  0200     R  	sub a,_CommProtocol_2[0]
 411  017B  380A        	snz c
 411  017C  2800     R  	jmp _L51
 413  017D              #line 413 "C:\Users\houlinfeng\Desktop\TwoWireDevice_Hou\source\comm.c"
 413  017D  0700     E  	mov a,_CommData[11]
 413  017E  0080     R  	mov _CommProtocol_2[1],a
 413  017F  0700     R  	mov a,_CommProtocol_2[1]
 413  0180  0AFC        	sub a,252
 413  0181  390A        	snz z
 413  0182  2800     R  	jmp _L100
 415  0183              #line 415 "C:\Users\houlinfeng\Desktop\TwoWireDevice_Hou\source\comm.c"
 415  0183  1E00     E  	snz _CommData[21]
 415  0184  2800     R  	jmp _L51
 415  0185              _L198:
 417  0185              #line 417 "C:\Users\houlinfeng\Desktop\TwoWireDevice_Hou\source\comm.c"
 417  0185  0F01        	mov a,1
 417  0186  0080     E  	mov rb,a
 417  0187  1F00     E  	clr rc
 417  0188  1400     R  	inca _CommProtocol_2[0]
 417  0189  2800     R  	jmp _LI7
 417  018A              _LI8:
 417  018A  340A        	clr c
 417  018B  1A80     E  	rlc rb
 417  018C  1A80     E  	rlc rc
 417  018D              _LI7:
 417  018D  1785        	sdz acc
 417  018E  2800     R  	jmp _LI8
 417  018F              _L197:
 417  018F  0700     E  	mov a,rb
 417  0190  0580     E  	orm a,_CommData[7]
 417  0191  2800     R  	jmp _L51
 417  0192              _L100:
 420  0192              #line 420 "C:\Users\houlinfeng\Desktop\TwoWireDevice_Hou\source\comm.c"
 420  0192  0700     R  	mov a,_CommProtocol_2[1]
 420  0193  0AF9        	sub a,249
 420  0194  390A        	snz z
 420  0195  2800     R  	jmp _L198
 422  0196              #line 422 "C:\Users\houlinfeng\Desktop\TwoWireDevice_Hou\source\comm.c"
 422  0196  1E00     E  	snz _CommData[22]
 422  0197  2800     R  	jmp _L51
 422  0198  2800     R  	jmp _L198
 422  0199              _L99:
文件：comm.c       编译器版本 HGASM 0202 页次19

 434  0199              #line 434 "C:\Users\houlinfeng\Desktop\TwoWireDevice_Hou\source\comm.c"
 434  0199  0700     R  	mov a,_CommProtocol_2[1]
 434  019A  0A0F        	sub a,15
 434  019B  390A        	snz z
 434  019C  2800     R  	jmp _L51
 436  019D              #line 436 "C:\Users\houlinfeng\Desktop\TwoWireDevice_Hou\source\comm.c"
 436  019D  0F07        	mov a,7
 436  019E  0200     R  	sub a,_CommProtocol_2[0]
 436  019F  380A        	snz c
 436  01A0  2800     R  	jmp _L51
 438  01A1              #line 438 "C:\Users\houlinfeng\Desktop\TwoWireDevice_Hou\source\comm.c"
 438  01A1  0700     E  	mov a,_CommData[11]
 438  01A2  0080     R  	mov _CommProtocol_2[1],a
 438  01A3  0700     R  	mov a,_CommProtocol_2[1]
 438  01A4  0AFC        	sub a,252
 438  01A5  390A        	snz z
 438  01A6  2800     R  	jmp _L102
 440  01A7              #line 440 "C:\Users\houlinfeng\Desktop\TwoWireDevice_Hou\source\comm.c"
 440  01A7  1E00     E  	snz _CommData[21]
 440  01A8  2800     R  	jmp _L51
 440  01A9  2800     R  	jmp _L198
 440  01AA              _L102:
 445  01AA              #line 445 "C:\Users\houlinfeng\Desktop\TwoWireDevice_Hou\source\comm.c"
 445  01AA  0700     R  	mov a,_CommProtocol_2[1]
 445  01AB  0AF9        	sub a,249
 445  01AC  390A        	snz z
 445  01AD  2800     R  	jmp _L198
 447  01AE              #line 447 "C:\Users\houlinfeng\Desktop\TwoWireDevice_Hou\source\comm.c"
 447  01AE  1E00     E  	snz _CommData[22]
 447  01AF  2800     R  	jmp _L51
 447  01B0  2800     R  	jmp _L198
 447  01B1              _L217:
 474  01B1              #line 474 "C:\Users\houlinfeng\Desktop\TwoWireDevice_Hou\source\comm.c"
 474  01B1  0700     E  	mov a,_CommData[10]
 474  01B2  0A0E        	sub a,14
 474  01B3  3D0A        	sz z
 474  01B4  2800     R  	jmp _L104
 474  01B5  0A09        	sub a,(23)-(14)
 474  01B6  3D0A        	sz z
 474  01B7  2800     R  	jmp _L105
 474  01B8  0700     E  	mov a,_CommData[10]
 474  01B9  0A20        	sub a,32
 474  01BA  3D0A        	sz z
 474  01BB  2800     R  	jmp _L106
 474  01BC  0A09        	sub a,(41)-(32)
 474  01BD  3D0A        	sz z
 474  01BE  2800     R  	jmp _L107
 474  01BF  0700     E  	mov a,_CommData[10]
 474  01C0  0A2A        	sub a,42
 474  01C1  3D0A        	sz z
 474  01C2  2800     R  	jmp _L108
 474  01C3  0700     E  	mov a,_CommData[10]
 474  01C4  0A2B        	sub a,43
 474  01C5  390A        	snz z
 474  01C6  2800     R  	jmp _L51
 474  01C7  2800     R  	jmp _L218
 474  01C8              _L104:
 479  01C8              #line 479 "C:\Users\houlinfeng\Desktop\TwoWireDevice_Hou\source\comm.c"
 479  01C8  0700     E  	mov a,_CommData[8]
 479  01C9  0E0F        	and a,15
文件：comm.c       编译器版本 HGASM 0202 页次20

 479  01CA  0080     R  	mov _CommProtocol_2[0],a
 479  01CB  0700     R  	mov a,_CommProtocol_2[0]
 479  01CC  0080     E  	mov _CommData[12],a
 481  01CD              #line 481 "C:\Users\houlinfeng\Desktop\TwoWireDevice_Hou\source\comm.c"
 481  01CD  0700     R  	mov a,_CommProtocol_2[0]
 481  01CE  0A02        	sub a,2
 481  01CF  3D0A        	sz z
 481  01D0  2800     R  	jmp _L111
 481  01D1  0A01        	sub a,(3)-(2)
 481  01D2  3D0A        	sz z
 481  01D3  2800     R  	jmp _L112
 481  01D4  0700     R  	mov a,_CommProtocol_2[0]
 481  01D5  0A04        	sub a,4
 481  01D6  3D0A        	sz z
 481  01D7  2800     R  	jmp _L113
 481  01D8  0A01        	sub a,(5)-(4)
 481  01D9  3D0A        	sz z
 481  01DA  2800     R  	jmp _L114
 481  01DB  0700     R  	mov a,_CommProtocol_2[0]
 481  01DC  0A06        	sub a,6
 481  01DD  3D0A        	sz z
 481  01DE  2800     R  	jmp _L115
 481  01DF  0700     R  	mov a,_CommProtocol_2[0]
 481  01E0  0A07        	sub a,7
 481  01E1  390A        	snz z
 481  01E2  2800     R  	jmp _L110
 539  01E3              #line 539 "C:\Users\houlinfeng\Desktop\TwoWireDevice_Hou\source\comm.c"
 539  01E3  0F18        	mov a,24
 539  01E4  2000     R  	call _GetReg
 539  01E5  0080     E  	mov ra,a
 539  01E6  0700     E  	mov a,ra
 539  01E7  0080     E  	mov _CommData[13],a
 540  01E8              #line 540 "C:\Users\houlinfeng\Desktop\TwoWireDevice_Hou\source\comm.c"
 540  01E8  0F19        	mov a,25
 540  01E9  2800     R  	jmp _L189
 540  01EA              _L111:
 490  01EA              #line 490 "C:\Users\houlinfeng\Desktop\TwoWireDevice_Hou\source\comm.c"
 490  01EA  0F00        	mov a,0
 490  01EB  2000     R  	call _GetReg
 490  01EC  0080     E  	mov ra,a
 490  01ED  0700     E  	mov a,ra
 490  01EE  0080     E  	mov _CommData[13],a
 491  01EF              #line 491 "C:\Users\houlinfeng\Desktop\TwoWireDevice_Hou\source\comm.c"
 491  01EF  0F01        	mov a,1
 491  01F0  2800     R  	jmp _L189
 491  01F1              _L112:
 502  01F1              #line 502 "C:\Users\houlinfeng\Desktop\TwoWireDevice_Hou\source\comm.c"
 502  01F1  0F10        	mov a,16
 502  01F2  2000     R  	call _GetReg
 502  01F3  0080     E  	mov ra,a
 502  01F4  0700     E  	mov a,ra
 502  01F5  0080     E  	mov _CommData[13],a
 503  01F6              #line 503 "C:\Users\houlinfeng\Desktop\TwoWireDevice_Hou\source\comm.c"
 503  01F6  0F11        	mov a,17
 503  01F7  2800     R  	jmp _L189
 503  01F8              _L113:
 513  01F8              #line 513 "C:\Users\houlinfeng\Desktop\TwoWireDevice_Hou\source\comm.c"
 513  01F8  0F12        	mov a,18
 513  01F9  2000     R  	call _GetReg
 513  01FA  0080     E  	mov ra,a
文件：comm.c       编译器版本 HGASM 0202 页次21

 513  01FB  0700     E  	mov a,ra
 513  01FC  0080     E  	mov _CommData[13],a
 514  01FD              #line 514 "C:\Users\houlinfeng\Desktop\TwoWireDevice_Hou\source\comm.c"
 514  01FD  0F13        	mov a,19
 514  01FE  2800     R  	jmp _L189
 514  01FF              _L114:
 521  01FF              #line 521 "C:\Users\houlinfeng\Desktop\TwoWireDevice_Hou\source\comm.c"
 521  01FF  0F14        	mov a,20
 521  0200  2000     R  	call _GetReg
 521  0201  0080     E  	mov ra,a
 521  0202  0700     E  	mov a,ra
 521  0203  0080     E  	mov _CommData[13],a
 522  0204              #line 522 "C:\Users\houlinfeng\Desktop\TwoWireDevice_Hou\source\comm.c"
 522  0204  0F15        	mov a,21
 522  0205  2800     R  	jmp _L189
 522  0206              _L115:
 530  0206              #line 530 "C:\Users\houlinfeng\Desktop\TwoWireDevice_Hou\source\comm.c"
 530  0206  0F16        	mov a,22
 530  0207  2000     R  	call _GetReg
 530  0208  0080     E  	mov ra,a
 530  0209  0700     E  	mov a,ra
 530  020A  0080     E  	mov _CommData[13],a
 531  020B              #line 531 "C:\Users\houlinfeng\Desktop\TwoWireDevice_Hou\source\comm.c"
 531  020B  0F17        	mov a,23
 531  020C              _L189:
 540  020C              #line 540 "C:\Users\houlinfeng\Desktop\TwoWireDevice_Hou\source\comm.c"
 540  020C  2000     R  	call _GetReg
 540  020D  0080     E  	mov ra,a
 540  020E  0700     E  	mov a,ra
 540  020F  0080     E  	mov _CommData[14],a
 541  0210              #line 541 "C:\Users\houlinfeng\Desktop\TwoWireDevice_Hou\source\comm.c"
 541  0210  0700     E  	mov a,_CommData[13]
 541  0211  0080     E  	mov _CommData[7],a
 542  0212              #line 542 "C:\Users\houlinfeng\Desktop\TwoWireDevice_Hou\source\comm.c"
 542  0212  0F08        	mov a,8
 542  0213  0080     E  	mov _CommData[9],a
 542  0214              _L110:
 564  0214              #line 564 "C:\Users\houlinfeng\Desktop\TwoWireDevice_Hou\source\comm.c"
 564  0214  0700     E  	mov a,_CommData[12]
 564  0215  0480     E  	xorm a,_CommData[15]
 566  0216              #line 566 "C:\Users\houlinfeng\Desktop\TwoWireDevice_Hou\source\comm.c"
 566  0216  1080     E  	sz _CommData[16]
 566  0217  2800     R  	jmp _L51
 566  0218  2800     R  	jmp _L194
 566  0219              _L105:
 576  0219              #line 576 "C:\Users\houlinfeng\Desktop\TwoWireDevice_Hou\source\comm.c"
 576  0219  0700     E  	mov a,_CommData[12]
 576  021A  0A00        	sub a,0
 576  021B  3D0A        	sz z
 576  021C  2800     R  	jmp _L118
 576  021D  0A01        	sub a,(1)-(0)
 576  021E  3D0A        	sz z
 576  021F  2800     R  	jmp _L119
 576  0220  0700     E  	mov a,_CommData[12]
 576  0221  0A02        	sub a,2
 576  0222  3D0A        	sz z
 576  0223  2800     R  	jmp _L120
 576  0224  0A01        	sub a,(3)-(2)
 576  0225  3D0A        	sz z
 576  0226  2800     R  	jmp _L120
文件：comm.c       编译器版本 HGASM 0202 页次22

 576  0227  0700     E  	mov a,_CommData[12]
 576  0228  0A04        	sub a,4
 576  0229  3D0A        	sz z
 576  022A  2800     R  	jmp _L120
 576  022B  0A01        	sub a,(5)-(4)
 576  022C  3D0A        	sz z
 576  022D  2800     R  	jmp _L120
 576  022E  0700     E  	mov a,_CommData[12]
 576  022F  0A06        	sub a,6
 576  0230  3D0A        	sz z
 576  0231  2800     R  	jmp _L120
 576  0232  0A01        	sub a,(7)-(6)
 576  0233  3D0A        	sz z
 576  0234  2800     R  	jmp _L120
 576  0235  0700     E  	mov a,_CommData[12]
 576  0236  0A08        	sub a,8
 576  0237  3D0A        	sz z
 576  0238  2800     R  	jmp _L121
 576  0239  0A01        	sub a,(9)-(8)
 576  023A  3D0A        	sz z
 576  023B  2800     R  	jmp _L121
 576  023C  0700     E  	mov a,_CommData[12]
 576  023D  0A0A        	sub a,10
 576  023E  3D0A        	sz z
 576  023F  2800     R  	jmp _L121
 576  0240  0A03        	sub a,(13)-(10)
 576  0241  3D0A        	sz z
 576  0242  2800     R  	jmp _L121
 576  0243  0700     E  	mov a,_CommData[12]
 576  0244  0A0E        	sub a,14
 576  0245  390A        	snz z
 576  0246  2800     R  	jmp _L117
 576  0247  2800     R  	jmp _L121
 576  0248              _L118:
 581  0248              #line 581 "C:\Users\houlinfeng\Desktop\TwoWireDevice_Hou\source\comm.c"
 581  0248  0700     E  	mov a,_CommData[8]
 581  0249  0080     E  	mov ra,a
 581  024A  0700     E  	mov a,ra
 581  024B  0080     E  	mov _CommData[13],a
 582  024C              #line 582 "C:\Users\houlinfeng\Desktop\TwoWireDevice_Hou\source\comm.c"
 582  024C  0700     E  	mov a,ra
 582  024D  2000     R  	call _GetReg
 582  024E  2800     R  	jmp _L190
 582  024F              _L119:
 589  024F              #line 589 "C:\Users\houlinfeng\Desktop\TwoWireDevice_Hou\source\comm.c"
 589  024F  0700     E  	mov a,_CommData[8]
 589  0250  0080     E  	mov ra,a
 589  0251  0700     E  	mov a,ra
 589  0252  0080     E  	mov _CommData[13],a
 590  0253              #line 590 "C:\Users\houlinfeng\Desktop\TwoWireDevice_Hou\source\comm.c"
 590  0253  0700     E  	mov a,ra
 590  0254  2000     E  	call _MemoryRead
 590  0255              _L190:
 590  0255  0080     E  	mov ra,a
 590  0256  0700     E  	mov a,ra
 590  0257  0080     E  	mov _CommData[14],a
 591  0258              #line 591 "C:\Users\houlinfeng\Desktop\TwoWireDevice_Hou\source\comm.c"
 591  0258  0700     E  	mov a,ra
 591  0259  0080     E  	mov _CommData[7],a
 591  025A              _L191:
文件：comm.c       编译器版本 HGASM 0202 页次23

 592  025A              #line 592 "C:\Users\houlinfeng\Desktop\TwoWireDevice_Hou\source\comm.c"
 592  025A  0F08        	mov a,8
 592  025B  0080     E  	mov _CommData[9],a
 593  025C              #line 593 "C:\Users\houlinfeng\Desktop\TwoWireDevice_Hou\source\comm.c"
 593  025C  2800     R  	jmp _L117
 593  025D              _L120:
 606  025D              #line 606 "C:\Users\houlinfeng\Desktop\TwoWireDevice_Hou\source\comm.c"
 606  025D  0700     E  	mov a,_CommData[14]
 606  025E  0080     E  	mov _CommData[7],a
 606  025F  2800     R  	jmp _L191
 606  0260              _L121:
 619  0260              #line 619 "C:\Users\houlinfeng\Desktop\TwoWireDevice_Hou\source\comm.c"
 619  0260  0700     E  	mov a,_CommData[8]
 619  0261  0080     E  	mov _CommData[13],a
 619  0262              _L117:
 628  0262              #line 628 "C:\Users\houlinfeng\Desktop\TwoWireDevice_Hou\source\comm.c"
 628  0262  0700     E  	mov a,_CommData[13]
 628  0263  0480     E  	xorm a,_CommData[15]
 630  0264              #line 630 "C:\Users\houlinfeng\Desktop\TwoWireDevice_Hou\source\comm.c"
 630  0264  1080     E  	sz _CommData[16]
 630  0265  2800     R  	jmp _L51
 630  0266  2800     R  	jmp _L194
 630  0267              _L106:
 640  0267              #line 640 "C:\Users\houlinfeng\Desktop\TwoWireDevice_Hou\source\comm.c"
 640  0267  0700     E  	mov a,_CommData[12]
 640  0268  0080     R  	mov _CommProtocol_2[0],a
 640  0269  0700     R  	mov a,_CommProtocol_2[0]
 640  026A  0A08        	sub a,8
 640  026B  3D0A        	sz z
 640  026C  2800     R  	jmp _L123
 640  026D  0A01        	sub a,(9)-(8)
 640  026E  3D0A        	sz z
 640  026F  2800     R  	jmp _L123
 640  0270  0700     R  	mov a,_CommProtocol_2[0]
 640  0271  0A0A        	sub a,10
 640  0272  3D0A        	sz z
 640  0273  2800     R  	jmp _L123
 640  0274  0A03        	sub a,(13)-(10)
 640  0275  3D0A        	sz z
 640  0276  2800     R  	jmp _L123
 640  0277  0700     R  	mov a,_CommProtocol_2[0]
 640  0278  0A0E        	sub a,14
 640  0279  390A        	snz z
 640  027A  2800     R  	jmp _L122
 640  027B              _L123:
 665  027B              #line 665 "C:\Users\houlinfeng\Desktop\TwoWireDevice_Hou\source\comm.c"
 665  027B  0700     E  	mov a,_CommData[8]
 665  027C  0080     E  	mov _CommData[14],a
 665  027D              _L122:
 680  027D              #line 680 "C:\Users\houlinfeng\Desktop\TwoWireDevice_Hou\source\comm.c"
 680  027D  0700     E  	mov a,_CommData[14]
 680  027E  0400     E  	xor a,_CommData[15]
 680  027F  0080     E  	mov ra,a
 685  0280              #line 685 "C:\Users\houlinfeng\Desktop\TwoWireDevice_Hou\source\comm.c"
 685  0280  1E00     E  	snz ra
 685  0281  2800     R  	jmp _L124
 680  0282              #line 680 "C:\Users\houlinfeng\Desktop\TwoWireDevice_Hou\source\comm.c"
 680  0282  0700     E  	mov a,ra
 680  0283  0080     E  	mov _CommData[15],a
 680  0284  2800     R  	jmp _L125
文件：comm.c       编译器版本 HGASM 0202 页次24

 680  0285              _L124:
 687  0285              #line 687 "C:\Users\houlinfeng\Desktop\TwoWireDevice_Hou\source\comm.c"
 687  0285  0F55        	mov a,85
 687  0286  0080     E  	mov _CommData[15],a
 687  0287              _L125:
 691  0287              #line 691 "C:\Users\houlinfeng\Desktop\TwoWireDevice_Hou\source\comm.c"
 691  0287  0F07        	mov a,7
 691  0288  0200     R  	sub a,_CommProtocol_2[0]
 691  0289  380A        	snz c
 691  028A  2800     R  	jmp _L126
 693  028B              #line 693 "C:\Users\houlinfeng\Desktop\TwoWireDevice_Hou\source\comm.c"
 693  028B  0700     E  	mov a,_CommData[15]
 693  028C  0080     E  	mov _CommData[7],a
 694  028D              #line 694 "C:\Users\houlinfeng\Desktop\TwoWireDevice_Hou\source\comm.c"
 694  028D  0F08        	mov a,8
 694  028E  0080     E  	mov _CommData[9],a
 694  028F  2800     R  	jmp _L127
 694  0290              _L126:
 698  0290              #line 698 "C:\Users\houlinfeng\Desktop\TwoWireDevice_Hou\source\comm.c"
 698  0290  1F00     E  	clr _CommData[7]
 699  0291              #line 699 "C:\Users\houlinfeng\Desktop\TwoWireDevice_Hou\source\comm.c"
 699  0291  1F00     E  	clr _CommData[9]
 699  0292              _L127:
 702  0292              #line 702 "C:\Users\houlinfeng\Desktop\TwoWireDevice_Hou\source\comm.c"
 702  0292  1080     E  	sz _CommData[16]
 702  0293  2800     R  	jmp _L51
 702  0294  2800     R  	jmp _L194
 702  0295              _L107:
 715  0295              #line 715 "C:\Users\houlinfeng\Desktop\TwoWireDevice_Hou\source\comm.c"
 715  0295  1080     E  	sz _CommData[15]
 715  0296  2800     R  	jmp _L128
 717  0297              #line 717 "C:\Users\houlinfeng\Desktop\TwoWireDevice_Hou\source\comm.c"
 717  0297  0F55        	mov a,85
 717  0298  0080     E  	mov _CommData[15],a
 717  0299              _L128:
 722  0299              #line 722 "C:\Users\houlinfeng\Desktop\TwoWireDevice_Hou\source\comm.c"
 722  0299  0700     E  	mov a,_CommData[12]
 722  029A  0080     R  	mov _CommProtocol_2[0],a
 722  029B  0F07        	mov a,7
 722  029C  0200     R  	sub a,_CommProtocol_2[0]
 722  029D  380A        	snz c
 722  029E  2800     R  	jmp _L129
 724  029F              #line 724 "C:\Users\houlinfeng\Desktop\TwoWireDevice_Hou\source\comm.c"
 724  029F  1F00     E  	clr _CommData[7]
 725  02A0              #line 725 "C:\Users\houlinfeng\Desktop\TwoWireDevice_Hou\source\comm.c"
 725  02A0  1F00     E  	clr _CommData[9]
 725  02A1  2800     R  	jmp _L130
 725  02A2              _L129:
 727  02A2              #line 727 "C:\Users\houlinfeng\Desktop\TwoWireDevice_Hou\source\comm.c"
 727  02A2  0700     E  	mov a,_CommData[16]
 727  02A3  0080     R  	mov _CommProtocol_2[1],a
 727  02A4  1E00     R  	snz _CommProtocol_2[1]
 727  02A5  2800     R  	jmp _L130
 729  02A6              #line 729 "C:\Users\houlinfeng\Desktop\TwoWireDevice_Hou\source\comm.c"
 729  02A6  0700     E  	mov a,_CommData[15]
 729  02A7  0200     E  	sub a,_CommData[8]
 729  02A8  390A        	snz z
 729  02A9  2800     R  	jmp _L132
 731  02AA              #line 731 "C:\Users\houlinfeng\Desktop\TwoWireDevice_Hou\source\comm.c"
 731  02AA  0F80        	mov a,128
文件：comm.c       编译器版本 HGASM 0202 页次25

 731  02AB  0080     E  	mov _CommData[7],a
 732  02AC              #line 732 "C:\Users\houlinfeng\Desktop\TwoWireDevice_Hou\source\comm.c"
 732  02AC  0F01        	mov a,1
 732  02AD  0080     E  	mov _CommData[9],a
 734  02AE              #line 734 "C:\Users\houlinfeng\Desktop\TwoWireDevice_Hou\source\comm.c"
 734  02AE  0700     R  	mov a,_CommProtocol_2[0]
 734  02AF  0A08        	sub a,8
 734  02B0  3D0A        	sz z
 734  02B1  2800     R  	jmp _L133
 734  02B2  0A01        	sub a,(9)-(8)
 734  02B3  3D0A        	sz z
 734  02B4  2800     R  	jmp _L134
 734  02B5  0700     R  	mov a,_CommProtocol_2[0]
 734  02B6  0A0D        	sub a,13
 734  02B7  3D0A        	sz z
 734  02B8  2800     R  	jmp _L135
 734  02B9  0700     R  	mov a,_CommProtocol_2[0]
 734  02BA  0A0E        	sub a,14
 734  02BB  390A        	snz z
 734  02BC  2800     R  	jmp _L130
 734  02BD  2800     R  	jmp _L219
 734  02BE              _L133:
 738  02BE              #line 738 "C:\Users\houlinfeng\Desktop\TwoWireDevice_Hou\source\comm.c"
 738  02BE  0700     E  	mov a,_CommData[14]
 738  02BF  0080     R  	mov _SetReg_2[0],a
 738  02C0  0700     E  	mov a,_CommData[13]
 738  02C1  2800     R  	jmp _L192
 738  02C2              _L134:
 746  02C2              #line 746 "C:\Users\houlinfeng\Desktop\TwoWireDevice_Hou\source\comm.c"
 746  02C2  0700     R  	mov a,_CommProtocol_2[1]
 746  02C3  0A02        	sub a,2
 746  02C4  3D0A        	sz z
 746  02C5  2800     R  	jmp _L130
 749  02C6              #line 749 "C:\Users\houlinfeng\Desktop\TwoWireDevice_Hou\source\comm.c"
 749  02C6  0700     E  	mov a,_CommData[14]
 749  02C7  0080     E  	mov _PutDataToWriteEEBuff_2[0],a
 749  02C8  0700     E  	mov a,_CommData[13]
 749  02C9  2000     E  	call _PutDataToWriteEEBuff
 749  02CA  2800     R  	jmp _L130
 749  02CB              _L135:
 758  02CB              #line 758 "C:\Users\houlinfeng\Desktop\TwoWireDevice_Hou\source\comm.c"
 758  02CB  0700     E  	mov a,_CommData[13]
 758  02CC  0200     E  	sub a,_FuncData[34]
 758  02CD  390A        	snz z
 758  02CE  2800     R  	jmp _L130
 758  02CF              _L138:
 760  02CF              #line 760 "C:\Users\houlinfeng\Desktop\TwoWireDevice_Hou\source\comm.c"
 760  02CF  0700     E  	mov a,_CommData[14]
 760  02D0  0080     R  	mov _SetReg_2[0],a
 760  02D1  0F04        	mov a,4
 760  02D2              _L192:
 760  02D2  2000     R  	call _SetReg
 760  02D3  2800     R  	jmp _L130
 760  02D4              _L219:
 768  02D4              #line 768 "C:\Users\houlinfeng\Desktop\TwoWireDevice_Hou\source\comm.c"
 768  02D4  0700     E  	mov a,_CommData[13]
 768  02D5  0200     E  	sub a,_MemData[9]
 768  02D6  390A        	snz z
 768  02D7  2800     R  	jmp _L130
 768  02D8  2800     R  	jmp _L138
文件：comm.c       编译器版本 HGASM 0202 页次26

 768  02D9              _L132:
 803  02D9              #line 803 "C:\Users\houlinfeng\Desktop\TwoWireDevice_Hou\source\comm.c"
 803  02D9  1F00     E  	clr _CommData[7]
 804  02DA              #line 804 "C:\Users\houlinfeng\Desktop\TwoWireDevice_Hou\source\comm.c"
 804  02DA  0F01        	mov a,1
 804  02DB  0080     E  	mov _CommData[9],a
 804  02DC              _L130:
 808  02DC              #line 808 "C:\Users\houlinfeng\Desktop\TwoWireDevice_Hou\source\comm.c"
 808  02DC  1080     E  	sz _CommData[16]
 808  02DD  2800     R  	jmp _L51
 808  02DE              _L194:
 810  02DE              #line 810 "C:\Users\houlinfeng\Desktop\TwoWireDevice_Hou\source\comm.c"
 810  02DE  1F00     E  	clr _CommData[7]
 810  02DF  2800     R  	jmp _L51
 810  02E0              _L108:
 818  02E0              #line 818 "C:\Users\houlinfeng\Desktop\TwoWireDevice_Hou\source\comm.c"
 818  02E0  0F07        	mov a,7
 818  02E1  0200     E  	sub a,_CommData[12]
 818  02E2  3C0A        	sz c
 818  02E3  2800     R  	jmp _L51
 818  02E4  2800     R  	jmp _L139
 818  02E5              _L218:
 827  02E5              #line 827 "C:\Users\houlinfeng\Desktop\TwoWireDevice_Hou\source\comm.c"
 827  02E5  1E00     E  	snz _CommData[16]
 827  02E6  2800     R  	jmp _L139
 831  02E7              #line 831 "C:\Users\houlinfeng\Desktop\TwoWireDevice_Hou\source\comm.c"
 831  02E7  1700     E  	sdza _SysData[4]
 831  02E8  2800     R  	jmp _L142
 833  02E9              #line 833 "C:\Users\houlinfeng\Desktop\TwoWireDevice_Hou\source\comm.c"
 833  02E9  0700     E  	mov a,_CommData[11]
 833  02EA  0080     R  	mov _CommProtocol_2[0],a
 833  02EB  0700     R  	mov a,_CommProtocol_2[0]
 833  02EC  0200     E  	sub a,_CommData[4]
 833  02ED  390A        	snz z
 833  02EE  2800     R  	jmp _L141
 835  02EF              #line 835 "C:\Users\houlinfeng\Desktop\TwoWireDevice_Hou\source\comm.c"
 835  02EF  3800     E  	snz _CommData[8].0
 835  02F0  2800     R  	jmp _L139
 835  02F1  1E00     E  	snz _CommData[23]
 835  02F2  2800     R  	jmp _L139
 838  02F3              #line 838 "C:\Users\houlinfeng\Desktop\TwoWireDevice_Hou\source\comm.c"
 838  02F3  1F00     E  	clr _CommData[21]
 839  02F4              #line 839 "C:\Users\houlinfeng\Desktop\TwoWireDevice_Hou\source\comm.c"
 839  02F4  1F00     E  	clr _CommData[23]
 839  02F5  2800     R  	jmp _L139
 839  02F6              _L141:
 842  02F6              #line 842 "C:\Users\houlinfeng\Desktop\TwoWireDevice_Hou\source\comm.c"
 842  02F6  0700     R  	mov a,_CommProtocol_2[0]
 842  02F7  0200     E  	sub a,_CommData[1]
 842  02F8  3D0A        	sz z
 842  02F9  2800     R  	jmp _L142
 843  02FA              #line 843 "C:\Users\houlinfeng\Desktop\TwoWireDevice_Hou\source\comm.c"
 843  02FA  1080     R  	sz _CommProtocol_2[0]
 843  02FB  2800     R  	jmp _L139
 843  02FC              _L142:
 845  02FC              #line 845 "C:\Users\houlinfeng\Desktop\TwoWireDevice_Hou\source\comm.c"
 845  02FC  3800     E  	snz _CommData[8].0
 845  02FD  2800     R  	jmp _L139
 845  02FE  1E00     E  	snz _CommData[19]
 845  02FF  2800     R  	jmp _L139
文件：comm.c       编译器版本 HGASM 0202 页次27

 848  0300              #line 848 "C:\Users\houlinfeng\Desktop\TwoWireDevice_Hou\source\comm.c"
 848  0300  1F00     E  	clr _CommData[17]
 849  0301              #line 849 "C:\Users\houlinfeng\Desktop\TwoWireDevice_Hou\source\comm.c"
 849  0301  1F00     E  	clr _CommData[19]
 849  0302              _L139:
 866  0302              #line 866 "C:\Users\houlinfeng\Desktop\TwoWireDevice_Hou\source\comm.c"
 866  0302  0F01        	mov a,1
 866  0303  0080     E  	mov _CommData[0],a
 866  0304              _L51:
 866  0304  0003        	ret
 866  0305              _CommProtocol endp
 866  0305              #line 866 "C:\Users\houlinfeng\Desktop\TwoWireDevice_Hou\source\comm.c"
 866  0305              #pragma debug scope 1 1
 866  0305              ___pltda0l equ [51]
 866  0305              ___pltsw equ [49]
 866  0305              ___pltac equ [59]
 866  0305              public _AdjustBusVolt
 866  0305              #pragma debug scope 9 1
1125  0305              #line 1125 "C:\Users\houlinfeng\Desktop\TwoWireDevice_Hou\source\comm.c"
1125  0000              _AdjustBusVolt .section 'code'
1125  0000              _AdjustBusVolt proc
1132  0000              #line 1132 "C:\Users\houlinfeng\Desktop\TwoWireDevice_Hou\source\comm.c"
1132  0000  1F00     E  	clr _FuncData[6]
1133  0001              #line 1133 "C:\Users\houlinfeng\Desktop\TwoWireDevice_Hou\source\comm.c"
1133  0001  2000     E  	call _PltLineVolt
1133  0002  0080     E  	mov rb,a
1133  0003  0700     E  	mov a,rb
1133  0004  0080     E  	mov _FuncData[8],a
1138  0005              #line 1138 "C:\Users\houlinfeng\Desktop\TwoWireDevice_Hou\source\comm.c"
1138  0005  0F38        	mov a,56
1138  0006  0200     E  	sub a,rb
1138  0007  3C0A        	sz c
1138  0008  2800     R  	jmp _L227
1135  0009              #line 1135 "C:\Users\houlinfeng\Desktop\TwoWireDevice_Hou\source\comm.c"
1135  0009  0700     E  	mov a,rb
1135  000A  0080     E  	mov _builtin_holtek_mulhi3_2[0],a
1135  000B  1F00     E  	clr _builtin_holtek_mulhi3_2[1]
1135  000C  0F59        	mov a,89
1135  000D  0080     E  	mov _builtin_holtek_mulhi3_2[2],a
1135  000E  0F00        	mov a,0
1135  000F  0080     E  	mov _builtin_holtek_mulhi3_2[3],a
1135  0010  2000     E  	call _builtin_holtek_mulhi3
1135  0011  0700     E  	mov a,_builtin_holtek_mulhi3_2[4]  
1135  0012  0080     E  	mov rb,a  
1135  0013  0700     E  	mov a,_builtin_holtek_mulhi3_2[5]  
1135  0014  0080     E  	mov rc,a
1136  0015              #line 1136 "C:\Users\houlinfeng\Desktop\TwoWireDevice_Hou\source\comm.c"
1136  0015  1900     E  	rra rc
1136  0016  0E7F        	and a,07fh
1136  0017  0080     E  	mov ra,a
1136  0018  2800     R  	jmp _L221
1136  0019              _L227:
1140  0019              #line 1140 "C:\Users\houlinfeng\Desktop\TwoWireDevice_Hou\source\comm.c"
1140  0019  0F08        	mov a,8
1140  001A  0080     E  	mov ra,a
1140  001B              _L221:
1140  001B  0F21        	mov a,33
1140  001C  0200     E  	sub a,ra
1140  001D  3C0A        	sz c
1140  001E  2800     R  	jmp _L222
文件：comm.c       编译器版本 HGASM 0202 页次28

1140  001F  0F21        	mov a,33
1140  0020  0080     E  	mov ra,a
1140  0021              _L222:
1150  0021              #line 1150 "C:\Users\houlinfeng\Desktop\TwoWireDevice_Hou\source\comm.c"
1150  0021  1080     E  	sz _FuncData[6]
1150  0022  2800     R  	jmp _L223
1152  0023              #line 1152 "C:\Users\houlinfeng\Desktop\TwoWireDevice_Hou\source\comm.c"
1152  0023  1F00     E  	clr _FuncData[4]
1154  0024              #line 1154 "C:\Users\houlinfeng\Desktop\TwoWireDevice_Hou\source\comm.c"
1154  0024  0700     E  	mov a,ra
1154  0025  00B3        	mov [51],a
1154  0026  2800     R  	jmp _L226
1154  0027              _L223:
1159  0027              #line 1159 "C:\Users\houlinfeng\Desktop\TwoWireDevice_Hou\source\comm.c"
1159  0027  1400     E  	inca _FuncData[4]
1159  0028  0080     E  	mov ra,a
1160  0029              #line 1160 "C:\Users\houlinfeng\Desktop\TwoWireDevice_Hou\source\comm.c"
1160  0029  0F30        	mov a,48
1160  002A  0200     E  	sub a,ra
1160  002B  380A        	snz c
1160  002C  2800     R  	jmp _L225
1159  002D              #line 1159 "C:\Users\houlinfeng\Desktop\TwoWireDevice_Hou\source\comm.c"
1159  002D  0700     E  	mov a,ra
1159  002E  0080     E  	mov _FuncData[4],a
1159  002F  2800     R  	jmp _L226
1159  0030              _L225:
1162  0030              #line 1162 "C:\Users\houlinfeng\Desktop\TwoWireDevice_Hou\source\comm.c"
1162  0030  1F00     E  	clr _FuncData[4]
1163  0031              #line 1163 "C:\Users\houlinfeng\Desktop\TwoWireDevice_Hou\source\comm.c"
1163  0031  0F0C        	mov a,12
1163  0032  00B3        	mov [51],a
1163  0033              _L226:
1165  0033              #line 1165 "C:\Users\houlinfeng\Desktop\TwoWireDevice_Hou\source\comm.c"
1165  0033              ;# 1165 "C:\Users\houlinfeng\Desktop\TwoWireDevice_Hou\source\comm.c" 1
1165  0033              	IF 40>263690
1165  0033              ;# 1165 "C:\Users\houlinfeng\Desktop\TwoWireDevice_Hou\source\comm.c" 1
1165  0033              	ERRMESSAGE 'the value 40of the argument exceeds the maxinum 263690'
1165  0033              	ENDIF
1165  0033              ;# 1165 "C:\Users\houlinfeng\Desktop\TwoWireDevice_Hou\source\comm.c" 1
1165  0033              	IF 40<0
1165  0033              ;# 1165 "C:\Users\houlinfeng\Desktop\TwoWireDevice_Hou\source\comm.c" 1
1165  0033              	ERRMESSAGE 'the value 40 of the argument exceeds the mininum 0'
1165  0033              	ENDIF
1165  0033              ;# 1165 "C:\Users\houlinfeng\Desktop\TwoWireDevice_Hou\source\comm.c" 1
1165  0033              	IF 40==0
1165  0033              ;# 1165 "C:\Users\houlinfeng\Desktop\TwoWireDevice_Hou\source\comm.c" 1
1165  0033              	JMP $
1165  0033              	ENDIF
1165  0033              ;# 1165 "C:\Users\houlinfeng\Desktop\TwoWireDevice_Hou\source\comm.c" 1
1165  0033              	IF 40==1
1165  0033              ;# 1165 "C:\Users\houlinfeng\Desktop\TwoWireDevice_Hou\source\comm.c" 1
1165  0033              	NOP
1165  0033              	ENDIF
1165  0033              ;# 1165 "C:\Users\houlinfeng\Desktop\TwoWireDevice_Hou\source\comm.c" 1
1165  0033              	IF 40==2
1165  0033              ;# 1165 "C:\Users\houlinfeng\Desktop\TwoWireDevice_Hou\source\comm.c" 1
1165  0033              	NOP
1165  0033              ;# 1165 "C:\Users\houlinfeng\Desktop\TwoWireDevice_Hou\source\comm.c" 1
1165  0033              	NOP
1165  0033              	ENDIF
文件：comm.c       编译器版本 HGASM 0202 页次29

1165  0033              ;# 1165 "C:\Users\houlinfeng\Desktop\TwoWireDevice_Hou\source\comm.c" 1
1165  0033              	IF 40==3
1165  0033              ;# 1165 "C:\Users\houlinfeng\Desktop\TwoWireDevice_Hou\source\comm.c" 1
1165  0033              	NOP
1165  0033              ;# 1165 "C:\Users\houlinfeng\Desktop\TwoWireDevice_Hou\source\comm.c" 1
1165  0033              	NOP
1165  0033              ;# 1165 "C:\Users\houlinfeng\Desktop\TwoWireDevice_Hou\source\comm.c" 1
1165  0033              	NOP
1165  0033              	ENDIF
1165  0033              ;# 1165 "C:\Users\houlinfeng\Desktop\TwoWireDevice_Hou\source\comm.c" 1
1165  0033              	IF (40<8) AND (40>3)
1165  0033              ;# 1165 "C:\Users\houlinfeng\Desktop\TwoWireDevice_Hou\source\comm.c" 1
1165  0033              	CALL __DELAY3 + 7 -40
1165  0033              	ENDIF
1165  0033              ;# 1165 "C:\Users\houlinfeng\Desktop\TwoWireDevice_Hou\source\comm.c" 1
1165  0033              	IF (40< 0404h) AND (40>7)
1165  0033              ;# 1165 "C:\Users\houlinfeng\Desktop\TwoWireDevice_Hou\source\comm.c" 1
1165  0033  0F09        	MOV A,40/4-1
1165  0034              ;# 1165 "C:\Users\houlinfeng\Desktop\TwoWireDevice_Hou\source\comm.c" 1
1165  0034  2000     E  	CALL __DELAYX3 + 3 -(40 MOD 4)
1165  0035              	ENDIF
1165  0035              ;# 1165 "C:\Users\houlinfeng\Desktop\TwoWireDevice_Hou\source\comm.c" 1
1165  0035              	IF (40< 0x40B) AND (40> 0403h)
1165  0035              ;# 1165 "C:\Users\houlinfeng\Desktop\TwoWireDevice_Hou\source\comm.c" 1
1165  0035              	MOV A,0 
1165  0035              ;# 1165 "C:\Users\houlinfeng\Desktop\TwoWireDevice_Hou\source\comm.c" 1
1165  0035              	CALL __DELAYX6 + 0x40a -40
1165  0035              	ENDIF
1165  0035              ;# 1165 "C:\Users\houlinfeng\Desktop\TwoWireDevice_Hou\source\comm.c" 1
1165  0035              	IF (40 >= 0x40b) AND ((((40-9)%0402h)/4+1)>256)
1165  0035              ;# 1165 "C:\Users\houlinfeng\Desktop\TwoWireDevice_Hou\source\comm.c" 1
1165  0035              	MOV A,(40-9)/0402h
1165  0035              ;# 1165 "C:\Users\houlinfeng\Desktop\TwoWireDevice_Hou\source\comm.c" 1
1165  0035              	MOV _builtin_holtek_delay_2,A
1165  0035              ;# 1165 "C:\Users\houlinfeng\Desktop\TwoWireDevice_Hou\source\comm.c" 1
1165  0035              	MOV A,0
1165  0035              ;# 1165 "C:\Users\houlinfeng\Desktop\TwoWireDevice_Hou\source\comm.c" 1
1165  0035              	CALL __DELAYY5 +5- (((40-9)%0402h)%6)
1165  0035              	ENDIF
1165  0035              ;# 1165 "C:\Users\houlinfeng\Desktop\TwoWireDevice_Hou\source\comm.c" 1
1165  0035              	IF (40 >= 0x40b) AND ((((40-9)%0402h)/4+1)<=256)
1165  0035              ;# 1165 "C:\Users\houlinfeng\Desktop\TwoWireDevice_Hou\source\comm.c" 1
1165  0035              	MOV A,(40-9)/0402h
1165  0035              ;# 1165 "C:\Users\houlinfeng\Desktop\TwoWireDevice_Hou\source\comm.c" 1
1165  0035              	MOV _builtin_holtek_delay_2,A
1165  0035              ;# 1165 "C:\Users\houlinfeng\Desktop\TwoWireDevice_Hou\source\comm.c" 1
1165  0035              	MOV A,((40-9)%0402h)/4+1
1165  0035              ;# 1165 "C:\Users\houlinfeng\Desktop\TwoWireDevice_Hou\source\comm.c" 1
1165  0035              	CALL __DELAYY3 +3-(((40-9)%0402h)%4)
1165  0035              	ENDIF
1170  0035              #line 1170 "C:\Users\houlinfeng\Desktop\TwoWireDevice_Hou\source\comm.c"
1170  0035  0733        	mov a,[51]
1170  0036  0080     E  	mov _FuncData[24],a
1170  0037  1F00     E  	clr _FuncData[25]
1175  0038              #line 1175 "C:\Users\houlinfeng\Desktop\TwoWireDevice_Hou\source\comm.c"
1175  0038  1F31        	clr [49]
1176  0039              #line 1176 "C:\Users\houlinfeng\Desktop\TwoWireDevice_Hou\source\comm.c"
1176  0039  373B        	clr [59].6
1176  003A  0003        	ret
1176  003B              _AdjustBusVolt endp
文件：comm.c       编译器版本 HGASM 0202 页次30

1176  003B              #line 1176 "C:\Users\houlinfeng\Desktop\TwoWireDevice_Hou\source\comm.c"
1176  003B              #pragma debug scope 1 1
1176  003B              public _MinWorkLoopVolCheck
1176  003B              #pragma debug scope 10 1
1187  003B              #line 1187 "C:\Users\houlinfeng\Desktop\TwoWireDevice_Hou\source\comm.c"
1187  0000              _MinWorkLoopVolCheck .section 'code'
1187  0000              _MinWorkLoopVolCheck proc
1188  0000              #line 1188 "C:\Users\houlinfeng\Desktop\TwoWireDevice_Hou\source\comm.c"
1188  0000  0F0F        	mov a,15
1188  0001  0200     E  	sub a,_FuncData[8]
1188  0002  380A        	snz c
1188  0003  2800     R  	jmp _L229
1191  0004              #line 1191 "C:\Users\houlinfeng\Desktop\TwoWireDevice_Hou\source\comm.c"
1191  0004  0700     E  	mov a,_FuncData[9]
1191  0005  0080     E  	mov ra,a
1191  0006  0F09        	mov a,9
1191  0007  0200     E  	sub a,ra
1191  0008  380A        	snz c
1191  0009  2800     R  	jmp _L230
1193  000A              #line 1193 "C:\Users\houlinfeng\Desktop\TwoWireDevice_Hou\source\comm.c"
1193  000A  1400     E  	inca ra
1193  000B  0080     E  	mov _FuncData[9],a
1193  000C  2800     R  	jmp _L228
1193  000D              _L230:
1197  000D              #line 1197 "C:\Users\houlinfeng\Desktop\TwoWireDevice_Hou\source\comm.c"
1197  000D  1F00     E  	clr _FuncData[9]
1198  000E              #line 1198 "C:\Users\houlinfeng\Desktop\TwoWireDevice_Hou\source\comm.c"
1198  000E  0F01        	mov a,1
1198  000F  0080     E  	mov _SysData[1],a
1198  0010  2800     R  	jmp _L228
1198  0011              _L229:
1203  0011              #line 1203 "C:\Users\houlinfeng\Desktop\TwoWireDevice_Hou\source\comm.c"
1203  0011  1F00     E  	clr _FuncData[9]
1203  0012              _L228:
1203  0012  0003        	ret
1203  0013              _MinWorkLoopVolCheck endp
1203  0013              #line 1203 "C:\Users\houlinfeng\Desktop\TwoWireDevice_Hou\source\comm.c"
1203  0013              #pragma debug scope 1 1
1203  0013              public _RefreshData
1203  0013              #pragma debug scope 11 1
1214  0013              #line 1214 "C:\Users\houlinfeng\Desktop\TwoWireDevice_Hou\source\comm.c"
1214  0000              _RefreshData .section 'code'
1214  0000              _RefreshData proc
1214  0000  0002[           local _RefreshData_2 db 2 dup(?)	; 0,2
            00
            ]
1219  0002              #line 1219 "C:\Users\houlinfeng\Desktop\TwoWireDevice_Hou\source\comm.c"
1219  0000  0700     E  	mov a,_FuncData[10]
1219  0001  0080     E  	mov rb,a
1219  0002  0700     E  	mov a,_FuncData[11]
1219  0003  0080     E  	mov rc,a
1219  0004  3800     E  	snz rb.0
1219  0005  2800     R  	jmp _L233
1221  0006              #line 1221 "C:\Users\houlinfeng\Desktop\TwoWireDevice_Hou\source\comm.c"
1221  0006  0F01        	mov a,1
1221  0007  0080     E  	mov _CommData[18],a
1221  0008  2800     R  	jmp _L234
1221  0009              _L233:
1225  0009              #line 1225 "C:\Users\houlinfeng\Desktop\TwoWireDevice_Hou\source\comm.c"
1225  0009  1F00     E  	clr _CommData[18]
文件：comm.c       编译器版本 HGASM 0202 页次31

1225  000A              _L234:
1229  000A              #line 1229 "C:\Users\houlinfeng\Desktop\TwoWireDevice_Hou\source\comm.c"
1229  000A  0700     E  	mov a,_SysData[4]
1229  000B  0080     R  	mov _RefreshData_2[1],a
1229  000C  1700     R  	sdza _RefreshData_2[1]
1229  000D  2800     R  	jmp _L235
1231  000E              #line 1231 "C:\Users\houlinfeng\Desktop\TwoWireDevice_Hou\source\comm.c"
1231  000E  3800     E  	snz _FuncData[39].0
1231  000F  2800     R  	jmp _L236
1233  0010              #line 1233 "C:\Users\houlinfeng\Desktop\TwoWireDevice_Hou\source\comm.c"
1233  0010  0F01        	mov a,1
1233  0011  0080     E  	mov _CommData[22],a
1233  0012  2800     R  	jmp _L235
1233  0013              _L236:
1237  0013              #line 1237 "C:\Users\houlinfeng\Desktop\TwoWireDevice_Hou\source\comm.c"
1237  0013  1F00     E  	clr _CommData[22]
1237  0014              _L235:
1246  0014              #line 1246 "C:\Users\houlinfeng\Desktop\TwoWireDevice_Hou\source\comm.c"
1246  0014  0700     E  	mov a,rb
1246  0015  0080     E  	mov rd,a
1246  0016  0700     E  	mov a,rc
1246  0017  0080     E  	mov re,a
1246  0018  0F00        	mov a,0  
1246  0019  0680     E  	andm a,rd  
1246  001A  0F40        	mov a,64  
1246  001B  0680     E  	andm a,re
1246  001C  0700     E  	mov a,rd
1246  001D  0500     E  	or a,re
1246  001E  3D0A        	sz z
1246  001F  2800     R  	jmp _L237
1249  0020              #line 1249 "C:\Users\houlinfeng\Desktop\TwoWireDevice_Hou\source\comm.c"
1249  0020  3C00     E  	sz rc.7
1249  0021  2800     R  	jmp _L238
1251  0022              #line 1251 "C:\Users\houlinfeng\Desktop\TwoWireDevice_Hou\source\comm.c"
1251  0022  3000     E  	set _CommData[20].0
1251  0023              _L238:
1255  0023              #line 1255 "C:\Users\houlinfeng\Desktop\TwoWireDevice_Hou\source\comm.c"
1255  0023  0700     E  	mov a,_FuncData[29]
1255  0024  0080     E  	mov rd,a
1255  0025  0700     E  	mov a,_FuncData[30]
1255  0026  0080     E  	mov re,a
1255  0027  0700     E  	mov a,rd
1255  0028  0080     E  	mov rf,a
1255  0029  0700     E  	mov a,re
1255  002A  0080     E  	mov rg,a
1255  002B  0700     E  	mov a,rc
1255  002C  0480     E  	xorm a,rg
1255  002D  0700     E  	mov a,rb
1255  002E  0480     E  	xorm a,rf
1255  002F  1E00     E  	snz rf
1255  0030  2800     R  	jmp _L239
1257  0031              #line 1257 "C:\Users\houlinfeng\Desktop\TwoWireDevice_Hou\source\comm.c"
1257  0031  3000     E  	set _CommData[20].1
1257  0032              _L239:
1261  0032              #line 1261 "C:\Users\houlinfeng\Desktop\TwoWireDevice_Hou\source\comm.c"
1261  0032  1E00     E  	snz _CommData[20]
1261  0033  2800     R  	jmp _L240
1263  0034              #line 1263 "C:\Users\houlinfeng\Desktop\TwoWireDevice_Hou\source\comm.c"
1263  0034  0F01        	mov a,1
1263  0035  0080     E  	mov _CommData[17],a
文件：comm.c       编译器版本 HGASM 0202 页次32

1264  0036              #line 1264 "C:\Users\houlinfeng\Desktop\TwoWireDevice_Hou\source\comm.c"
1264  0036  1F00     E  	clr _CommData[19]
1264  0037              _L240:
1268  0037              #line 1268 "C:\Users\houlinfeng\Desktop\TwoWireDevice_Hou\source\comm.c"
1268  0037  3800     E  	snz rc.7
1268  0038  2800     R  	jmp _L241
1269  0039              #line 1269 "C:\Users\houlinfeng\Desktop\TwoWireDevice_Hou\source\comm.c"
1269  0039  3C00     E  	sz re.7
1269  003A  2800     R  	jmp _L241
1269  003B              _L237:
1280  003B              #line 1280 "C:\Users\houlinfeng\Desktop\TwoWireDevice_Hou\source\comm.c"
1280  003B  1F00     E  	clr _CommData[17]
1281  003C              #line 1281 "C:\Users\houlinfeng\Desktop\TwoWireDevice_Hou\source\comm.c"
1281  003C  1F00     E  	clr _CommData[19]
1281  003D              _L241:
1283  003D              #line 1283 "C:\Users\houlinfeng\Desktop\TwoWireDevice_Hou\source\comm.c"
1283  003D  0700     E  	mov a,rb
1283  003E  0080     E  	mov _FuncData[29],a
1283  003F  0700     E  	mov a,rc
1283  0040  0080     E  	mov _FuncData[30],a
1284  0041              #line 1284 "C:\Users\houlinfeng\Desktop\TwoWireDevice_Hou\source\comm.c"
1284  0041  0700     E  	mov a,rc
1284  0042  0580     E  	orm a,_FuncData[28]
1284  0043  0700     E  	mov a,rb
1284  0044  0580     E  	orm a,_FuncData[27]
1288  0045              #line 1288 "C:\Users\houlinfeng\Desktop\TwoWireDevice_Hou\source\comm.c"
1288  0045  0700     E  	mov a,_FuncData[32]
1288  0046  0080     R  	mov _RefreshData_2[0],a
1289  0047              #line 1289 "C:\Users\houlinfeng\Desktop\TwoWireDevice_Hou\source\comm.c"
1289  0047  0700     R  	mov a,_RefreshData_2[0]
1289  0048  0A55        	sub a,85
1289  0049  3D0A        	sz z
1289  004A  2800     R  	jmp _L243
1289  004B  0A14        	sub a,(105)-(85)
1289  004C  3D0A        	sz z
1289  004D  2800     R  	jmp _L244
1289  004E  0700     R  	mov a,_RefreshData_2[0]
1289  004F  0AAA        	sub a,170
1289  0050  3D0A        	sz z
1289  0051  2800     R  	jmp _L245
1289  0052  0A11        	sub a,(187)-(170)
1289  0053  3D0A        	sz z
1289  0054  2800     R  	jmp _L246
1289  0055  0700     R  	mov a,_RefreshData_2[0]
1289  0056  0ACC        	sub a,204
1289  0057  3D0A        	sz z
1289  0058  2800     R  	jmp _L247
1289  0059  0A11        	sub a,(221)-(204)
1289  005A  3D0A        	sz z
1289  005B  2800     R  	jmp _L248
1289  005C  0700     R  	mov a,_RefreshData_2[0]
1289  005D  0AEE        	sub a,238
1289  005E  390A        	snz z
1289  005F  2800     R  	jmp _L242
1292  0060              #line 1292 "C:\Users\houlinfeng\Desktop\TwoWireDevice_Hou\source\comm.c"
1292  0060  0700     E  	mov a,rb
1292  0061  0080     E  	mov rd,a
1292  0062  0700     E  	mov a,rc
1292  0063  0080     E  	mov re,a
1292  0064  0F00        	mov a,0  
文件：comm.c       编译器版本 HGASM 0202 页次33

1292  0065  0680     E  	andm a,rd  
1292  0066  0FFF        	mov a,255  
1292  0067  0680     E  	andm a,re
1292  0068  0700     E  	mov a,rd
1292  0069  0080     E  	mov _FuncData[10],a
1292  006A  0700     E  	mov a,re
1292  006B  0080     E  	mov _FuncData[11],a
1293  006C              #line 1293 "C:\Users\houlinfeng\Desktop\TwoWireDevice_Hou\source\comm.c"
1293  006C  1F00     E  	clr _FuncData[33]
1294  006D              #line 1294 "C:\Users\houlinfeng\Desktop\TwoWireDevice_Hou\source\comm.c"
1294  006D  2800     R  	jmp _L242
1294  006E              _L243:
1291  006E              #line 1291 "C:\Users\houlinfeng\Desktop\TwoWireDevice_Hou\source\comm.c"
1291  006E  0F01        	mov a,1
1291  006F  0080     E  	mov _SysData[1],a
1291  0070  2800     R  	jmp _L242
1291  0071              _L247:
1295  0071              #line 1295 "C:\Users\houlinfeng\Desktop\TwoWireDevice_Hou\source\comm.c"
1295  0071  0700     E  	mov a,rc
1295  0072  0D40        	or a,64
1295  0073  0080     E  	mov _FuncData[11],a
1295  0074  0700     E  	mov a,rb
1295  0075  0D00        	or a,0
1295  0076  0080     E  	mov _FuncData[10],a
1295  0077  2800     R  	jmp _L242
1295  0078              _L245:
1296  0078              #line 1296 "C:\Users\houlinfeng\Desktop\TwoWireDevice_Hou\source\comm.c"
1296  0078  0700     E  	mov a,rb
1296  0079  0080     E  	mov rd,a
1296  007A  0700     E  	mov a,rc
1296  007B  0080     E  	mov re,a
1296  007C  0FFF        	mov a,255  
1296  007D  0680     E  	andm a,rd  
1296  007E  0FBF        	mov a,191  
1296  007F  0680     E  	andm a,re
1296  0080  2800     R  	jmp _L286
1296  0081              _L244:
1297  0081              #line 1297 "C:\Users\houlinfeng\Desktop\TwoWireDevice_Hou\source\comm.c"
1297  0081  0700     E  	mov a,rc
1297  0082  0D80        	or a,128
1297  0083  0080     E  	mov _FuncData[11],a
1297  0084  0700     E  	mov a,rb
1297  0085  0D00        	or a,0
1297  0086  0080     E  	mov _FuncData[10],a
1298  0087              #line 1298 "C:\Users\houlinfeng\Desktop\TwoWireDevice_Hou\source\comm.c"
1298  0087  3400     E  	clr _CommData[20].0
1298  0088  2800     R  	jmp _L242
1298  0089              _L246:
1299  0089              #line 1299 "C:\Users\houlinfeng\Desktop\TwoWireDevice_Hou\source\comm.c"
1299  0089  0700     E  	mov a,rc
1299  008A  0D20        	or a,32
1299  008B  0080     E  	mov _FuncData[11],a
1299  008C  0700     E  	mov a,rb
1299  008D  0D00        	or a,0
1299  008E  0080     E  	mov _FuncData[10],a
1299  008F  2800     R  	jmp _L242
1299  0090              _L248:
1300  0090              #line 1300 "C:\Users\houlinfeng\Desktop\TwoWireDevice_Hou\source\comm.c"
1300  0090  0700     E  	mov a,rb
1300  0091  0080     E  	mov rd,a
文件：comm.c       编译器版本 HGASM 0202 页次34

1300  0092  0700     E  	mov a,rc
1300  0093  0080     E  	mov re,a
1300  0094  0FFF        	mov a,255  
1300  0095  0680     E  	andm a,rd  
1300  0096  0FDF        	mov a,223  
1300  0097  0680     E  	andm a,re
1300  0098              _L286:
1300  0098  0700     E  	mov a,rd
1300  0099  0080     E  	mov _FuncData[10],a
1300  009A  0700     E  	mov a,re
1300  009B  0080     E  	mov _FuncData[11],a
1300  009C              _L242:
1303  009C              #line 1303 "C:\Users\houlinfeng\Desktop\TwoWireDevice_Hou\source\comm.c"
1303  009C  1F00     E  	clr _FuncData[15]
1304  009D              #line 1304 "C:\Users\houlinfeng\Desktop\TwoWireDevice_Hou\source\comm.c"
1304  009D  3800     E  	snz _FuncData[11].5
1304  009E  2800     R  	jmp _L250
1306  009F              #line 1306 "C:\Users\houlinfeng\Desktop\TwoWireDevice_Hou\source\comm.c"
1306  009F  0700     E  	mov a,_FuncData[31]
1306  00A0  0080     E  	mov _FuncData[14],a
1306  00A1              _L250:
1311  00A1              #line 1311 "C:\Users\houlinfeng\Desktop\TwoWireDevice_Hou\source\comm.c"
1311  00A1  1700     R  	sdza _RefreshData_2[1]
1311  00A2  2800     R  	jmp _L251
1314  00A3              #line 1314 "C:\Users\houlinfeng\Desktop\TwoWireDevice_Hou\source\comm.c"
1314  00A3  0700     E  	mov a,_FuncData[39]
1314  00A4  0080     E  	mov rb,a
1314  00A5  0700     E  	mov a,_FuncData[40]
1314  00A6  0080     E  	mov rc,a
1314  00A7  3800     E  	snz _FuncData[40].6
1314  00A8  2800     R  	jmp _L252
1316  00A9              #line 1316 "C:\Users\houlinfeng\Desktop\TwoWireDevice_Hou\source\comm.c"
1316  00A9  3C00     E  	sz rc.7
1316  00AA  2800     R  	jmp _L253
1318  00AB              #line 1318 "C:\Users\houlinfeng\Desktop\TwoWireDevice_Hou\source\comm.c"
1318  00AB  3000     E  	set _CommData[24].0
1318  00AC              _L253:
1321  00AC              #line 1321 "C:\Users\houlinfeng\Desktop\TwoWireDevice_Hou\source\comm.c"
1321  00AC  0700     E  	mov a,_FuncData[41]
1321  00AD  0080     E  	mov rd,a
1321  00AE  0700     E  	mov a,_FuncData[42]
1321  00AF  0080     E  	mov re,a
1321  00B0  0700     E  	mov a,rd
1321  00B1  0080     E  	mov rf,a
1321  00B2  0700     E  	mov a,re
1321  00B3  0080     E  	mov rg,a
1321  00B4  0700     E  	mov a,rc
1321  00B5  0480     E  	xorm a,rg
1321  00B6  0700     E  	mov a,rb
1321  00B7  0480     E  	xorm a,rf
1321  00B8  1E00     E  	snz rf
1321  00B9  2800     R  	jmp _L254
1323  00BA              #line 1323 "C:\Users\houlinfeng\Desktop\TwoWireDevice_Hou\source\comm.c"
1323  00BA  3000     E  	set _CommData[24].1
1323  00BB              _L254:
1326  00BB              #line 1326 "C:\Users\houlinfeng\Desktop\TwoWireDevice_Hou\source\comm.c"
1326  00BB  1E00     E  	snz _CommData[24]
1326  00BC  2800     R  	jmp _L255
1328  00BD              #line 1328 "C:\Users\houlinfeng\Desktop\TwoWireDevice_Hou\source\comm.c"
1328  00BD  0F01        	mov a,1
文件：comm.c       编译器版本 HGASM 0202 页次35

1328  00BE  0080     E  	mov _CommData[21],a
1329  00BF              #line 1329 "C:\Users\houlinfeng\Desktop\TwoWireDevice_Hou\source\comm.c"
1329  00BF  1F00     E  	clr _CommData[23]
1329  00C0              _L255:
1333  00C0              #line 1333 "C:\Users\houlinfeng\Desktop\TwoWireDevice_Hou\source\comm.c"
1333  00C0  3800     E  	snz rc.7
1333  00C1  2800     R  	jmp _L256
1334  00C2              #line 1334 "C:\Users\houlinfeng\Desktop\TwoWireDevice_Hou\source\comm.c"
1334  00C2  3C00     E  	sz re.7
1334  00C3  2800     R  	jmp _L256
1334  00C4              _L252:
1343  00C4              #line 1343 "C:\Users\houlinfeng\Desktop\TwoWireDevice_Hou\source\comm.c"
1343  00C4  1F00     E  	clr _CommData[21]
1344  00C5              #line 1344 "C:\Users\houlinfeng\Desktop\TwoWireDevice_Hou\source\comm.c"
1344  00C5  1F00     E  	clr _CommData[23]
1344  00C6              _L256:
1346  00C6              #line 1346 "C:\Users\houlinfeng\Desktop\TwoWireDevice_Hou\source\comm.c"
1346  00C6  0700     E  	mov a,rb
1346  00C7  0080     E  	mov _FuncData[41],a
1346  00C8  0700     E  	mov a,rc
1346  00C9  0080     E  	mov _FuncData[42],a
1347  00CA              #line 1347 "C:\Users\houlinfeng\Desktop\TwoWireDevice_Hou\source\comm.c"
1347  00CA  0700     E  	mov a,rc
1347  00CB  0580     E  	orm a,_FuncData[44]
1347  00CC  0700     E  	mov a,rb
1347  00CD  0580     E  	orm a,_FuncData[43]
1352  00CE              #line 1352 "C:\Users\houlinfeng\Desktop\TwoWireDevice_Hou\source\comm.c"
1352  00CE  0700     E  	mov a,_FuncData[38]
1352  00CF  0080     R  	mov _RefreshData_2[0],a
1353  00D0              #line 1353 "C:\Users\houlinfeng\Desktop\TwoWireDevice_Hou\source\comm.c"
1353  00D0  0700     R  	mov a,_RefreshData_2[0]
1353  00D1  0A55        	sub a,85
1353  00D2  3D0A        	sz z
1353  00D3  2800     R  	jmp _L258
1353  00D4  0A14        	sub a,(105)-(85)
1353  00D5  3D0A        	sz z
1353  00D6  2800     R  	jmp _L259
1353  00D7  0700     R  	mov a,_RefreshData_2[0]
1353  00D8  0AAA        	sub a,170
1353  00D9  3D0A        	sz z
1353  00DA  2800     R  	jmp _L260
1353  00DB  0A11        	sub a,(187)-(170)
1353  00DC  3D0A        	sz z
1353  00DD  2800     R  	jmp _L261
1353  00DE  0700     R  	mov a,_RefreshData_2[0]
1353  00DF  0ACC        	sub a,204
1353  00E0  3D0A        	sz z
1353  00E1  2800     R  	jmp _L262
1353  00E2  0A11        	sub a,(221)-(204)
1353  00E3  3D0A        	sz z
1353  00E4  2800     R  	jmp _L263
1353  00E5  0700     R  	mov a,_RefreshData_2[0]
1353  00E6  0AEE        	sub a,238
1353  00E7  390A        	snz z
1353  00E8  2800     R  	jmp _L257
1356  00E9              #line 1356 "C:\Users\houlinfeng\Desktop\TwoWireDevice_Hou\source\comm.c"
1356  00E9  0700     E  	mov a,rb
1356  00EA  0080     E  	mov rd,a
1356  00EB  0700     E  	mov a,rc
1356  00EC  0080     E  	mov re,a
文件：comm.c       编译器版本 HGASM 0202 页次36

1356  00ED  0F00        	mov a,0  
1356  00EE  0680     E  	andm a,rd  
1356  00EF  0FFF        	mov a,255  
1356  00F0  0680     E  	andm a,re
1356  00F1  2800     R  	jmp _L287
1356  00F2              _L258:
1355  00F2              #line 1355 "C:\Users\houlinfeng\Desktop\TwoWireDevice_Hou\source\comm.c"
1355  00F2  0F01        	mov a,1
1355  00F3  0080     E  	mov _SysData[1],a
1355  00F4  2800     R  	jmp _L257
1355  00F5              _L262:
1357  00F5              #line 1357 "C:\Users\houlinfeng\Desktop\TwoWireDevice_Hou\source\comm.c"
1357  00F5  0700     E  	mov a,rc
1357  00F6  0D40        	or a,64
1357  00F7  0080     E  	mov _FuncData[40],a
1357  00F8  0700     E  	mov a,rb
1357  00F9  0D00        	or a,0
1357  00FA  0080     E  	mov _FuncData[39],a
1357  00FB  2800     R  	jmp _L257
1357  00FC              _L260:
1358  00FC              #line 1358 "C:\Users\houlinfeng\Desktop\TwoWireDevice_Hou\source\comm.c"
1358  00FC  0700     E  	mov a,rb
1358  00FD  0080     E  	mov rd,a
1358  00FE  0700     E  	mov a,rc
1358  00FF  0080     E  	mov re,a
1358  0100  0FFF        	mov a,255  
1358  0101  0680     E  	andm a,rd  
1358  0102  0FBF        	mov a,191  
1358  0103  0680     E  	andm a,re
1358  0104  2800     R  	jmp _L287
1358  0105              _L259:
1359  0105              #line 1359 "C:\Users\houlinfeng\Desktop\TwoWireDevice_Hou\source\comm.c"
1359  0105  0700     E  	mov a,rc
1359  0106  0D80        	or a,128
1359  0107  0080     E  	mov _FuncData[40],a
1359  0108  0700     E  	mov a,rb
1359  0109  0D00        	or a,0
1359  010A  0080     E  	mov _FuncData[39],a
1360  010B              #line 1360 "C:\Users\houlinfeng\Desktop\TwoWireDevice_Hou\source\comm.c"
1360  010B  3400     E  	clr _CommData[24].0
1360  010C  2800     R  	jmp _L257
1360  010D              _L261:
1361  010D              #line 1361 "C:\Users\houlinfeng\Desktop\TwoWireDevice_Hou\source\comm.c"
1361  010D  0700     E  	mov a,rc
1361  010E  0D20        	or a,32
1361  010F  0080     E  	mov _FuncData[40],a
1361  0110  0700     E  	mov a,rb
1361  0111  0D00        	or a,0
1361  0112  0080     E  	mov _FuncData[39],a
1361  0113  2800     R  	jmp _L257
1361  0114              _L263:
1362  0114              #line 1362 "C:\Users\houlinfeng\Desktop\TwoWireDevice_Hou\source\comm.c"
1362  0114  0700     E  	mov a,rb
1362  0115  0080     E  	mov rd,a
1362  0116  0700     E  	mov a,rc
1362  0117  0080     E  	mov re,a
1362  0118  0FFF        	mov a,255  
1362  0119  0680     E  	andm a,rd  
1362  011A  0FDF        	mov a,223  
1362  011B  0680     E  	andm a,re
文件：comm.c       编译器版本 HGASM 0202 页次37

1362  011C              _L287:
1362  011C  0700     E  	mov a,rd
1362  011D  0080     E  	mov _FuncData[39],a
1362  011E  0700     E  	mov a,re
1362  011F  0080     E  	mov _FuncData[40],a
1362  0120              _L257:
1365  0120              #line 1365 "C:\Users\houlinfeng\Desktop\TwoWireDevice_Hou\source\comm.c"
1365  0120  1F00     E  	clr _FuncData[36]
1365  0121              _L251:
1370  0121              #line 1370 "C:\Users\houlinfeng\Desktop\TwoWireDevice_Hou\source\comm.c"
1370  0121  0700     E  	mov a,_MemData[9]
1370  0122  0080     R  	mov _RefreshData_2[0],a
1370  0123  0700     R  	mov a,_RefreshData_2[0]
1370  0124  0080     E  	mov _SysData[2],a
1381  0125              #line 1381 "C:\Users\houlinfeng\Desktop\TwoWireDevice_Hou\source\comm.c"
1381  0125  0700     R  	mov a,_RefreshData_2[0]
1381  0126  0A33        	sub a,51
1381  0127  3D0A        	sz z
1381  0128  2800     R  	jmp _L266
1381  0129  0700     R  	mov a,_RefreshData_2[0]
1381  012A  0A3D        	sub a,61
1381  012B  390A        	snz z
1381  012C  2800     R  	jmp _L285
1400  012D              #line 1400 "C:\Users\houlinfeng\Desktop\TwoWireDevice_Hou\source\comm.c"
1400  012D  0F01        	mov a,1
1400  012E  0080     E  	mov _SysData[4],a
1401  012F              #line 1401 "C:\Users\houlinfeng\Desktop\TwoWireDevice_Hou\source\comm.c"
1401  012F  0F2A        	mov a,42
1401  0130  0080     E  	mov _SysData[3],a
1403  0131              #line 1403 "C:\Users\houlinfeng\Desktop\TwoWireDevice_Hou\source\comm.c"
1403  0131  2800     R  	jmp _L268
1403  0132              _L266:
1393  0132              #line 1393 "C:\Users\houlinfeng\Desktop\TwoWireDevice_Hou\source\comm.c"
1393  0132  0F01        	mov a,1
1393  0133  0080     E  	mov _SysData[4],a
1394  0134              #line 1394 "C:\Users\houlinfeng\Desktop\TwoWireDevice_Hou\source\comm.c"
1394  0134  0F29        	mov a,41
1394  0135  0080     E  	mov _SysData[3],a
1396  0136              #line 1396 "C:\Users\houlinfeng\Desktop\TwoWireDevice_Hou\source\comm.c"
1396  0136  2800     R  	jmp _L268
1396  0137              _L285:
1407  0137              #line 1407 "C:\Users\houlinfeng\Desktop\TwoWireDevice_Hou\source\comm.c"
1407  0137  1F00     E  	clr _SysData[4]
1407  0138              _L268:
1442  0138              #line 1442 "C:\Users\houlinfeng\Desktop\TwoWireDevice_Hou\source\comm.c"
1442  0138  0700     E  	mov a,_MemData[4]
1442  0139  0080     E  	mov ra,a
1443  013A              #line 1443 "C:\Users\houlinfeng\Desktop\TwoWireDevice_Hou\source\comm.c"
1443  013A  1E00     E  	snz ra
1443  013B  2800     R  	jmp _L272
1443  013C  0FEF        	mov a,239
1443  013D  0200     E  	sub a,ra
1443  013E  3C0A        	sz c
1443  013F  2800     R  	jmp _L269
1443  0140  0FEF        	mov a,239
1443  0141  0080     E  	mov ra,a
1443  0142  2800     R  	jmp _L269
1443  0143              _L272:
1444  0143              #line 1444 "C:\Users\houlinfeng\Desktop\TwoWireDevice_Hou\source\comm.c"
1444  0143  0F01        	mov a,1
文件：comm.c       编译器版本 HGASM 0202 页次38

1444  0144  0080     E  	mov ra,a
1444  0145              _L269:
1447  0145              #line 1447 "C:\Users\houlinfeng\Desktop\TwoWireDevice_Hou\source\comm.c"
1447  0145  0700     E  	mov a,ra
1447  0146  0080     E  	mov _CommData[1],a
1448  0147              #line 1448 "C:\Users\houlinfeng\Desktop\TwoWireDevice_Hou\source\comm.c"
1448  0147  1100     E  	swapa ra
1448  0148  0E0F        	and a,0fh
1448  0149  0080     E  	mov _CommData[2],a
1449  014A              #line 1449 "C:\Users\houlinfeng\Desktop\TwoWireDevice_Hou\source\comm.c"
1449  014A  0700     E  	mov a,ra
1449  014B  0E0F        	and a,15
1449  014C  0080     E  	mov _CommData[3],a
1452  014D              #line 1452 "C:\Users\houlinfeng\Desktop\TwoWireDevice_Hou\source\comm.c"
1452  014D  0700     E  	mov a,ra
1452  014E  0AEF        	sub a,239
1452  014F  3D0A        	sz z
1452  0150  2800     R  	jmp _L271
1454  0151              #line 1454 "C:\Users\houlinfeng\Desktop\TwoWireDevice_Hou\source\comm.c"
1454  0151  1480     E  	inc ra
1454  0152              _L271:
1462  0152              #line 1462 "C:\Users\houlinfeng\Desktop\TwoWireDevice_Hou\source\comm.c"
1462  0152  0700     E  	mov a,ra
1462  0153  0080     E  	mov _CommData[4],a
1463  0154              #line 1463 "C:\Users\houlinfeng\Desktop\TwoWireDevice_Hou\source\comm.c"
1463  0154  1100     E  	swapa ra
1463  0155  0E0F        	and a,0fh
1463  0156  0080     E  	mov _CommData[5],a
1464  0157              #line 1464 "C:\Users\houlinfeng\Desktop\TwoWireDevice_Hou\source\comm.c"
1464  0157  0700     E  	mov a,ra
1464  0158  0E0F        	and a,15
1464  0159  0080     E  	mov _CommData[6],a
1464  015A  0003        	ret
1464  015B              _RefreshData endp
1464  015B              #line 1464 "C:\Users\houlinfeng\Desktop\TwoWireDevice_Hou\source\comm.c"
1464  015B              #pragma debug scope 1 1
1464  015B              #pragma debug struct_end
1464  015B              #pragma debug struct_end
1464  015B              #pragma debug union_end
1464  015B              #pragma debug union_end
1464  015B              #pragma debug variable 43 1 ___scc "__scc" 1
1464  015B              #pragma debug struct_end
1464  015B              #pragma debug struct_end
1464  015B              #pragma debug union_end
1464  015B              #pragma debug union_end
1464  015B              #pragma debug variable 45 1 ___pltsw "__pltsw" 1
1464  015B              #pragma debug variable 8 1 ___pltda0l "__pltda0l" 1
1464  015B              #pragma debug struct_end
1464  015B              #pragma debug struct_end
1464  015B              #pragma debug union_end
1464  015B              #pragma debug union_end
1464  015B              #pragma debug variable 47 1 ___pltac "__pltac" 1
1464  015B              
1464  015B              ; output external variables
1464  015B              extern _MemData:byte
1464  015B              extern _FuncData:byte
1464  015B              extern _SysData:byte
1464  015B              extern _CommData:byte
1464  015B              extern _MemoryRead:near
1464  015B              extern _PutDataToWriteEEBuff_2:byte
文件：comm.c       编译器版本 HGASM 0202 页次39

1464  015B              extern _PutDataToWriteEEBuff:near
1464  015B              extern _PltLineVolt:near
1464  015B              extern _builtin_holtek_mulhi3_2:byte
1464  015B              extern _builtin_holtek_mulhi3:near
1464  015B              
1464  015B              ; 
1464  015B              ; Generated by holtek-gcc v3.19, Mon Nov 01 10:16:48 2021
1464  015B              ; Rebuild 718
1464  015B              ; end of file


        0 Errors, 0