文件：config.c     编译器版本 HGASM 0202 页次1


   1  0000              ; Generated by holtek-gcc v3.19, Mon Nov 01 10:16:49 2021
   2  0000              ; 
   3  0000              ; Configuration:
   4  0000              ;       with long instruction
   5  0000              ;       Single ROM, Multi-RAM
   6  0000              ;       bits_per_rom_unit:16
   7  0000              ;       with mp1
   8  0000              ;       with tbhp, address(0x9)
   9  0000              ;          Use tabrd-const
  10  0000              ;       
  11  0000              ; SFR address of long-instruction arch:
  12  0000              ;    mp0 = -1,1,0
  13  0000              ;    mp1 = 4,3,2
  14  0000              ;    mp2 = 14,13,12
  15  0000              ;    tbp = 9,7,8
  16  0000              ;    acc = 5
  17  0000              ;    pcl = 6
  18  0000              ;    status = 10
  19  0000              ;    bp = 11
  20  0000              ;    intc = 72
  21  0000              ;       
  22  0000              ;       
  23  0000              ; use 'tabrdc' instead of 'tabrd'
  24  0000              ;       
  25  0000              
  26  0000              #pragma translator "holtek-gcc 4.6.4" "3.19" "build 20130711"
  27  0000              ; Rebuild 718
  28  0000              
  29  0000              ir equ [2]
  30  0000              mp equ [3]
  31  0000              sbp equ [4]
  32  0000              acc equ [5]
  33  0000              bp equ [11]
  34  0000              tblp equ [7]
  35  0000              tbhp equ [9]
  36  0000              status equ [10]
  37  0000              c equ [10].0
  38  0000              ac equ [10].1
  39  0000              z equ [10].2
  40  0000              ov equ [10].3
  41  0000              cz equ [10].6
  42  0000              sc equ [10].7
  43  0000              intc equ [72]
  44  0000              
  45  0000              extern ra:byte
  46  0000              extern rb:byte
  47  0000              extern rc:byte
  48  0000              extern rd:byte
  49  0000              extern re:byte
  50  0000              extern rf:byte
  51  0000              extern rg:byte
  52  0000              extern rh:byte
  53  0000              extern _Crom2Prom:near
  54  0000              extern _Crom2PromNext:near
  55  0000              
  56  0000              RAMBANK 0 @BITDATASEC, @BITDATASEC1
  57  0000              @HCCINIT	.section 'data'
  58  0000              @HCCINIT0	.section 'data'
  59  0000              @BITDATASEC	 .section 'data'
文件：config.ASM   编译器版本 HGASM 0202 页次2

  60  0000              @BITDATASEC1	 .section 'data'
  61  0000              
  62  0000              #pragma debug scope 1 1
  63  0000              	extern __DELAY3:near
  64  0000              	extern __DELAYX3:near
  65  0000              	extern __DELAYX6:near
  66  0000              	extern __DELAYY5:near
  67  0000              	extern __DELAYY3:near
  68  0000              	extern _builtin_holtek_delay_2:byte
  69  0000              ___pbs0 equ [109]
  70  0000              ___pltsw equ [49]
  71  0000              ___pltda0l equ [51]
  72  0000              ___pltda1l equ [52]
  73  0000              ___pltda2l equ [53]
  74  0000              ___pltdacc equ [50]
  75  0000              ___pltc0c equ [54]
  76  0000              ___pltc1c equ [56]
  77  0000              ___pltchyc equ [58]
  78  0000              ___pltac equ [59]
  79  0000              public _PltInit
  80  0000              #pragma debug scope 2 1

 228  0000              #line 228 "C:\Users\houlinfeng\Desktop\TwoWireDevice_Hou\source\config.c"
 228  0000              _PltInit .section 'code'
 228  0000              _PltInit proc
 228  0000  00              local _PltInit_2 db 1 dup(?)	; 0,1
 228  0000  0080     R  	mov _PltInit_2[0],a
 228  0001              #pragma debug variable 8 2 _PltInit_2+0 "ucDacCode"
 229  0001              #line 229 "C:\Users\houlinfeng\Desktop\TwoWireDevice_Hou\source\config.c"
 229  0001  0F03        	mov a,3
 229  0002  06ED        	andm a,[109]
 230  0003              #line 230 "C:\Users\houlinfeng\Desktop\TwoWireDevice_Hou\source\config.c"
 230  0003  0F54        	mov a,84
 230  0004  05ED        	orm a,[109]
 231  0005              #line 231 "C:\Users\houlinfeng\Desktop\TwoWireDevice_Hou\source\config.c"
 231  0005  1F31        	clr [49]
 236  0006              #line 236 "C:\Users\houlinfeng\Desktop\TwoWireDevice_Hou\source\config.c"
 236  0006  0700     R  	mov a,_PltInit_2[0]
 236  0007  00B3        	mov [51],a
 247  0008              #line 247 "C:\Users\houlinfeng\Desktop\TwoWireDevice_Hou\source\config.c"
 247  0008  1F34        	clr [52]
 248  0009              #line 248 "C:\Users\houlinfeng\Desktop\TwoWireDevice_Hou\source\config.c"
 248  0009  1F35        	clr [53]
 258  000A              #line 258 "C:\Users\houlinfeng\Desktop\TwoWireDevice_Hou\source\config.c"
 258  000A  0F01        	mov a,1
 258  000B  00B2        	mov [50],a
 264  000C              #line 264 "C:\Users\houlinfeng\Desktop\TwoWireDevice_Hou\source\config.c"
 264  000C  0F05        	mov a,5
 264  000D  00B6        	mov [54],a
 269  000E              #line 269 "C:\Users\houlinfeng\Desktop\TwoWireDevice_Hou\source\config.c"
 269  000E  1F38        	clr [56]
 271  000F              #line 271 "C:\Users\houlinfeng\Desktop\TwoWireDevice_Hou\source\config.c"
 271  000F  0F01        	mov a,1
 271  0010  00BA        	mov [58],a
 276  0011              #line 276 "C:\Users\houlinfeng\Desktop\TwoWireDevice_Hou\source\config.c"
 276  0011  0F01        	mov a,1
 276  0012  00BB        	mov [59],a
 278  0013              #line 278 "C:\Users\houlinfeng\Desktop\TwoWireDevice_Hou\source\config.c"
 278  0013  3336        	set [54].6
 278  0014  0003        	ret
文件：config.c     编译器版本 HGASM 0202 页次3

 278  0015              _PltInit endp
 278  0015              #line 278 "C:\Users\houlinfeng\Desktop\TwoWireDevice_Hou\source\config.c"
 278  0015              #pragma debug scope 1 1
 278  0015              ___pltc0vos equ [55]
 278  0015              ___pltc1vos equ [57]
 278  0015              public _PltCaliCmp
 278  0015              #pragma debug scope 3 1
 286  0015              #line 286 "C:\Users\houlinfeng\Desktop\TwoWireDevice_Hou\source\config.c"
 286  0000              _PltCaliCmp .section 'code'
 286  0000              _PltCaliCmp proc
 291  0000              #line 291 "C:\Users\houlinfeng\Desktop\TwoWireDevice_Hou\source\config.c"
 291  0000  0F60        	mov a,96
 291  0001  00B7        	mov [55],a
 292  0002              #line 292 "C:\Users\houlinfeng\Desktop\TwoWireDevice_Hou\source\config.c"
 292  0002              ;# 292 "C:\Users\houlinfeng\Desktop\TwoWireDevice_Hou\source\config.c" 1
 292  0002              	IF 50>263690
 292  0002              ;# 292 "C:\Users\houlinfeng\Desktop\TwoWireDevice_Hou\source\config.c" 1
 292  0002              	ERRMESSAGE 'the value 50of the argument exceeds the maxinum 263690'
 292  0002              	ENDIF
 292  0002              ;# 292 "C:\Users\houlinfeng\Desktop\TwoWireDevice_Hou\source\config.c" 1
 292  0002              	IF 50<0
 292  0002              ;# 292 "C:\Users\houlinfeng\Desktop\TwoWireDevice_Hou\source\config.c" 1
 292  0002              	ERRMESSAGE 'the value 50 of the argument exceeds the mininum 0'
 292  0002              	ENDIF
 292  0002              ;# 292 "C:\Users\houlinfeng\Desktop\TwoWireDevice_Hou\source\config.c" 1
 292  0002              	IF 50==0
 292  0002              ;# 292 "C:\Users\houlinfeng\Desktop\TwoWireDevice_Hou\source\config.c" 1
 292  0002              	JMP $
 292  0002              	ENDIF
 292  0002              ;# 292 "C:\Users\houlinfeng\Desktop\TwoWireDevice_Hou\source\config.c" 1
 292  0002              	IF 50==1
 292  0002              ;# 292 "C:\Users\houlinfeng\Desktop\TwoWireDevice_Hou\source\config.c" 1
 292  0002              	NOP
 292  0002              	ENDIF
 292  0002              ;# 292 "C:\Users\houlinfeng\Desktop\TwoWireDevice_Hou\source\config.c" 1
 292  0002              	IF 50==2
 292  0002              ;# 292 "C:\Users\houlinfeng\Desktop\TwoWireDevice_Hou\source\config.c" 1
 292  0002              	NOP
 292  0002              ;# 292 "C:\Users\houlinfeng\Desktop\TwoWireDevice_Hou\source\config.c" 1
 292  0002              	NOP
 292  0002              	ENDIF
 292  0002              ;# 292 "C:\Users\houlinfeng\Desktop\TwoWireDevice_Hou\source\config.c" 1
 292  0002              	IF 50==3
 292  0002              ;# 292 "C:\Users\houlinfeng\Desktop\TwoWireDevice_Hou\source\config.c" 1
 292  0002              	NOP
 292  0002              ;# 292 "C:\Users\houlinfeng\Desktop\TwoWireDevice_Hou\source\config.c" 1
 292  0002              	NOP
 292  0002              ;# 292 "C:\Users\houlinfeng\Desktop\TwoWireDevice_Hou\source\config.c" 1
 292  0002              	NOP
 292  0002              	ENDIF
 292  0002              ;# 292 "C:\Users\houlinfeng\Desktop\TwoWireDevice_Hou\source\config.c" 1
 292  0002              	IF (50<8) AND (50>3)
 292  0002              ;# 292 "C:\Users\houlinfeng\Desktop\TwoWireDevice_Hou\source\config.c" 1
 292  0002              	CALL __DELAY3 + 7 -50
 292  0002              	ENDIF
 292  0002              ;# 292 "C:\Users\houlinfeng\Desktop\TwoWireDevice_Hou\source\config.c" 1
 292  0002              	IF (50< 0404h) AND (50>7)
 292  0002              ;# 292 "C:\Users\houlinfeng\Desktop\TwoWireDevice_Hou\source\config.c" 1
 292  0002  0F0B        	MOV A,50/4-1
 292  0003              ;# 292 "C:\Users\houlinfeng\Desktop\TwoWireDevice_Hou\source\config.c" 1
文件：config.c     编译器版本 HGASM 0202 页次4

 292  0003  2000     E  	CALL __DELAYX3 + 3 -(50 MOD 4)
 292  0004              	ENDIF
 292  0004              ;# 292 "C:\Users\houlinfeng\Desktop\TwoWireDevice_Hou\source\config.c" 1
 292  0004              	IF (50< 0x40B) AND (50> 0403h)
 292  0004              ;# 292 "C:\Users\houlinfeng\Desktop\TwoWireDevice_Hou\source\config.c" 1
 292  0004              	MOV A,0 
 292  0004              ;# 292 "C:\Users\houlinfeng\Desktop\TwoWireDevice_Hou\source\config.c" 1
 292  0004              	CALL __DELAYX6 + 0x40a -50
 292  0004              	ENDIF
 292  0004              ;# 292 "C:\Users\houlinfeng\Desktop\TwoWireDevice_Hou\source\config.c" 1
 292  0004              	IF (50 >= 0x40b) AND ((((50-9)%0402h)/4+1)>256)
 292  0004              ;# 292 "C:\Users\houlinfeng\Desktop\TwoWireDevice_Hou\source\config.c" 1
 292  0004              	MOV A,(50-9)/0402h
 292  0004              ;# 292 "C:\Users\houlinfeng\Desktop\TwoWireDevice_Hou\source\config.c" 1
 292  0004              	MOV _builtin_holtek_delay_2,A
 292  0004              ;# 292 "C:\Users\houlinfeng\Desktop\TwoWireDevice_Hou\source\config.c" 1
 292  0004              	MOV A,0
 292  0004              ;# 292 "C:\Users\houlinfeng\Desktop\TwoWireDevice_Hou\source\config.c" 1
 292  0004              	CALL __DELAYY5 +5- (((50-9)%0402h)%6)
 292  0004              	ENDIF
 292  0004              ;# 292 "C:\Users\houlinfeng\Desktop\TwoWireDevice_Hou\source\config.c" 1
 292  0004              	IF (50 >= 0x40b) AND ((((50-9)%0402h)/4+1)<=256)
 292  0004              ;# 292 "C:\Users\houlinfeng\Desktop\TwoWireDevice_Hou\source\config.c" 1
 292  0004              	MOV A,(50-9)/0402h
 292  0004              ;# 292 "C:\Users\houlinfeng\Desktop\TwoWireDevice_Hou\source\config.c" 1
 292  0004              	MOV _builtin_holtek_delay_2,A
 292  0004              ;# 292 "C:\Users\houlinfeng\Desktop\TwoWireDevice_Hou\source\config.c" 1
 292  0004              	MOV A,((50-9)%0402h)/4+1
 292  0004              ;# 292 "C:\Users\houlinfeng\Desktop\TwoWireDevice_Hou\source\config.c" 1
 292  0004              	CALL __DELAYY3 +3-(((50-9)%0402h)%4)
 292  0004              	ENDIF
 287  0004              #line 287 "C:\Users\houlinfeng\Desktop\TwoWireDevice_Hou\source\config.c"
 287  0004  1F00     E  	clr ra
 287  0005              _L4:
 295  0005              #line 295 "C:\Users\houlinfeng\Desktop\TwoWireDevice_Hou\source\config.c"
 295  0005  1836        	rla [54]
 295  0006  0E01        	and a,1
 295  0007  0080     E  	mov rc,a
 296  0008              #line 296 "C:\Users\houlinfeng\Desktop\TwoWireDevice_Hou\source\config.c"
 296  0008  14B7        	inc [55]
 297  0009              #line 297 "C:\Users\houlinfeng\Desktop\TwoWireDevice_Hou\source\config.c"
 297  0009  1480     E  	inc ra
 298  000A              #line 298 "C:\Users\houlinfeng\Desktop\TwoWireDevice_Hou\source\config.c"
 298  000A              ;# 298 "C:\Users\houlinfeng\Desktop\TwoWireDevice_Hou\source\config.c" 1
 298  000A              	IF 50>263690
 298  000A              ;# 298 "C:\Users\houlinfeng\Desktop\TwoWireDevice_Hou\source\config.c" 1
 298  000A              	ERRMESSAGE 'the value 50of the argument exceeds the maxinum 263690'
 298  000A              	ENDIF
 298  000A              ;# 298 "C:\Users\houlinfeng\Desktop\TwoWireDevice_Hou\source\config.c" 1
 298  000A              	IF 50<0
 298  000A              ;# 298 "C:\Users\houlinfeng\Desktop\TwoWireDevice_Hou\source\config.c" 1
 298  000A              	ERRMESSAGE 'the value 50 of the argument exceeds the mininum 0'
 298  000A              	ENDIF
 298  000A              ;# 298 "C:\Users\houlinfeng\Desktop\TwoWireDevice_Hou\source\config.c" 1
 298  000A              	IF 50==0
 298  000A              ;# 298 "C:\Users\houlinfeng\Desktop\TwoWireDevice_Hou\source\config.c" 1
 298  000A              	JMP $
 298  000A              	ENDIF
 298  000A              ;# 298 "C:\Users\houlinfeng\Desktop\TwoWireDevice_Hou\source\config.c" 1
 298  000A              	IF 50==1
文件：config.c     编译器版本 HGASM 0202 页次5

 298  000A              ;# 298 "C:\Users\houlinfeng\Desktop\TwoWireDevice_Hou\source\config.c" 1
 298  000A              	NOP
 298  000A              	ENDIF
 298  000A              ;# 298 "C:\Users\houlinfeng\Desktop\TwoWireDevice_Hou\source\config.c" 1
 298  000A              	IF 50==2
 298  000A              ;# 298 "C:\Users\houlinfeng\Desktop\TwoWireDevice_Hou\source\config.c" 1
 298  000A              	NOP
 298  000A              ;# 298 "C:\Users\houlinfeng\Desktop\TwoWireDevice_Hou\source\config.c" 1
 298  000A              	NOP
 298  000A              	ENDIF
 298  000A              ;# 298 "C:\Users\houlinfeng\Desktop\TwoWireDevice_Hou\source\config.c" 1
 298  000A              	IF 50==3
 298  000A              ;# 298 "C:\Users\houlinfeng\Desktop\TwoWireDevice_Hou\source\config.c" 1
 298  000A              	NOP
 298  000A              ;# 298 "C:\Users\houlinfeng\Desktop\TwoWireDevice_Hou\source\config.c" 1
 298  000A              	NOP
 298  000A              ;# 298 "C:\Users\houlinfeng\Desktop\TwoWireDevice_Hou\source\config.c" 1
 298  000A              	NOP
 298  000A              	ENDIF
 298  000A              ;# 298 "C:\Users\houlinfeng\Desktop\TwoWireDevice_Hou\source\config.c" 1
 298  000A              	IF (50<8) AND (50>3)
 298  000A              ;# 298 "C:\Users\houlinfeng\Desktop\TwoWireDevice_Hou\source\config.c" 1
 298  000A              	CALL __DELAY3 + 7 -50
 298  000A              	ENDIF
 298  000A              ;# 298 "C:\Users\houlinfeng\Desktop\TwoWireDevice_Hou\source\config.c" 1
 298  000A              	IF (50< 0404h) AND (50>7)
 298  000A              ;# 298 "C:\Users\houlinfeng\Desktop\TwoWireDevice_Hou\source\config.c" 1
 298  000A  0F0B        	MOV A,50/4-1
 298  000B              ;# 298 "C:\Users\houlinfeng\Desktop\TwoWireDevice_Hou\source\config.c" 1
 298  000B  2000     E  	CALL __DELAYX3 + 3 -(50 MOD 4)
 298  000C              	ENDIF
 298  000C              ;# 298 "C:\Users\houlinfeng\Desktop\TwoWireDevice_Hou\source\config.c" 1
 298  000C              	IF (50< 0x40B) AND (50> 0403h)
 298  000C              ;# 298 "C:\Users\houlinfeng\Desktop\TwoWireDevice_Hou\source\config.c" 1
 298  000C              	MOV A,0 
 298  000C              ;# 298 "C:\Users\houlinfeng\Desktop\TwoWireDevice_Hou\source\config.c" 1
 298  000C              	CALL __DELAYX6 + 0x40a -50
 298  000C              	ENDIF
 298  000C              ;# 298 "C:\Users\houlinfeng\Desktop\TwoWireDevice_Hou\source\config.c" 1
 298  000C              	IF (50 >= 0x40b) AND ((((50-9)%0402h)/4+1)>256)
 298  000C              ;# 298 "C:\Users\houlinfeng\Desktop\TwoWireDevice_Hou\source\config.c" 1
 298  000C              	MOV A,(50-9)/0402h
 298  000C              ;# 298 "C:\Users\houlinfeng\Desktop\TwoWireDevice_Hou\source\config.c" 1
 298  000C              	MOV _builtin_holtek_delay_2,A
 298  000C              ;# 298 "C:\Users\houlinfeng\Desktop\TwoWireDevice_Hou\source\config.c" 1
 298  000C              	MOV A,0
 298  000C              ;# 298 "C:\Users\houlinfeng\Desktop\TwoWireDevice_Hou\source\config.c" 1
 298  000C              	CALL __DELAYY5 +5- (((50-9)%0402h)%6)
 298  000C              	ENDIF
 298  000C              ;# 298 "C:\Users\houlinfeng\Desktop\TwoWireDevice_Hou\source\config.c" 1
 298  000C              	IF (50 >= 0x40b) AND ((((50-9)%0402h)/4+1)<=256)
 298  000C              ;# 298 "C:\Users\houlinfeng\Desktop\TwoWireDevice_Hou\source\config.c" 1
 298  000C              	MOV A,(50-9)/0402h
 298  000C              ;# 298 "C:\Users\houlinfeng\Desktop\TwoWireDevice_Hou\source\config.c" 1
 298  000C              	MOV _builtin_holtek_delay_2,A
 298  000C              ;# 298 "C:\Users\houlinfeng\Desktop\TwoWireDevice_Hou\source\config.c" 1
 298  000C              	MOV A,((50-9)%0402h)/4+1
 298  000C              ;# 298 "C:\Users\houlinfeng\Desktop\TwoWireDevice_Hou\source\config.c" 1
 298  000C              	CALL __DELAYY3 +3-(((50-9)%0402h)%4)
 298  000C              	ENDIF
文件：config.c     编译器版本 HGASM 0202 页次6

 299  000C              #line 299 "C:\Users\houlinfeng\Desktop\TwoWireDevice_Hou\source\config.c"
 299  000C  1836        	rla [54]
 299  000D  0E01        	and a,1
 299  000E  0080     E  	mov rb,a
 300  000F              #line 300 "C:\Users\houlinfeng\Desktop\TwoWireDevice_Hou\source\config.c"
 300  000F  0700     E  	mov a,rc
 300  0010  0200     E  	sub a,rb
 300  0011  390A        	snz z
 300  0012  2800     R  	jmp _L3
 293  0013              #line 293 "C:\Users\houlinfeng\Desktop\TwoWireDevice_Hou\source\config.c"
 293  0013  0700     E  	mov a,ra
 293  0014  0A1F        	sub a,31
 293  0015  390A        	snz z
 293  0016  2800     R  	jmp _L4
 293  0017              _L3:
 306  0017              #line 306 "C:\Users\houlinfeng\Desktop\TwoWireDevice_Hou\source\config.c"
 306  0017  0F7F        	mov a,127
 306  0018  00B7        	mov [55],a
 307  0019              #line 307 "C:\Users\houlinfeng\Desktop\TwoWireDevice_Hou\source\config.c"
 307  0019              ;# 307 "C:\Users\houlinfeng\Desktop\TwoWireDevice_Hou\source\config.c" 1
 307  0019              	IF 50>263690
 307  0019              ;# 307 "C:\Users\houlinfeng\Desktop\TwoWireDevice_Hou\source\config.c" 1
 307  0019              	ERRMESSAGE 'the value 50of the argument exceeds the maxinum 263690'
 307  0019              	ENDIF
 307  0019              ;# 307 "C:\Users\houlinfeng\Desktop\TwoWireDevice_Hou\source\config.c" 1
 307  0019              	IF 50<0
 307  0019              ;# 307 "C:\Users\houlinfeng\Desktop\TwoWireDevice_Hou\source\config.c" 1
 307  0019              	ERRMESSAGE 'the value 50 of the argument exceeds the mininum 0'
 307  0019              	ENDIF
 307  0019              ;# 307 "C:\Users\houlinfeng\Desktop\TwoWireDevice_Hou\source\config.c" 1
 307  0019              	IF 50==0
 307  0019              ;# 307 "C:\Users\houlinfeng\Desktop\TwoWireDevice_Hou\source\config.c" 1
 307  0019              	JMP $
 307  0019              	ENDIF
 307  0019              ;# 307 "C:\Users\houlinfeng\Desktop\TwoWireDevice_Hou\source\config.c" 1
 307  0019              	IF 50==1
 307  0019              ;# 307 "C:\Users\houlinfeng\Desktop\TwoWireDevice_Hou\source\config.c" 1
 307  0019              	NOP
 307  0019              	ENDIF
 307  0019              ;# 307 "C:\Users\houlinfeng\Desktop\TwoWireDevice_Hou\source\config.c" 1
 307  0019              	IF 50==2
 307  0019              ;# 307 "C:\Users\houlinfeng\Desktop\TwoWireDevice_Hou\source\config.c" 1
 307  0019              	NOP
 307  0019              ;# 307 "C:\Users\houlinfeng\Desktop\TwoWireDevice_Hou\source\config.c" 1
 307  0019              	NOP
 307  0019              	ENDIF
 307  0019              ;# 307 "C:\Users\houlinfeng\Desktop\TwoWireDevice_Hou\source\config.c" 1
 307  0019              	IF 50==3
 307  0019              ;# 307 "C:\Users\houlinfeng\Desktop\TwoWireDevice_Hou\source\config.c" 1
 307  0019              	NOP
 307  0019              ;# 307 "C:\Users\houlinfeng\Desktop\TwoWireDevice_Hou\source\config.c" 1
 307  0019              	NOP
 307  0019              ;# 307 "C:\Users\houlinfeng\Desktop\TwoWireDevice_Hou\source\config.c" 1
 307  0019              	NOP
 307  0019              	ENDIF
 307  0019              ;# 307 "C:\Users\houlinfeng\Desktop\TwoWireDevice_Hou\source\config.c" 1
 307  0019              	IF (50<8) AND (50>3)
 307  0019              ;# 307 "C:\Users\houlinfeng\Desktop\TwoWireDevice_Hou\source\config.c" 1
 307  0019              	CALL __DELAY3 + 7 -50
 307  0019              	ENDIF
文件：config.c     编译器版本 HGASM 0202 页次7

 307  0019              ;# 307 "C:\Users\houlinfeng\Desktop\TwoWireDevice_Hou\source\config.c" 1
 307  0019              	IF (50< 0404h) AND (50>7)
 307  0019              ;# 307 "C:\Users\houlinfeng\Desktop\TwoWireDevice_Hou\source\config.c" 1
 307  0019  0F0B        	MOV A,50/4-1
 307  001A              ;# 307 "C:\Users\houlinfeng\Desktop\TwoWireDevice_Hou\source\config.c" 1
 307  001A  2000     E  	CALL __DELAYX3 + 3 -(50 MOD 4)
 307  001B              	ENDIF
 307  001B              ;# 307 "C:\Users\houlinfeng\Desktop\TwoWireDevice_Hou\source\config.c" 1
 307  001B              	IF (50< 0x40B) AND (50> 0403h)
 307  001B              ;# 307 "C:\Users\houlinfeng\Desktop\TwoWireDevice_Hou\source\config.c" 1
 307  001B              	MOV A,0 
 307  001B              ;# 307 "C:\Users\houlinfeng\Desktop\TwoWireDevice_Hou\source\config.c" 1
 307  001B              	CALL __DELAYX6 + 0x40a -50
 307  001B              	ENDIF
 307  001B              ;# 307 "C:\Users\houlinfeng\Desktop\TwoWireDevice_Hou\source\config.c" 1
 307  001B              	IF (50 >= 0x40b) AND ((((50-9)%0402h)/4+1)>256)
 307  001B              ;# 307 "C:\Users\houlinfeng\Desktop\TwoWireDevice_Hou\source\config.c" 1
 307  001B              	MOV A,(50-9)/0402h
 307  001B              ;# 307 "C:\Users\houlinfeng\Desktop\TwoWireDevice_Hou\source\config.c" 1
 307  001B              	MOV _builtin_holtek_delay_2,A
 307  001B              ;# 307 "C:\Users\houlinfeng\Desktop\TwoWireDevice_Hou\source\config.c" 1
 307  001B              	MOV A,0
 307  001B              ;# 307 "C:\Users\houlinfeng\Desktop\TwoWireDevice_Hou\source\config.c" 1
 307  001B              	CALL __DELAYY5 +5- (((50-9)%0402h)%6)
 307  001B              	ENDIF
 307  001B              ;# 307 "C:\Users\houlinfeng\Desktop\TwoWireDevice_Hou\source\config.c" 1
 307  001B              	IF (50 >= 0x40b) AND ((((50-9)%0402h)/4+1)<=256)
 307  001B              ;# 307 "C:\Users\houlinfeng\Desktop\TwoWireDevice_Hou\source\config.c" 1
 307  001B              	MOV A,(50-9)/0402h
 307  001B              ;# 307 "C:\Users\houlinfeng\Desktop\TwoWireDevice_Hou\source\config.c" 1
 307  001B              	MOV _builtin_holtek_delay_2,A
 307  001B              ;# 307 "C:\Users\houlinfeng\Desktop\TwoWireDevice_Hou\source\config.c" 1
 307  001B              	MOV A,((50-9)%0402h)/4+1
 307  001B              ;# 307 "C:\Users\houlinfeng\Desktop\TwoWireDevice_Hou\source\config.c" 1
 307  001B              	CALL __DELAYY3 +3-(((50-9)%0402h)%4)
 307  001B              	ENDIF
 287  001B              #line 287 "C:\Users\houlinfeng\Desktop\TwoWireDevice_Hou\source\config.c"
 287  001B  1F00     E  	clr rb
 287  001C              _L6:
 310  001C              #line 310 "C:\Users\houlinfeng\Desktop\TwoWireDevice_Hou\source\config.c"
 310  001C  1836        	rla [54]
 310  001D  0E01        	and a,1
 310  001E  0080     E  	mov rd,a
 311  001F              #line 311 "C:\Users\houlinfeng\Desktop\TwoWireDevice_Hou\source\config.c"
 311  001F  15B7        	dec [55]
 312  0020              #line 312 "C:\Users\houlinfeng\Desktop\TwoWireDevice_Hou\source\config.c"
 312  0020  1480     E  	inc rb
 313  0021              #line 313 "C:\Users\houlinfeng\Desktop\TwoWireDevice_Hou\source\config.c"
 313  0021              ;# 313 "C:\Users\houlinfeng\Desktop\TwoWireDevice_Hou\source\config.c" 1
 313  0021              	IF 50>263690
 313  0021              ;# 313 "C:\Users\houlinfeng\Desktop\TwoWireDevice_Hou\source\config.c" 1
 313  0021              	ERRMESSAGE 'the value 50of the argument exceeds the maxinum 263690'
 313  0021              	ENDIF
 313  0021              ;# 313 "C:\Users\houlinfeng\Desktop\TwoWireDevice_Hou\source\config.c" 1
 313  0021              	IF 50<0
 313  0021              ;# 313 "C:\Users\houlinfeng\Desktop\TwoWireDevice_Hou\source\config.c" 1
 313  0021              	ERRMESSAGE 'the value 50 of the argument exceeds the mininum 0'
 313  0021              	ENDIF
 313  0021              ;# 313 "C:\Users\houlinfeng\Desktop\TwoWireDevice_Hou\source\config.c" 1
 313  0021              	IF 50==0
文件：config.c     编译器版本 HGASM 0202 页次8

 313  0021              ;# 313 "C:\Users\houlinfeng\Desktop\TwoWireDevice_Hou\source\config.c" 1
 313  0021              	JMP $
 313  0021              	ENDIF
 313  0021              ;# 313 "C:\Users\houlinfeng\Desktop\TwoWireDevice_Hou\source\config.c" 1
 313  0021              	IF 50==1
 313  0021              ;# 313 "C:\Users\houlinfeng\Desktop\TwoWireDevice_Hou\source\config.c" 1
 313  0021              	NOP
 313  0021              	ENDIF
 313  0021              ;# 313 "C:\Users\houlinfeng\Desktop\TwoWireDevice_Hou\source\config.c" 1
 313  0021              	IF 50==2
 313  0021              ;# 313 "C:\Users\houlinfeng\Desktop\TwoWireDevice_Hou\source\config.c" 1
 313  0021              	NOP
 313  0021              ;# 313 "C:\Users\houlinfeng\Desktop\TwoWireDevice_Hou\source\config.c" 1
 313  0021              	NOP
 313  0021              	ENDIF
 313  0021              ;# 313 "C:\Users\houlinfeng\Desktop\TwoWireDevice_Hou\source\config.c" 1
 313  0021              	IF 50==3
 313  0021              ;# 313 "C:\Users\houlinfeng\Desktop\TwoWireDevice_Hou\source\config.c" 1
 313  0021              	NOP
 313  0021              ;# 313 "C:\Users\houlinfeng\Desktop\TwoWireDevice_Hou\source\config.c" 1
 313  0021              	NOP
 313  0021              ;# 313 "C:\Users\houlinfeng\Desktop\TwoWireDevice_Hou\source\config.c" 1
 313  0021              	NOP
 313  0021              	ENDIF
 313  0021              ;# 313 "C:\Users\houlinfeng\Desktop\TwoWireDevice_Hou\source\config.c" 1
 313  0021              	IF (50<8) AND (50>3)
 313  0021              ;# 313 "C:\Users\houlinfeng\Desktop\TwoWireDevice_Hou\source\config.c" 1
 313  0021              	CALL __DELAY3 + 7 -50
 313  0021              	ENDIF
 313  0021              ;# 313 "C:\Users\houlinfeng\Desktop\TwoWireDevice_Hou\source\config.c" 1
 313  0021              	IF (50< 0404h) AND (50>7)
 313  0021              ;# 313 "C:\Users\houlinfeng\Desktop\TwoWireDevice_Hou\source\config.c" 1
 313  0021  0F0B        	MOV A,50/4-1
 313  0022              ;# 313 "C:\Users\houlinfeng\Desktop\TwoWireDevice_Hou\source\config.c" 1
 313  0022  2000     E  	CALL __DELAYX3 + 3 -(50 MOD 4)
 313  0023              	ENDIF
 313  0023              ;# 313 "C:\Users\houlinfeng\Desktop\TwoWireDevice_Hou\source\config.c" 1
 313  0023              	IF (50< 0x40B) AND (50> 0403h)
 313  0023              ;# 313 "C:\Users\houlinfeng\Desktop\TwoWireDevice_Hou\source\config.c" 1
 313  0023              	MOV A,0 
 313  0023              ;# 313 "C:\Users\houlinfeng\Desktop\TwoWireDevice_Hou\source\config.c" 1
 313  0023              	CALL __DELAYX6 + 0x40a -50
 313  0023              	ENDIF
 313  0023              ;# 313 "C:\Users\houlinfeng\Desktop\TwoWireDevice_Hou\source\config.c" 1
 313  0023              	IF (50 >= 0x40b) AND ((((50-9)%0402h)/4+1)>256)
 313  0023              ;# 313 "C:\Users\houlinfeng\Desktop\TwoWireDevice_Hou\source\config.c" 1
 313  0023              	MOV A,(50-9)/0402h
 313  0023              ;# 313 "C:\Users\houlinfeng\Desktop\TwoWireDevice_Hou\source\config.c" 1
 313  0023              	MOV _builtin_holtek_delay_2,A
 313  0023              ;# 313 "C:\Users\houlinfeng\Desktop\TwoWireDevice_Hou\source\config.c" 1
 313  0023              	MOV A,0
 313  0023              ;# 313 "C:\Users\houlinfeng\Desktop\TwoWireDevice_Hou\source\config.c" 1
 313  0023              	CALL __DELAYY5 +5- (((50-9)%0402h)%6)
 313  0023              	ENDIF
 313  0023              ;# 313 "C:\Users\houlinfeng\Desktop\TwoWireDevice_Hou\source\config.c" 1
 313  0023              	IF (50 >= 0x40b) AND ((((50-9)%0402h)/4+1)<=256)
 313  0023              ;# 313 "C:\Users\houlinfeng\Desktop\TwoWireDevice_Hou\source\config.c" 1
 313  0023              	MOV A,(50-9)/0402h
 313  0023              ;# 313 "C:\Users\houlinfeng\Desktop\TwoWireDevice_Hou\source\config.c" 1
 313  0023              	MOV _builtin_holtek_delay_2,A
文件：config.c     编译器版本 HGASM 0202 页次9

 313  0023              ;# 313 "C:\Users\houlinfeng\Desktop\TwoWireDevice_Hou\source\config.c" 1
 313  0023              	MOV A,((50-9)%0402h)/4+1
 313  0023              ;# 313 "C:\Users\houlinfeng\Desktop\TwoWireDevice_Hou\source\config.c" 1
 313  0023              	CALL __DELAYY3 +3-(((50-9)%0402h)%4)
 313  0023              	ENDIF
 314  0023              #line 314 "C:\Users\houlinfeng\Desktop\TwoWireDevice_Hou\source\config.c"
 314  0023  1836        	rla [54]
 314  0024  0E01        	and a,1
 314  0025  0080     E  	mov rc,a
 315  0026              #line 315 "C:\Users\houlinfeng\Desktop\TwoWireDevice_Hou\source\config.c"
 315  0026  0700     E  	mov a,rd
 315  0027  0200     E  	sub a,rc
 315  0028  390A        	snz z
 315  0029  2800     R  	jmp _L5
 308  002A              #line 308 "C:\Users\houlinfeng\Desktop\TwoWireDevice_Hou\source\config.c"
 308  002A  0700     E  	mov a,rb
 308  002B  0A1F        	sub a,31
 308  002C  390A        	snz z
 308  002D  2800     R  	jmp _L6
 308  002E              _L5:
 320  002E              #line 320 "C:\Users\houlinfeng\Desktop\TwoWireDevice_Hou\source\config.c"
 320  002E  0F1F        	mov a,31
 320  002F  0280     E  	subm a,rb
 322  0030              #line 322 "C:\Users\houlinfeng\Desktop\TwoWireDevice_Hou\source\config.c"
 322  0030  0700     E  	mov a,rb
 322  0031  0380     E  	addm a,ra
 322  0032  1B80     E  	rrc ra
 323  0033              #line 323 "C:\Users\houlinfeng\Desktop\TwoWireDevice_Hou\source\config.c"
 323  0033  0700     E  	mov a,ra
 323  0034  00B7        	mov [55],a
 331  0035              #line 331 "C:\Users\houlinfeng\Desktop\TwoWireDevice_Hou\source\config.c"
 331  0035  0F60        	mov a,96
 331  0036  00B9        	mov [57],a
 332  0037              #line 332 "C:\Users\houlinfeng\Desktop\TwoWireDevice_Hou\source\config.c"
 332  0037              ;# 332 "C:\Users\houlinfeng\Desktop\TwoWireDevice_Hou\source\config.c" 1
 332  0037              	IF 50>263690
 332  0037              ;# 332 "C:\Users\houlinfeng\Desktop\TwoWireDevice_Hou\source\config.c" 1
 332  0037              	ERRMESSAGE 'the value 50of the argument exceeds the maxinum 263690'
 332  0037              	ENDIF
 332  0037              ;# 332 "C:\Users\houlinfeng\Desktop\TwoWireDevice_Hou\source\config.c" 1
 332  0037              	IF 50<0
 332  0037              ;# 332 "C:\Users\houlinfeng\Desktop\TwoWireDevice_Hou\source\config.c" 1
 332  0037              	ERRMESSAGE 'the value 50 of the argument exceeds the mininum 0'
 332  0037              	ENDIF
 332  0037              ;# 332 "C:\Users\houlinfeng\Desktop\TwoWireDevice_Hou\source\config.c" 1
 332  0037              	IF 50==0
 332  0037              ;# 332 "C:\Users\houlinfeng\Desktop\TwoWireDevice_Hou\source\config.c" 1
 332  0037              	JMP $
 332  0037              	ENDIF
 332  0037              ;# 332 "C:\Users\houlinfeng\Desktop\TwoWireDevice_Hou\source\config.c" 1
 332  0037              	IF 50==1
 332  0037              ;# 332 "C:\Users\houlinfeng\Desktop\TwoWireDevice_Hou\source\config.c" 1
 332  0037              	NOP
 332  0037              	ENDIF
 332  0037              ;# 332 "C:\Users\houlinfeng\Desktop\TwoWireDevice_Hou\source\config.c" 1
 332  0037              	IF 50==2
 332  0037              ;# 332 "C:\Users\houlinfeng\Desktop\TwoWireDevice_Hou\source\config.c" 1
 332  0037              	NOP
 332  0037              ;# 332 "C:\Users\houlinfeng\Desktop\TwoWireDevice_Hou\source\config.c" 1
 332  0037              	NOP
文件：config.c     编译器版本 HGASM 0202 页次10

 332  0037              	ENDIF
 332  0037              ;# 332 "C:\Users\houlinfeng\Desktop\TwoWireDevice_Hou\source\config.c" 1
 332  0037              	IF 50==3
 332  0037              ;# 332 "C:\Users\houlinfeng\Desktop\TwoWireDevice_Hou\source\config.c" 1
 332  0037              	NOP
 332  0037              ;# 332 "C:\Users\houlinfeng\Desktop\TwoWireDevice_Hou\source\config.c" 1
 332  0037              	NOP
 332  0037              ;# 332 "C:\Users\houlinfeng\Desktop\TwoWireDevice_Hou\source\config.c" 1
 332  0037              	NOP
 332  0037              	ENDIF
 332  0037              ;# 332 "C:\Users\houlinfeng\Desktop\TwoWireDevice_Hou\source\config.c" 1
 332  0037              	IF (50<8) AND (50>3)
 332  0037              ;# 332 "C:\Users\houlinfeng\Desktop\TwoWireDevice_Hou\source\config.c" 1
 332  0037              	CALL __DELAY3 + 7 -50
 332  0037              	ENDIF
 332  0037              ;# 332 "C:\Users\houlinfeng\Desktop\TwoWireDevice_Hou\source\config.c" 1
 332  0037              	IF (50< 0404h) AND (50>7)
 332  0037              ;# 332 "C:\Users\houlinfeng\Desktop\TwoWireDevice_Hou\source\config.c" 1
 332  0037  0F0B        	MOV A,50/4-1
 332  0038              ;# 332 "C:\Users\houlinfeng\Desktop\TwoWireDevice_Hou\source\config.c" 1
 332  0038  2000     E  	CALL __DELAYX3 + 3 -(50 MOD 4)
 332  0039              	ENDIF
 332  0039              ;# 332 "C:\Users\houlinfeng\Desktop\TwoWireDevice_Hou\source\config.c" 1
 332  0039              	IF (50< 0x40B) AND (50> 0403h)
 332  0039              ;# 332 "C:\Users\houlinfeng\Desktop\TwoWireDevice_Hou\source\config.c" 1
 332  0039              	MOV A,0 
 332  0039              ;# 332 "C:\Users\houlinfeng\Desktop\TwoWireDevice_Hou\source\config.c" 1
 332  0039              	CALL __DELAYX6 + 0x40a -50
 332  0039              	ENDIF
 332  0039              ;# 332 "C:\Users\houlinfeng\Desktop\TwoWireDevice_Hou\source\config.c" 1
 332  0039              	IF (50 >= 0x40b) AND ((((50-9)%0402h)/4+1)>256)
 332  0039              ;# 332 "C:\Users\houlinfeng\Desktop\TwoWireDevice_Hou\source\config.c" 1
 332  0039              	MOV A,(50-9)/0402h
 332  0039              ;# 332 "C:\Users\houlinfeng\Desktop\TwoWireDevice_Hou\source\config.c" 1
 332  0039              	MOV _builtin_holtek_delay_2,A
 332  0039              ;# 332 "C:\Users\houlinfeng\Desktop\TwoWireDevice_Hou\source\config.c" 1
 332  0039              	MOV A,0
 332  0039              ;# 332 "C:\Users\houlinfeng\Desktop\TwoWireDevice_Hou\source\config.c" 1
 332  0039              	CALL __DELAYY5 +5- (((50-9)%0402h)%6)
 332  0039              	ENDIF
 332  0039              ;# 332 "C:\Users\houlinfeng\Desktop\TwoWireDevice_Hou\source\config.c" 1
 332  0039              	IF (50 >= 0x40b) AND ((((50-9)%0402h)/4+1)<=256)
 332  0039              ;# 332 "C:\Users\houlinfeng\Desktop\TwoWireDevice_Hou\source\config.c" 1
 332  0039              	MOV A,(50-9)/0402h
 332  0039              ;# 332 "C:\Users\houlinfeng\Desktop\TwoWireDevice_Hou\source\config.c" 1
 332  0039              	MOV _builtin_holtek_delay_2,A
 332  0039              ;# 332 "C:\Users\houlinfeng\Desktop\TwoWireDevice_Hou\source\config.c" 1
 332  0039              	MOV A,((50-9)%0402h)/4+1
 332  0039              ;# 332 "C:\Users\houlinfeng\Desktop\TwoWireDevice_Hou\source\config.c" 1
 332  0039              	CALL __DELAYY3 +3-(((50-9)%0402h)%4)
 332  0039              	ENDIF
 326  0039              #line 326 "C:\Users\houlinfeng\Desktop\TwoWireDevice_Hou\source\config.c"
 326  0039  1F00     E  	clr ra
 326  003A              _L8:
 335  003A              #line 335 "C:\Users\houlinfeng\Desktop\TwoWireDevice_Hou\source\config.c"
 335  003A  1838        	rla [56]
 335  003B  0E01        	and a,1
 335  003C  0080     E  	mov rc,a
 336  003D              #line 336 "C:\Users\houlinfeng\Desktop\TwoWireDevice_Hou\source\config.c"
 336  003D  14B9        	inc [57]
文件：config.c     编译器版本 HGASM 0202 页次11

 337  003E              #line 337 "C:\Users\houlinfeng\Desktop\TwoWireDevice_Hou\source\config.c"
 337  003E  1480     E  	inc ra
 338  003F              #line 338 "C:\Users\houlinfeng\Desktop\TwoWireDevice_Hou\source\config.c"
 338  003F              ;# 338 "C:\Users\houlinfeng\Desktop\TwoWireDevice_Hou\source\config.c" 1
 338  003F              	IF 50>263690
 338  003F              ;# 338 "C:\Users\houlinfeng\Desktop\TwoWireDevice_Hou\source\config.c" 1
 338  003F              	ERRMESSAGE 'the value 50of the argument exceeds the maxinum 263690'
 338  003F              	ENDIF
 338  003F              ;# 338 "C:\Users\houlinfeng\Desktop\TwoWireDevice_Hou\source\config.c" 1
 338  003F              	IF 50<0
 338  003F              ;# 338 "C:\Users\houlinfeng\Desktop\TwoWireDevice_Hou\source\config.c" 1
 338  003F              	ERRMESSAGE 'the value 50 of the argument exceeds the mininum 0'
 338  003F              	ENDIF
 338  003F              ;# 338 "C:\Users\houlinfeng\Desktop\TwoWireDevice_Hou\source\config.c" 1
 338  003F              	IF 50==0
 338  003F              ;# 338 "C:\Users\houlinfeng\Desktop\TwoWireDevice_Hou\source\config.c" 1
 338  003F              	JMP $
 338  003F              	ENDIF
 338  003F              ;# 338 "C:\Users\houlinfeng\Desktop\TwoWireDevice_Hou\source\config.c" 1
 338  003F              	IF 50==1
 338  003F              ;# 338 "C:\Users\houlinfeng\Desktop\TwoWireDevice_Hou\source\config.c" 1
 338  003F              	NOP
 338  003F              	ENDIF
 338  003F              ;# 338 "C:\Users\houlinfeng\Desktop\TwoWireDevice_Hou\source\config.c" 1
 338  003F              	IF 50==2
 338  003F              ;# 338 "C:\Users\houlinfeng\Desktop\TwoWireDevice_Hou\source\config.c" 1
 338  003F              	NOP
 338  003F              ;# 338 "C:\Users\houlinfeng\Desktop\TwoWireDevice_Hou\source\config.c" 1
 338  003F              	NOP
 338  003F              	ENDIF
 338  003F              ;# 338 "C:\Users\houlinfeng\Desktop\TwoWireDevice_Hou\source\config.c" 1
 338  003F              	IF 50==3
 338  003F              ;# 338 "C:\Users\houlinfeng\Desktop\TwoWireDevice_Hou\source\config.c" 1
 338  003F              	NOP
 338  003F              ;# 338 "C:\Users\houlinfeng\Desktop\TwoWireDevice_Hou\source\config.c" 1
 338  003F              	NOP
 338  003F              ;# 338 "C:\Users\houlinfeng\Desktop\TwoWireDevice_Hou\source\config.c" 1
 338  003F              	NOP
 338  003F              	ENDIF
 338  003F              ;# 338 "C:\Users\houlinfeng\Desktop\TwoWireDevice_Hou\source\config.c" 1
 338  003F              	IF (50<8) AND (50>3)
 338  003F              ;# 338 "C:\Users\houlinfeng\Desktop\TwoWireDevice_Hou\source\config.c" 1
 338  003F              	CALL __DELAY3 + 7 -50
 338  003F              	ENDIF
 338  003F              ;# 338 "C:\Users\houlinfeng\Desktop\TwoWireDevice_Hou\source\config.c" 1
 338  003F              	IF (50< 0404h) AND (50>7)
 338  003F              ;# 338 "C:\Users\houlinfeng\Desktop\TwoWireDevice_Hou\source\config.c" 1
 338  003F  0F0B        	MOV A,50/4-1
 338  0040              ;# 338 "C:\Users\houlinfeng\Desktop\TwoWireDevice_Hou\source\config.c" 1
 338  0040  2000     E  	CALL __DELAYX3 + 3 -(50 MOD 4)
 338  0041              	ENDIF
 338  0041              ;# 338 "C:\Users\houlinfeng\Desktop\TwoWireDevice_Hou\source\config.c" 1
 338  0041              	IF (50< 0x40B) AND (50> 0403h)
 338  0041              ;# 338 "C:\Users\houlinfeng\Desktop\TwoWireDevice_Hou\source\config.c" 1
 338  0041              	MOV A,0 
 338  0041              ;# 338 "C:\Users\houlinfeng\Desktop\TwoWireDevice_Hou\source\config.c" 1
 338  0041              	CALL __DELAYX6 + 0x40a -50
 338  0041              	ENDIF
 338  0041              ;# 338 "C:\Users\houlinfeng\Desktop\TwoWireDevice_Hou\source\config.c" 1
 338  0041              	IF (50 >= 0x40b) AND ((((50-9)%0402h)/4+1)>256)
文件：config.c     编译器版本 HGASM 0202 页次12

 338  0041              ;# 338 "C:\Users\houlinfeng\Desktop\TwoWireDevice_Hou\source\config.c" 1
 338  0041              	MOV A,(50-9)/0402h
 338  0041              ;# 338 "C:\Users\houlinfeng\Desktop\TwoWireDevice_Hou\source\config.c" 1
 338  0041              	MOV _builtin_holtek_delay_2,A
 338  0041              ;# 338 "C:\Users\houlinfeng\Desktop\TwoWireDevice_Hou\source\config.c" 1
 338  0041              	MOV A,0
 338  0041              ;# 338 "C:\Users\houlinfeng\Desktop\TwoWireDevice_Hou\source\config.c" 1
 338  0041              	CALL __DELAYY5 +5- (((50-9)%0402h)%6)
 338  0041              	ENDIF
 338  0041              ;# 338 "C:\Users\houlinfeng\Desktop\TwoWireDevice_Hou\source\config.c" 1
 338  0041              	IF (50 >= 0x40b) AND ((((50-9)%0402h)/4+1)<=256)
 338  0041              ;# 338 "C:\Users\houlinfeng\Desktop\TwoWireDevice_Hou\source\config.c" 1
 338  0041              	MOV A,(50-9)/0402h
 338  0041              ;# 338 "C:\Users\houlinfeng\Desktop\TwoWireDevice_Hou\source\config.c" 1
 338  0041              	MOV _builtin_holtek_delay_2,A
 338  0041              ;# 338 "C:\Users\houlinfeng\Desktop\TwoWireDevice_Hou\source\config.c" 1
 338  0041              	MOV A,((50-9)%0402h)/4+1
 338  0041              ;# 338 "C:\Users\houlinfeng\Desktop\TwoWireDevice_Hou\source\config.c" 1
 338  0041              	CALL __DELAYY3 +3-(((50-9)%0402h)%4)
 338  0041              	ENDIF
 339  0041              #line 339 "C:\Users\houlinfeng\Desktop\TwoWireDevice_Hou\source\config.c"
 339  0041  1838        	rla [56]
 339  0042  0E01        	and a,1
 339  0043  0080     E  	mov rb,a
 340  0044              #line 340 "C:\Users\houlinfeng\Desktop\TwoWireDevice_Hou\source\config.c"
 340  0044  0700     E  	mov a,rc
 340  0045  0200     E  	sub a,rb
 340  0046  390A        	snz z
 340  0047  2800     R  	jmp _L7
 333  0048              #line 333 "C:\Users\houlinfeng\Desktop\TwoWireDevice_Hou\source\config.c"
 333  0048  0700     E  	mov a,ra
 333  0049  0A1F        	sub a,31
 333  004A  390A        	snz z
 333  004B  2800     R  	jmp _L8
 333  004C              _L7:
 346  004C              #line 346 "C:\Users\houlinfeng\Desktop\TwoWireDevice_Hou\source\config.c"
 346  004C  0F7F        	mov a,127
 346  004D  00B9        	mov [57],a
 347  004E              #line 347 "C:\Users\houlinfeng\Desktop\TwoWireDevice_Hou\source\config.c"
 347  004E              ;# 347 "C:\Users\houlinfeng\Desktop\TwoWireDevice_Hou\source\config.c" 1
 347  004E              	IF 50>263690
 347  004E              ;# 347 "C:\Users\houlinfeng\Desktop\TwoWireDevice_Hou\source\config.c" 1
 347  004E              	ERRMESSAGE 'the value 50of the argument exceeds the maxinum 263690'
 347  004E              	ENDIF
 347  004E              ;# 347 "C:\Users\houlinfeng\Desktop\TwoWireDevice_Hou\source\config.c" 1
 347  004E              	IF 50<0
 347  004E              ;# 347 "C:\Users\houlinfeng\Desktop\TwoWireDevice_Hou\source\config.c" 1
 347  004E              	ERRMESSAGE 'the value 50 of the argument exceeds the mininum 0'
 347  004E              	ENDIF
 347  004E              ;# 347 "C:\Users\houlinfeng\Desktop\TwoWireDevice_Hou\source\config.c" 1
 347  004E              	IF 50==0
 347  004E              ;# 347 "C:\Users\houlinfeng\Desktop\TwoWireDevice_Hou\source\config.c" 1
 347  004E              	JMP $
 347  004E              	ENDIF
 347  004E              ;# 347 "C:\Users\houlinfeng\Desktop\TwoWireDevice_Hou\source\config.c" 1
 347  004E              	IF 50==1
 347  004E              ;# 347 "C:\Users\houlinfeng\Desktop\TwoWireDevice_Hou\source\config.c" 1
 347  004E              	NOP
 347  004E              	ENDIF
 347  004E              ;# 347 "C:\Users\houlinfeng\Desktop\TwoWireDevice_Hou\source\config.c" 1
文件：config.c     编译器版本 HGASM 0202 页次13

 347  004E              	IF 50==2
 347  004E              ;# 347 "C:\Users\houlinfeng\Desktop\TwoWireDevice_Hou\source\config.c" 1
 347  004E              	NOP
 347  004E              ;# 347 "C:\Users\houlinfeng\Desktop\TwoWireDevice_Hou\source\config.c" 1
 347  004E              	NOP
 347  004E              	ENDIF
 347  004E              ;# 347 "C:\Users\houlinfeng\Desktop\TwoWireDevice_Hou\source\config.c" 1
 347  004E              	IF 50==3
 347  004E              ;# 347 "C:\Users\houlinfeng\Desktop\TwoWireDevice_Hou\source\config.c" 1
 347  004E              	NOP
 347  004E              ;# 347 "C:\Users\houlinfeng\Desktop\TwoWireDevice_Hou\source\config.c" 1
 347  004E              	NOP
 347  004E              ;# 347 "C:\Users\houlinfeng\Desktop\TwoWireDevice_Hou\source\config.c" 1
 347  004E              	NOP
 347  004E              	ENDIF
 347  004E              ;# 347 "C:\Users\houlinfeng\Desktop\TwoWireDevice_Hou\source\config.c" 1
 347  004E              	IF (50<8) AND (50>3)
 347  004E              ;# 347 "C:\Users\houlinfeng\Desktop\TwoWireDevice_Hou\source\config.c" 1
 347  004E              	CALL __DELAY3 + 7 -50
 347  004E              	ENDIF
 347  004E              ;# 347 "C:\Users\houlinfeng\Desktop\TwoWireDevice_Hou\source\config.c" 1
 347  004E              	IF (50< 0404h) AND (50>7)
 347  004E              ;# 347 "C:\Users\houlinfeng\Desktop\TwoWireDevice_Hou\source\config.c" 1
 347  004E  0F0B        	MOV A,50/4-1
 347  004F              ;# 347 "C:\Users\houlinfeng\Desktop\TwoWireDevice_Hou\source\config.c" 1
 347  004F  2000     E  	CALL __DELAYX3 + 3 -(50 MOD 4)
 347  0050              	ENDIF
 347  0050              ;# 347 "C:\Users\houlinfeng\Desktop\TwoWireDevice_Hou\source\config.c" 1
 347  0050              	IF (50< 0x40B) AND (50> 0403h)
 347  0050              ;# 347 "C:\Users\houlinfeng\Desktop\TwoWireDevice_Hou\source\config.c" 1
 347  0050              	MOV A,0 
 347  0050              ;# 347 "C:\Users\houlinfeng\Desktop\TwoWireDevice_Hou\source\config.c" 1
 347  0050              	CALL __DELAYX6 + 0x40a -50
 347  0050              	ENDIF
 347  0050              ;# 347 "C:\Users\houlinfeng\Desktop\TwoWireDevice_Hou\source\config.c" 1
 347  0050              	IF (50 >= 0x40b) AND ((((50-9)%0402h)/4+1)>256)
 347  0050              ;# 347 "C:\Users\houlinfeng\Desktop\TwoWireDevice_Hou\source\config.c" 1
 347  0050              	MOV A,(50-9)/0402h
 347  0050              ;# 347 "C:\Users\houlinfeng\Desktop\TwoWireDevice_Hou\source\config.c" 1
 347  0050              	MOV _builtin_holtek_delay_2,A
 347  0050              ;# 347 "C:\Users\houlinfeng\Desktop\TwoWireDevice_Hou\source\config.c" 1
 347  0050              	MOV A,0
 347  0050              ;# 347 "C:\Users\houlinfeng\Desktop\TwoWireDevice_Hou\source\config.c" 1
 347  0050              	CALL __DELAYY5 +5- (((50-9)%0402h)%6)
 347  0050              	ENDIF
 347  0050              ;# 347 "C:\Users\houlinfeng\Desktop\TwoWireDevice_Hou\source\config.c" 1
 347  0050              	IF (50 >= 0x40b) AND ((((50-9)%0402h)/4+1)<=256)
 347  0050              ;# 347 "C:\Users\houlinfeng\Desktop\TwoWireDevice_Hou\source\config.c" 1
 347  0050              	MOV A,(50-9)/0402h
 347  0050              ;# 347 "C:\Users\houlinfeng\Desktop\TwoWireDevice_Hou\source\config.c" 1
 347  0050              	MOV _builtin_holtek_delay_2,A
 347  0050              ;# 347 "C:\Users\houlinfeng\Desktop\TwoWireDevice_Hou\source\config.c" 1
 347  0050              	MOV A,((50-9)%0402h)/4+1
 347  0050              ;# 347 "C:\Users\houlinfeng\Desktop\TwoWireDevice_Hou\source\config.c" 1
 347  0050              	CALL __DELAYY3 +3-(((50-9)%0402h)%4)
 347  0050              	ENDIF
 327  0050              #line 327 "C:\Users\houlinfeng\Desktop\TwoWireDevice_Hou\source\config.c"
 327  0050  1F00     E  	clr rb
 327  0051              _L10:
 350  0051              #line 350 "C:\Users\houlinfeng\Desktop\TwoWireDevice_Hou\source\config.c"
文件：config.c     编译器版本 HGASM 0202 页次14

 350  0051  1838        	rla [56]
 350  0052  0E01        	and a,1
 350  0053  0080     E  	mov rd,a
 351  0054              #line 351 "C:\Users\houlinfeng\Desktop\TwoWireDevice_Hou\source\config.c"
 351  0054  15B9        	dec [57]
 352  0055              #line 352 "C:\Users\houlinfeng\Desktop\TwoWireDevice_Hou\source\config.c"
 352  0055  1480     E  	inc rb
 353  0056              #line 353 "C:\Users\houlinfeng\Desktop\TwoWireDevice_Hou\source\config.c"
 353  0056              ;# 353 "C:\Users\houlinfeng\Desktop\TwoWireDevice_Hou\source\config.c" 1
 353  0056              	IF 50>263690
 353  0056              ;# 353 "C:\Users\houlinfeng\Desktop\TwoWireDevice_Hou\source\config.c" 1
 353  0056              	ERRMESSAGE 'the value 50of the argument exceeds the maxinum 263690'
 353  0056              	ENDIF
 353  0056              ;# 353 "C:\Users\houlinfeng\Desktop\TwoWireDevice_Hou\source\config.c" 1
 353  0056              	IF 50<0
 353  0056              ;# 353 "C:\Users\houlinfeng\Desktop\TwoWireDevice_Hou\source\config.c" 1
 353  0056              	ERRMESSAGE 'the value 50 of the argument exceeds the mininum 0'
 353  0056              	ENDIF
 353  0056              ;# 353 "C:\Users\houlinfeng\Desktop\TwoWireDevice_Hou\source\config.c" 1
 353  0056              	IF 50==0
 353  0056              ;# 353 "C:\Users\houlinfeng\Desktop\TwoWireDevice_Hou\source\config.c" 1
 353  0056              	JMP $
 353  0056              	ENDIF
 353  0056              ;# 353 "C:\Users\houlinfeng\Desktop\TwoWireDevice_Hou\source\config.c" 1
 353  0056              	IF 50==1
 353  0056              ;# 353 "C:\Users\houlinfeng\Desktop\TwoWireDevice_Hou\source\config.c" 1
 353  0056              	NOP
 353  0056              	ENDIF
 353  0056              ;# 353 "C:\Users\houlinfeng\Desktop\TwoWireDevice_Hou\source\config.c" 1
 353  0056              	IF 50==2
 353  0056              ;# 353 "C:\Users\houlinfeng\Desktop\TwoWireDevice_Hou\source\config.c" 1
 353  0056              	NOP
 353  0056              ;# 353 "C:\Users\houlinfeng\Desktop\TwoWireDevice_Hou\source\config.c" 1
 353  0056              	NOP
 353  0056              	ENDIF
 353  0056              ;# 353 "C:\Users\houlinfeng\Desktop\TwoWireDevice_Hou\source\config.c" 1
 353  0056              	IF 50==3
 353  0056              ;# 353 "C:\Users\houlinfeng\Desktop\TwoWireDevice_Hou\source\config.c" 1
 353  0056              	NOP
 353  0056              ;# 353 "C:\Users\houlinfeng\Desktop\TwoWireDevice_Hou\source\config.c" 1
 353  0056              	NOP
 353  0056              ;# 353 "C:\Users\houlinfeng\Desktop\TwoWireDevice_Hou\source\config.c" 1
 353  0056              	NOP
 353  0056              	ENDIF
 353  0056              ;# 353 "C:\Users\houlinfeng\Desktop\TwoWireDevice_Hou\source\config.c" 1
 353  0056              	IF (50<8) AND (50>3)
 353  0056              ;# 353 "C:\Users\houlinfeng\Desktop\TwoWireDevice_Hou\source\config.c" 1
 353  0056              	CALL __DELAY3 + 7 -50
 353  0056              	ENDIF
 353  0056              ;# 353 "C:\Users\houlinfeng\Desktop\TwoWireDevice_Hou\source\config.c" 1
 353  0056              	IF (50< 0404h) AND (50>7)
 353  0056              ;# 353 "C:\Users\houlinfeng\Desktop\TwoWireDevice_Hou\source\config.c" 1
 353  0056  0F0B        	MOV A,50/4-1
 353  0057              ;# 353 "C:\Users\houlinfeng\Desktop\TwoWireDevice_Hou\source\config.c" 1
 353  0057  2000     E  	CALL __DELAYX3 + 3 -(50 MOD 4)
 353  0058              	ENDIF
 353  0058              ;# 353 "C:\Users\houlinfeng\Desktop\TwoWireDevice_Hou\source\config.c" 1
 353  0058              	IF (50< 0x40B) AND (50> 0403h)
 353  0058              ;# 353 "C:\Users\houlinfeng\Desktop\TwoWireDevice_Hou\source\config.c" 1
 353  0058              	MOV A,0 
文件：config.c     编译器版本 HGASM 0202 页次15

 353  0058              ;# 353 "C:\Users\houlinfeng\Desktop\TwoWireDevice_Hou\source\config.c" 1
 353  0058              	CALL __DELAYX6 + 0x40a -50
 353  0058              	ENDIF
 353  0058              ;# 353 "C:\Users\houlinfeng\Desktop\TwoWireDevice_Hou\source\config.c" 1
 353  0058              	IF (50 >= 0x40b) AND ((((50-9)%0402h)/4+1)>256)
 353  0058              ;# 353 "C:\Users\houlinfeng\Desktop\TwoWireDevice_Hou\source\config.c" 1
 353  0058              	MOV A,(50-9)/0402h
 353  0058              ;# 353 "C:\Users\houlinfeng\Desktop\TwoWireDevice_Hou\source\config.c" 1
 353  0058              	MOV _builtin_holtek_delay_2,A
 353  0058              ;# 353 "C:\Users\houlinfeng\Desktop\TwoWireDevice_Hou\source\config.c" 1
 353  0058              	MOV A,0
 353  0058              ;# 353 "C:\Users\houlinfeng\Desktop\TwoWireDevice_Hou\source\config.c" 1
 353  0058              	CALL __DELAYY5 +5- (((50-9)%0402h)%6)
 353  0058              	ENDIF
 353  0058              ;# 353 "C:\Users\houlinfeng\Desktop\TwoWireDevice_Hou\source\config.c" 1
 353  0058              	IF (50 >= 0x40b) AND ((((50-9)%0402h)/4+1)<=256)
 353  0058              ;# 353 "C:\Users\houlinfeng\Desktop\TwoWireDevice_Hou\source\config.c" 1
 353  0058              	MOV A,(50-9)/0402h
 353  0058              ;# 353 "C:\Users\houlinfeng\Desktop\TwoWireDevice_Hou\source\config.c" 1
 353  0058              	MOV _builtin_holtek_delay_2,A
 353  0058              ;# 353 "C:\Users\houlinfeng\Desktop\TwoWireDevice_Hou\source\config.c" 1
 353  0058              	MOV A,((50-9)%0402h)/4+1
 353  0058              ;# 353 "C:\Users\houlinfeng\Desktop\TwoWireDevice_Hou\source\config.c" 1
 353  0058              	CALL __DELAYY3 +3-(((50-9)%0402h)%4)
 353  0058              	ENDIF
 354  0058              #line 354 "C:\Users\houlinfeng\Desktop\TwoWireDevice_Hou\source\config.c"
 354  0058  1838        	rla [56]
 354  0059  0E01        	and a,1
 354  005A  0080     E  	mov rc,a
 355  005B              #line 355 "C:\Users\houlinfeng\Desktop\TwoWireDevice_Hou\source\config.c"
 355  005B  0700     E  	mov a,rd
 355  005C  0200     E  	sub a,rc
 355  005D  390A        	snz z
 355  005E  2800     R  	jmp _L9
 348  005F              #line 348 "C:\Users\houlinfeng\Desktop\TwoWireDevice_Hou\source\config.c"
 348  005F  0700     E  	mov a,rb
 348  0060  0A1F        	sub a,31
 348  0061  390A        	snz z
 348  0062  2800     R  	jmp _L10
 348  0063              _L9:
 360  0063              #line 360 "C:\Users\houlinfeng\Desktop\TwoWireDevice_Hou\source\config.c"
 360  0063  0F1F        	mov a,31
 360  0064  0280     E  	subm a,rb
 362  0065              #line 362 "C:\Users\houlinfeng\Desktop\TwoWireDevice_Hou\source\config.c"
 362  0065  0700     E  	mov a,rb
 362  0066  0380     E  	addm a,ra
 362  0067  1B80     E  	rrc ra
 363  0068              #line 363 "C:\Users\houlinfeng\Desktop\TwoWireDevice_Hou\source\config.c"
 363  0068  0700     E  	mov a,ra
 363  0069  00B9        	mov [57],a
 363  006A  0003        	ret
 363  006B              _PltCaliCmp endp
 363  006B              #line 363 "C:\Users\houlinfeng\Desktop\TwoWireDevice_Hou\source\config.c"
 363  006B              #pragma debug scope 1 1
 363  006B              ___ifs equ [112]
 363  006B              ___ptm0c0 equ [82]
 363  006B              ___ptm0c1 equ [83]
 363  006B              ___ptm0c2 equ [84]
 363  006B              ___ptm0rpl equ [91]
 363  006B              ___ptm0rph equ [92]
文件：config.c     编译器版本 HGASM 0202 页次16

 363  006B              ___mfi1 equ [77]
 363  006B              ___intc1 equ [73]
 363  006B              public _PtmInit
 363  006B              #pragma debug scope 4 1
 371  006B              #line 371 "C:\Users\houlinfeng\Desktop\TwoWireDevice_Hou\source\config.c"
 371  0000              _PtmInit .section 'code'
 371  0000              _PtmInit proc
 392  0000              #line 392 "C:\Users\houlinfeng\Desktop\TwoWireDevice_Hou\source\config.c"
 392  0000  0F03        	mov a,3
 392  0001  06F0        	andm a,[112]
 393  0002              #line 393 "C:\Users\houlinfeng\Desktop\TwoWireDevice_Hou\source\config.c"
 393  0002  0F20        	mov a,32
 393  0003  00D2        	mov [82],a
 394  0004              #line 394 "C:\Users\houlinfeng\Desktop\TwoWireDevice_Hou\source\config.c"
 394  0004  0F50        	mov a,80
 394  0005  00D3        	mov [83],a
 395  0006              #line 395 "C:\Users\houlinfeng\Desktop\TwoWireDevice_Hou\source\config.c"
 395  0006  0F04        	mov a,4
 395  0007  00D4        	mov [84],a
 397  0008              #line 397 "C:\Users\houlinfeng\Desktop\TwoWireDevice_Hou\source\config.c"
 397  0008  0FF4        	mov a,244
 397  0009  00DB        	mov [91],a
 398  000A              #line 398 "C:\Users\houlinfeng\Desktop\TwoWireDevice_Hou\source\config.c"
 398  000A  0F01        	mov a,1
 398  000B  00DC        	mov [92],a
 400  000C              #line 400 "C:\Users\houlinfeng\Desktop\TwoWireDevice_Hou\source\config.c"
 400  000C  304D        	set [77].0
 401  000D              #line 401 "C:\Users\houlinfeng\Desktop\TwoWireDevice_Hou\source\config.c"
 401  000D  30CD        	set [77].1
 403  000E              #line 403 "C:\Users\houlinfeng\Desktop\TwoWireDevice_Hou\source\config.c"
 403  000E  31C9        	set [73].3
 405  000F              #line 405 "C:\Users\houlinfeng\Desktop\TwoWireDevice_Hou\source\config.c"
 405  000F  31D2        	set [82].3
 405  0010  0003        	ret
 405  0011              _PtmInit endp
 405  0011              #line 405 "C:\Users\houlinfeng\Desktop\TwoWireDevice_Hou\source\config.c"
 405  0011              #pragma debug scope 1 1
 405  0011              ___pltavos equ [60]
 405  0011              public _PltCaliOpa
 405  0011              #pragma debug scope 5 1
 414  0011              #line 414 "C:\Users\houlinfeng\Desktop\TwoWireDevice_Hou\source\config.c"
 414  0000              _PltCaliOpa .section 'code'
 414  0000              _PltCaliOpa proc
 418  0000              #line 418 "C:\Users\houlinfeng\Desktop\TwoWireDevice_Hou\source\config.c"
 418  0000  0FC0        	mov a,192
 418  0001  00BC        	mov [60],a
 419  0002              #line 419 "C:\Users\houlinfeng\Desktop\TwoWireDevice_Hou\source\config.c"
 419  0002              ;# 419 "C:\Users\houlinfeng\Desktop\TwoWireDevice_Hou\source\config.c" 1
 419  0002              	IF 25>263690
 419  0002              ;# 419 "C:\Users\houlinfeng\Desktop\TwoWireDevice_Hou\source\config.c" 1
 419  0002              	ERRMESSAGE 'the value 25of the argument exceeds the maxinum 263690'
 419  0002              	ENDIF
 419  0002              ;# 419 "C:\Users\houlinfeng\Desktop\TwoWireDevice_Hou\source\config.c" 1
 419  0002              	IF 25<0
 419  0002              ;# 419 "C:\Users\houlinfeng\Desktop\TwoWireDevice_Hou\source\config.c" 1
 419  0002              	ERRMESSAGE 'the value 25 of the argument exceeds the mininum 0'
 419  0002              	ENDIF
 419  0002              ;# 419 "C:\Users\houlinfeng\Desktop\TwoWireDevice_Hou\source\config.c" 1
 419  0002              	IF 25==0
 419  0002              ;# 419 "C:\Users\houlinfeng\Desktop\TwoWireDevice_Hou\source\config.c" 1
文件：config.c     编译器版本 HGASM 0202 页次17

 419  0002              	JMP $
 419  0002              	ENDIF
 419  0002              ;# 419 "C:\Users\houlinfeng\Desktop\TwoWireDevice_Hou\source\config.c" 1
 419  0002              	IF 25==1
 419  0002              ;# 419 "C:\Users\houlinfeng\Desktop\TwoWireDevice_Hou\source\config.c" 1
 419  0002              	NOP
 419  0002              	ENDIF
 419  0002              ;# 419 "C:\Users\houlinfeng\Desktop\TwoWireDevice_Hou\source\config.c" 1
 419  0002              	IF 25==2
 419  0002              ;# 419 "C:\Users\houlinfeng\Desktop\TwoWireDevice_Hou\source\config.c" 1
 419  0002              	NOP
 419  0002              ;# 419 "C:\Users\houlinfeng\Desktop\TwoWireDevice_Hou\source\config.c" 1
 419  0002              	NOP
 419  0002              	ENDIF
 419  0002              ;# 419 "C:\Users\houlinfeng\Desktop\TwoWireDevice_Hou\source\config.c" 1
 419  0002              	IF 25==3
 419  0002              ;# 419 "C:\Users\houlinfeng\Desktop\TwoWireDevice_Hou\source\config.c" 1
 419  0002              	NOP
 419  0002              ;# 419 "C:\Users\houlinfeng\Desktop\TwoWireDevice_Hou\source\config.c" 1
 419  0002              	NOP
 419  0002              ;# 419 "C:\Users\houlinfeng\Desktop\TwoWireDevice_Hou\source\config.c" 1
 419  0002              	NOP
 419  0002              	ENDIF
 419  0002              ;# 419 "C:\Users\houlinfeng\Desktop\TwoWireDevice_Hou\source\config.c" 1
 419  0002              	IF (25<8) AND (25>3)
 419  0002              ;# 419 "C:\Users\houlinfeng\Desktop\TwoWireDevice_Hou\source\config.c" 1
 419  0002              	CALL __DELAY3 + 7 -25
 419  0002              	ENDIF
 419  0002              ;# 419 "C:\Users\houlinfeng\Desktop\TwoWireDevice_Hou\source\config.c" 1
 419  0002              	IF (25< 0404h) AND (25>7)
 419  0002              ;# 419 "C:\Users\houlinfeng\Desktop\TwoWireDevice_Hou\source\config.c" 1
 419  0002  0F05        	MOV A,25/4-1
 419  0003              ;# 419 "C:\Users\houlinfeng\Desktop\TwoWireDevice_Hou\source\config.c" 1
 419  0003  2000     E  	CALL __DELAYX3 + 3 -(25 MOD 4)
 419  0004              	ENDIF
 419  0004              ;# 419 "C:\Users\houlinfeng\Desktop\TwoWireDevice_Hou\source\config.c" 1
 419  0004              	IF (25< 0x40B) AND (25> 0403h)
 419  0004              ;# 419 "C:\Users\houlinfeng\Desktop\TwoWireDevice_Hou\source\config.c" 1
 419  0004              	MOV A,0 
 419  0004              ;# 419 "C:\Users\houlinfeng\Desktop\TwoWireDevice_Hou\source\config.c" 1
 419  0004              	CALL __DELAYX6 + 0x40a -25
 419  0004              	ENDIF
 419  0004              ;# 419 "C:\Users\houlinfeng\Desktop\TwoWireDevice_Hou\source\config.c" 1
 419  0004              	IF (25 >= 0x40b) AND ((((25-9)%0402h)/4+1)>256)
 419  0004              ;# 419 "C:\Users\houlinfeng\Desktop\TwoWireDevice_Hou\source\config.c" 1
 419  0004              	MOV A,(25-9)/0402h
 419  0004              ;# 419 "C:\Users\houlinfeng\Desktop\TwoWireDevice_Hou\source\config.c" 1
 419  0004              	MOV _builtin_holtek_delay_2,A
 419  0004              ;# 419 "C:\Users\houlinfeng\Desktop\TwoWireDevice_Hou\source\config.c" 1
 419  0004              	MOV A,0
 419  0004              ;# 419 "C:\Users\houlinfeng\Desktop\TwoWireDevice_Hou\source\config.c" 1
 419  0004              	CALL __DELAYY5 +5- (((25-9)%0402h)%6)
 419  0004              	ENDIF
 419  0004              ;# 419 "C:\Users\houlinfeng\Desktop\TwoWireDevice_Hou\source\config.c" 1
 419  0004              	IF (25 >= 0x40b) AND ((((25-9)%0402h)/4+1)<=256)
 419  0004              ;# 419 "C:\Users\houlinfeng\Desktop\TwoWireDevice_Hou\source\config.c" 1
 419  0004              	MOV A,(25-9)/0402h
 419  0004              ;# 419 "C:\Users\houlinfeng\Desktop\TwoWireDevice_Hou\source\config.c" 1
 419  0004              	MOV _builtin_holtek_delay_2,A
 419  0004              ;# 419 "C:\Users\houlinfeng\Desktop\TwoWireDevice_Hou\source\config.c" 1
文件：config.c     编译器版本 HGASM 0202 页次18

 419  0004              	MOV A,((25-9)%0402h)/4+1
 419  0004              ;# 419 "C:\Users\houlinfeng\Desktop\TwoWireDevice_Hou\source\config.c" 1
 419  0004              	CALL __DELAYY3 +3-(((25-9)%0402h)%4)
 419  0004              	ENDIF
 415  0004              #line 415 "C:\Users\houlinfeng\Desktop\TwoWireDevice_Hou\source\config.c"
 415  0004  1F00     E  	clr ra
 415  0005              _L27:
 422  0005              #line 422 "C:\Users\houlinfeng\Desktop\TwoWireDevice_Hou\source\config.c"
 422  0005  1F00     E  	clr rc
 422  0006  3EBB        	sz [59].5
 422  0007  1480     E  	inc rc
 423  0008              #line 423 "C:\Users\houlinfeng\Desktop\TwoWireDevice_Hou\source\config.c"
 423  0008  14BC        	inc [60]
 424  0009              #line 424 "C:\Users\houlinfeng\Desktop\TwoWireDevice_Hou\source\config.c"
 424  0009  1480     E  	inc ra
 425  000A              #line 425 "C:\Users\houlinfeng\Desktop\TwoWireDevice_Hou\source\config.c"
 425  000A              ;# 425 "C:\Users\houlinfeng\Desktop\TwoWireDevice_Hou\source\config.c" 1
 425  000A              	IF 25>263690
 425  000A              ;# 425 "C:\Users\houlinfeng\Desktop\TwoWireDevice_Hou\source\config.c" 1
 425  000A              	ERRMESSAGE 'the value 25of the argument exceeds the maxinum 263690'
 425  000A              	ENDIF
 425  000A              ;# 425 "C:\Users\houlinfeng\Desktop\TwoWireDevice_Hou\source\config.c" 1
 425  000A              	IF 25<0
 425  000A              ;# 425 "C:\Users\houlinfeng\Desktop\TwoWireDevice_Hou\source\config.c" 1
 425  000A              	ERRMESSAGE 'the value 25 of the argument exceeds the mininum 0'
 425  000A              	ENDIF
 425  000A              ;# 425 "C:\Users\houlinfeng\Desktop\TwoWireDevice_Hou\source\config.c" 1
 425  000A              	IF 25==0
 425  000A              ;# 425 "C:\Users\houlinfeng\Desktop\TwoWireDevice_Hou\source\config.c" 1
 425  000A              	JMP $
 425  000A              	ENDIF
 425  000A              ;# 425 "C:\Users\houlinfeng\Desktop\TwoWireDevice_Hou\source\config.c" 1
 425  000A              	IF 25==1
 425  000A              ;# 425 "C:\Users\houlinfeng\Desktop\TwoWireDevice_Hou\source\config.c" 1
 425  000A              	NOP
 425  000A              	ENDIF
 425  000A              ;# 425 "C:\Users\houlinfeng\Desktop\TwoWireDevice_Hou\source\config.c" 1
 425  000A              	IF 25==2
 425  000A              ;# 425 "C:\Users\houlinfeng\Desktop\TwoWireDevice_Hou\source\config.c" 1
 425  000A              	NOP
 425  000A              ;# 425 "C:\Users\houlinfeng\Desktop\TwoWireDevice_Hou\source\config.c" 1
 425  000A              	NOP
 425  000A              	ENDIF
 425  000A              ;# 425 "C:\Users\houlinfeng\Desktop\TwoWireDevice_Hou\source\config.c" 1
 425  000A              	IF 25==3
 425  000A              ;# 425 "C:\Users\houlinfeng\Desktop\TwoWireDevice_Hou\source\config.c" 1
 425  000A              	NOP
 425  000A              ;# 425 "C:\Users\houlinfeng\Desktop\TwoWireDevice_Hou\source\config.c" 1
 425  000A              	NOP
 425  000A              ;# 425 "C:\Users\houlinfeng\Desktop\TwoWireDevice_Hou\source\config.c" 1
 425  000A              	NOP
 425  000A              	ENDIF
 425  000A              ;# 425 "C:\Users\houlinfeng\Desktop\TwoWireDevice_Hou\source\config.c" 1
 425  000A              	IF (25<8) AND (25>3)
 425  000A              ;# 425 "C:\Users\houlinfeng\Desktop\TwoWireDevice_Hou\source\config.c" 1
 425  000A              	CALL __DELAY3 + 7 -25
 425  000A              	ENDIF
 425  000A              ;# 425 "C:\Users\houlinfeng\Desktop\TwoWireDevice_Hou\source\config.c" 1
 425  000A              	IF (25< 0404h) AND (25>7)
 425  000A              ;# 425 "C:\Users\houlinfeng\Desktop\TwoWireDevice_Hou\source\config.c" 1
文件：config.c     编译器版本 HGASM 0202 页次19

 425  000A  0F05        	MOV A,25/4-1
 425  000B              ;# 425 "C:\Users\houlinfeng\Desktop\TwoWireDevice_Hou\source\config.c" 1
 425  000B  2000     E  	CALL __DELAYX3 + 3 -(25 MOD 4)
 425  000C              	ENDIF
 425  000C              ;# 425 "C:\Users\houlinfeng\Desktop\TwoWireDevice_Hou\source\config.c" 1
 425  000C              	IF (25< 0x40B) AND (25> 0403h)
 425  000C              ;# 425 "C:\Users\houlinfeng\Desktop\TwoWireDevice_Hou\source\config.c" 1
 425  000C              	MOV A,0 
 425  000C              ;# 425 "C:\Users\houlinfeng\Desktop\TwoWireDevice_Hou\source\config.c" 1
 425  000C              	CALL __DELAYX6 + 0x40a -25
 425  000C              	ENDIF
 425  000C              ;# 425 "C:\Users\houlinfeng\Desktop\TwoWireDevice_Hou\source\config.c" 1
 425  000C              	IF (25 >= 0x40b) AND ((((25-9)%0402h)/4+1)>256)
 425  000C              ;# 425 "C:\Users\houlinfeng\Desktop\TwoWireDevice_Hou\source\config.c" 1
 425  000C              	MOV A,(25-9)/0402h
 425  000C              ;# 425 "C:\Users\houlinfeng\Desktop\TwoWireDevice_Hou\source\config.c" 1
 425  000C              	MOV _builtin_holtek_delay_2,A
 425  000C              ;# 425 "C:\Users\houlinfeng\Desktop\TwoWireDevice_Hou\source\config.c" 1
 425  000C              	MOV A,0
 425  000C              ;# 425 "C:\Users\houlinfeng\Desktop\TwoWireDevice_Hou\source\config.c" 1
 425  000C              	CALL __DELAYY5 +5- (((25-9)%0402h)%6)
 425  000C              	ENDIF
 425  000C              ;# 425 "C:\Users\houlinfeng\Desktop\TwoWireDevice_Hou\source\config.c" 1
 425  000C              	IF (25 >= 0x40b) AND ((((25-9)%0402h)/4+1)<=256)
 425  000C              ;# 425 "C:\Users\houlinfeng\Desktop\TwoWireDevice_Hou\source\config.c" 1
 425  000C              	MOV A,(25-9)/0402h
 425  000C              ;# 425 "C:\Users\houlinfeng\Desktop\TwoWireDevice_Hou\source\config.c" 1
 425  000C              	MOV _builtin_holtek_delay_2,A
 425  000C              ;# 425 "C:\Users\houlinfeng\Desktop\TwoWireDevice_Hou\source\config.c" 1
 425  000C              	MOV A,((25-9)%0402h)/4+1
 425  000C              ;# 425 "C:\Users\houlinfeng\Desktop\TwoWireDevice_Hou\source\config.c" 1
 425  000C              	CALL __DELAYY3 +3-(((25-9)%0402h)%4)
 425  000C              	ENDIF
 426  000C              #line 426 "C:\Users\houlinfeng\Desktop\TwoWireDevice_Hou\source\config.c"
 426  000C  1F00     E  	clr rb
 426  000D  3EBB        	sz [59].5
 426  000E  1480     E  	inc rb
 427  000F              #line 427 "C:\Users\houlinfeng\Desktop\TwoWireDevice_Hou\source\config.c"
 427  000F  0700     E  	mov a,rc
 427  0010  0200     E  	sub a,rb
 427  0011  390A        	snz z
 427  0012  2800     R  	jmp _L26
 420  0013              #line 420 "C:\Users\houlinfeng\Desktop\TwoWireDevice_Hou\source\config.c"
 420  0013  0700     E  	mov a,ra
 420  0014  0A3F        	sub a,63
 420  0015  390A        	snz z
 420  0016  2800     R  	jmp _L27
 420  0017              _L26:
 433  0017              #line 433 "C:\Users\houlinfeng\Desktop\TwoWireDevice_Hou\source\config.c"
 433  0017  1FBC        	set [60]
 434  0018              #line 434 "C:\Users\houlinfeng\Desktop\TwoWireDevice_Hou\source\config.c"
 434  0018              ;# 434 "C:\Users\houlinfeng\Desktop\TwoWireDevice_Hou\source\config.c" 1
 434  0018              	IF 25>263690
 434  0018              ;# 434 "C:\Users\houlinfeng\Desktop\TwoWireDevice_Hou\source\config.c" 1
 434  0018              	ERRMESSAGE 'the value 25of the argument exceeds the maxinum 263690'
 434  0018              	ENDIF
 434  0018              ;# 434 "C:\Users\houlinfeng\Desktop\TwoWireDevice_Hou\source\config.c" 1
 434  0018              	IF 25<0
 434  0018              ;# 434 "C:\Users\houlinfeng\Desktop\TwoWireDevice_Hou\source\config.c" 1
 434  0018              	ERRMESSAGE 'the value 25 of the argument exceeds the mininum 0'
文件：config.c     编译器版本 HGASM 0202 页次20

 434  0018              	ENDIF
 434  0018              ;# 434 "C:\Users\houlinfeng\Desktop\TwoWireDevice_Hou\source\config.c" 1
 434  0018              	IF 25==0
 434  0018              ;# 434 "C:\Users\houlinfeng\Desktop\TwoWireDevice_Hou\source\config.c" 1
 434  0018              	JMP $
 434  0018              	ENDIF
 434  0018              ;# 434 "C:\Users\houlinfeng\Desktop\TwoWireDevice_Hou\source\config.c" 1
 434  0018              	IF 25==1
 434  0018              ;# 434 "C:\Users\houlinfeng\Desktop\TwoWireDevice_Hou\source\config.c" 1
 434  0018              	NOP
 434  0018              	ENDIF
 434  0018              ;# 434 "C:\Users\houlinfeng\Desktop\TwoWireDevice_Hou\source\config.c" 1
 434  0018              	IF 25==2
 434  0018              ;# 434 "C:\Users\houlinfeng\Desktop\TwoWireDevice_Hou\source\config.c" 1
 434  0018              	NOP
 434  0018              ;# 434 "C:\Users\houlinfeng\Desktop\TwoWireDevice_Hou\source\config.c" 1
 434  0018              	NOP
 434  0018              	ENDIF
 434  0018              ;# 434 "C:\Users\houlinfeng\Desktop\TwoWireDevice_Hou\source\config.c" 1
 434  0018              	IF 25==3
 434  0018              ;# 434 "C:\Users\houlinfeng\Desktop\TwoWireDevice_Hou\source\config.c" 1
 434  0018              	NOP
 434  0018              ;# 434 "C:\Users\houlinfeng\Desktop\TwoWireDevice_Hou\source\config.c" 1
 434  0018              	NOP
 434  0018              ;# 434 "C:\Users\houlinfeng\Desktop\TwoWireDevice_Hou\source\config.c" 1
 434  0018              	NOP
 434  0018              	ENDIF
 434  0018              ;# 434 "C:\Users\houlinfeng\Desktop\TwoWireDevice_Hou\source\config.c" 1
 434  0018              	IF (25<8) AND (25>3)
 434  0018              ;# 434 "C:\Users\houlinfeng\Desktop\TwoWireDevice_Hou\source\config.c" 1
 434  0018              	CALL __DELAY3 + 7 -25
 434  0018              	ENDIF
 434  0018              ;# 434 "C:\Users\houlinfeng\Desktop\TwoWireDevice_Hou\source\config.c" 1
 434  0018              	IF (25< 0404h) AND (25>7)
 434  0018              ;# 434 "C:\Users\houlinfeng\Desktop\TwoWireDevice_Hou\source\config.c" 1
 434  0018  0F05        	MOV A,25/4-1
 434  0019              ;# 434 "C:\Users\houlinfeng\Desktop\TwoWireDevice_Hou\source\config.c" 1
 434  0019  2000     E  	CALL __DELAYX3 + 3 -(25 MOD 4)
 434  001A              	ENDIF
 434  001A              ;# 434 "C:\Users\houlinfeng\Desktop\TwoWireDevice_Hou\source\config.c" 1
 434  001A              	IF (25< 0x40B) AND (25> 0403h)
 434  001A              ;# 434 "C:\Users\houlinfeng\Desktop\TwoWireDevice_Hou\source\config.c" 1
 434  001A              	MOV A,0 
 434  001A              ;# 434 "C:\Users\houlinfeng\Desktop\TwoWireDevice_Hou\source\config.c" 1
 434  001A              	CALL __DELAYX6 + 0x40a -25
 434  001A              	ENDIF
 434  001A              ;# 434 "C:\Users\houlinfeng\Desktop\TwoWireDevice_Hou\source\config.c" 1
 434  001A              	IF (25 >= 0x40b) AND ((((25-9)%0402h)/4+1)>256)
 434  001A              ;# 434 "C:\Users\houlinfeng\Desktop\TwoWireDevice_Hou\source\config.c" 1
 434  001A              	MOV A,(25-9)/0402h
 434  001A              ;# 434 "C:\Users\houlinfeng\Desktop\TwoWireDevice_Hou\source\config.c" 1
 434  001A              	MOV _builtin_holtek_delay_2,A
 434  001A              ;# 434 "C:\Users\houlinfeng\Desktop\TwoWireDevice_Hou\source\config.c" 1
 434  001A              	MOV A,0
 434  001A              ;# 434 "C:\Users\houlinfeng\Desktop\TwoWireDevice_Hou\source\config.c" 1
 434  001A              	CALL __DELAYY5 +5- (((25-9)%0402h)%6)
 434  001A              	ENDIF
 434  001A              ;# 434 "C:\Users\houlinfeng\Desktop\TwoWireDevice_Hou\source\config.c" 1
 434  001A              	IF (25 >= 0x40b) AND ((((25-9)%0402h)/4+1)<=256)
 434  001A              ;# 434 "C:\Users\houlinfeng\Desktop\TwoWireDevice_Hou\source\config.c" 1
文件：config.c     编译器版本 HGASM 0202 页次21

 434  001A              	MOV A,(25-9)/0402h
 434  001A              ;# 434 "C:\Users\houlinfeng\Desktop\TwoWireDevice_Hou\source\config.c" 1
 434  001A              	MOV _builtin_holtek_delay_2,A
 434  001A              ;# 434 "C:\Users\houlinfeng\Desktop\TwoWireDevice_Hou\source\config.c" 1
 434  001A              	MOV A,((25-9)%0402h)/4+1
 434  001A              ;# 434 "C:\Users\houlinfeng\Desktop\TwoWireDevice_Hou\source\config.c" 1
 434  001A              	CALL __DELAYY3 +3-(((25-9)%0402h)%4)
 434  001A              	ENDIF
 415  001A              #line 415 "C:\Users\houlinfeng\Desktop\TwoWireDevice_Hou\source\config.c"
 415  001A  1F00     E  	clr rb
 415  001B              _L29:
 437  001B              #line 437 "C:\Users\houlinfeng\Desktop\TwoWireDevice_Hou\source\config.c"
 437  001B  1F00     E  	clr rd
 437  001C  3EBB        	sz [59].5
 437  001D  1480     E  	inc rd
 438  001E              #line 438 "C:\Users\houlinfeng\Desktop\TwoWireDevice_Hou\source\config.c"
 438  001E  15BC        	dec [60]
 439  001F              #line 439 "C:\Users\houlinfeng\Desktop\TwoWireDevice_Hou\source\config.c"
 439  001F  1480     E  	inc rb
 440  0020              #line 440 "C:\Users\houlinfeng\Desktop\TwoWireDevice_Hou\source\config.c"
 440  0020              ;# 440 "C:\Users\houlinfeng\Desktop\TwoWireDevice_Hou\source\config.c" 1
 440  0020              	IF 25>263690
 440  0020              ;# 440 "C:\Users\houlinfeng\Desktop\TwoWireDevice_Hou\source\config.c" 1
 440  0020              	ERRMESSAGE 'the value 25of the argument exceeds the maxinum 263690'
 440  0020              	ENDIF
 440  0020              ;# 440 "C:\Users\houlinfeng\Desktop\TwoWireDevice_Hou\source\config.c" 1
 440  0020              	IF 25<0
 440  0020              ;# 440 "C:\Users\houlinfeng\Desktop\TwoWireDevice_Hou\source\config.c" 1
 440  0020              	ERRMESSAGE 'the value 25 of the argument exceeds the mininum 0'
 440  0020              	ENDIF
 440  0020              ;# 440 "C:\Users\houlinfeng\Desktop\TwoWireDevice_Hou\source\config.c" 1
 440  0020              	IF 25==0
 440  0020              ;# 440 "C:\Users\houlinfeng\Desktop\TwoWireDevice_Hou\source\config.c" 1
 440  0020              	JMP $
 440  0020              	ENDIF
 440  0020              ;# 440 "C:\Users\houlinfeng\Desktop\TwoWireDevice_Hou\source\config.c" 1
 440  0020              	IF 25==1
 440  0020              ;# 440 "C:\Users\houlinfeng\Desktop\TwoWireDevice_Hou\source\config.c" 1
 440  0020              	NOP
 440  0020              	ENDIF
 440  0020              ;# 440 "C:\Users\houlinfeng\Desktop\TwoWireDevice_Hou\source\config.c" 1
 440  0020              	IF 25==2
 440  0020              ;# 440 "C:\Users\houlinfeng\Desktop\TwoWireDevice_Hou\source\config.c" 1
 440  0020              	NOP
 440  0020              ;# 440 "C:\Users\houlinfeng\Desktop\TwoWireDevice_Hou\source\config.c" 1
 440  0020              	NOP
 440  0020              	ENDIF
 440  0020              ;# 440 "C:\Users\houlinfeng\Desktop\TwoWireDevice_Hou\source\config.c" 1
 440  0020              	IF 25==3
 440  0020              ;# 440 "C:\Users\houlinfeng\Desktop\TwoWireDevice_Hou\source\config.c" 1
 440  0020              	NOP
 440  0020              ;# 440 "C:\Users\houlinfeng\Desktop\TwoWireDevice_Hou\source\config.c" 1
 440  0020              	NOP
 440  0020              ;# 440 "C:\Users\houlinfeng\Desktop\TwoWireDevice_Hou\source\config.c" 1
 440  0020              	NOP
 440  0020              	ENDIF
 440  0020              ;# 440 "C:\Users\houlinfeng\Desktop\TwoWireDevice_Hou\source\config.c" 1
 440  0020              	IF (25<8) AND (25>3)
 440  0020              ;# 440 "C:\Users\houlinfeng\Desktop\TwoWireDevice_Hou\source\config.c" 1
 440  0020              	CALL __DELAY3 + 7 -25
文件：config.c     编译器版本 HGASM 0202 页次22

 440  0020              	ENDIF
 440  0020              ;# 440 "C:\Users\houlinfeng\Desktop\TwoWireDevice_Hou\source\config.c" 1
 440  0020              	IF (25< 0404h) AND (25>7)
 440  0020              ;# 440 "C:\Users\houlinfeng\Desktop\TwoWireDevice_Hou\source\config.c" 1
 440  0020  0F05        	MOV A,25/4-1
 440  0021              ;# 440 "C:\Users\houlinfeng\Desktop\TwoWireDevice_Hou\source\config.c" 1
 440  0021  2000     E  	CALL __DELAYX3 + 3 -(25 MOD 4)
 440  0022              	ENDIF
 440  0022              ;# 440 "C:\Users\houlinfeng\Desktop\TwoWireDevice_Hou\source\config.c" 1
 440  0022              	IF (25< 0x40B) AND (25> 0403h)
 440  0022              ;# 440 "C:\Users\houlinfeng\Desktop\TwoWireDevice_Hou\source\config.c" 1
 440  0022              	MOV A,0 
 440  0022              ;# 440 "C:\Users\houlinfeng\Desktop\TwoWireDevice_Hou\source\config.c" 1
 440  0022              	CALL __DELAYX6 + 0x40a -25
 440  0022              	ENDIF
 440  0022              ;# 440 "C:\Users\houlinfeng\Desktop\TwoWireDevice_Hou\source\config.c" 1
 440  0022              	IF (25 >= 0x40b) AND ((((25-9)%0402h)/4+1)>256)
 440  0022              ;# 440 "C:\Users\houlinfeng\Desktop\TwoWireDevice_Hou\source\config.c" 1
 440  0022              	MOV A,(25-9)/0402h
 440  0022              ;# 440 "C:\Users\houlinfeng\Desktop\TwoWireDevice_Hou\source\config.c" 1
 440  0022              	MOV _builtin_holtek_delay_2,A
 440  0022              ;# 440 "C:\Users\houlinfeng\Desktop\TwoWireDevice_Hou\source\config.c" 1
 440  0022              	MOV A,0
 440  0022              ;# 440 "C:\Users\houlinfeng\Desktop\TwoWireDevice_Hou\source\config.c" 1
 440  0022              	CALL __DELAYY5 +5- (((25-9)%0402h)%6)
 440  0022              	ENDIF
 440  0022              ;# 440 "C:\Users\houlinfeng\Desktop\TwoWireDevice_Hou\source\config.c" 1
 440  0022              	IF (25 >= 0x40b) AND ((((25-9)%0402h)/4+1)<=256)
 440  0022              ;# 440 "C:\Users\houlinfeng\Desktop\TwoWireDevice_Hou\source\config.c" 1
 440  0022              	MOV A,(25-9)/0402h
 440  0022              ;# 440 "C:\Users\houlinfeng\Desktop\TwoWireDevice_Hou\source\config.c" 1
 440  0022              	MOV _builtin_holtek_delay_2,A
 440  0022              ;# 440 "C:\Users\houlinfeng\Desktop\TwoWireDevice_Hou\source\config.c" 1
 440  0022              	MOV A,((25-9)%0402h)/4+1
 440  0022              ;# 440 "C:\Users\houlinfeng\Desktop\TwoWireDevice_Hou\source\config.c" 1
 440  0022              	CALL __DELAYY3 +3-(((25-9)%0402h)%4)
 440  0022              	ENDIF
 441  0022              #line 441 "C:\Users\houlinfeng\Desktop\TwoWireDevice_Hou\source\config.c"
 441  0022  1F00     E  	clr rc
 441  0023  3EBB        	sz [59].5
 441  0024  1480     E  	inc rc
 442  0025              #line 442 "C:\Users\houlinfeng\Desktop\TwoWireDevice_Hou\source\config.c"
 442  0025  0700     E  	mov a,rd
 442  0026  0200     E  	sub a,rc
 442  0027  390A        	snz z
 442  0028  2800     R  	jmp _L28
 435  0029              #line 435 "C:\Users\houlinfeng\Desktop\TwoWireDevice_Hou\source\config.c"
 435  0029  0700     E  	mov a,rb
 435  002A  0A3F        	sub a,63
 435  002B  390A        	snz z
 435  002C  2800     R  	jmp _L29
 435  002D              _L28:
 447  002D              #line 447 "C:\Users\houlinfeng\Desktop\TwoWireDevice_Hou\source\config.c"
 447  002D  0F3F        	mov a,63
 447  002E  0280     E  	subm a,rb
 449  002F              #line 449 "C:\Users\houlinfeng\Desktop\TwoWireDevice_Hou\source\config.c"
 449  002F  0700     E  	mov a,rb
 449  0030  0380     E  	addm a,ra
 449  0031  1B80     E  	rrc ra
 450  0032              #line 450 "C:\Users\houlinfeng\Desktop\TwoWireDevice_Hou\source\config.c"
文件：config.c     编译器版本 HGASM 0202 页次23

 450  0032  0700     E  	mov a,ra
 450  0033  00BC        	mov [60],a
 450  0034  0003        	ret
 450  0035              _PltCaliOpa endp
 450  0035              #line 450 "C:\Users\houlinfeng\Desktop\TwoWireDevice_Hou\source\config.c"
 450  0035              #pragma debug scope 1 1
 450  0035              ___intc0 equ [72]
 450  0035              ___status equ [10]
 450  0035              ___wdtc equ [61]
 450  0035              ___hircc equ [19]
 450  0035              ___scc equ [18]
 450  0035              ___pa equ [20]
 450  0035              ___pac equ [21]
 450  0035              ___papu equ [22]
 450  0035              ___pawu equ [23]
 450  0035              ___pas0 equ [107]
 450  0035              ___pas1 equ [108]
 450  0035              ___pb equ [24]
 450  0035              ___pbc equ [25]
 450  0035              ___pbpu equ [26]
 450  0035              ___pc equ [27]
 450  0035              ___pcc equ [28]
 450  0035              ___pcpu equ [29]
 450  0035              ___sledc0 equ [30]
 450  0035              ___sledc1 equ [31]
 450  0035              ___ctm1c0 equ [101]
 450  0035              ___ctm1c1 equ [102]
 450  0035              ___ctm1al equ [105]
 450  0035              ___ctm1ah equ [106]
 450  0035              ___mfi4 equ [80]
 450  0035              ___intc2 equ [74]
 450  0035              public _SystemInit
 450  0035              #pragma debug scope 6 1
  25  0035              #line 25 "C:\Users\houlinfeng\Desktop\TwoWireDevice_Hou\source\config.c"
  25  0000              _SystemInit .section 'code'
  25  0000              _SystemInit proc
  27  0000              #line 27 "C:\Users\houlinfeng\Desktop\TwoWireDevice_Hou\source\config.c"
  27  0000  3448        	clr [72].0
  31  0001              #line 31 "C:\Users\houlinfeng\Desktop\TwoWireDevice_Hou\source\config.c"
  31  0001  3E0A        	sz [10].4
  31  0002  2800     R  	jmp _L37
  31  0003              #line 31 "C:\Users\houlinfeng\Desktop\TwoWireDevice_Hou\source\config.c"
  31  0003  3E8A        	sz [10].5
  31  0004  2800     R  	jmp _L37
  34  0005              #line 34 "C:\Users\houlinfeng\Desktop\TwoWireDevice_Hou\source\config.c"
  34  0005  0F56        	mov a,86
  34  0006  00BD        	mov [61],a
  34  0007              _L37:
  41  0007              #line 41 "C:\Users\houlinfeng\Desktop\TwoWireDevice_Hou\source\config.c"
  41  0007  0F05        	mov a,5
  41  0008  0093        	mov [19],a
  41  0009              _L39:
  45  0009              #line 45 "C:\Users\houlinfeng\Desktop\TwoWireDevice_Hou\source\config.c"
  45  0009  3893        	snz [19].1
  45  000A  2800     R  	jmp _L39
  48  000B              #line 48 "C:\Users\houlinfeng\Desktop\TwoWireDevice_Hou\source\config.c"
  48  000B  0F01        	mov a,1
  48  000C  0092        	mov [18],a
 129  000D              #line 129 "C:\Users\houlinfeng\Desktop\TwoWireDevice_Hou\source\config.c"
 129  000D  1F14        	clr [20]
文件：config.c     编译器版本 HGASM 0202 页次24

 130  000E              #line 130 "C:\Users\houlinfeng\Desktop\TwoWireDevice_Hou\source\config.c"
 130  000E  1F15        	clr [21]
 131  000F              #line 131 "C:\Users\houlinfeng\Desktop\TwoWireDevice_Hou\source\config.c"
 131  000F  1F16        	clr [22]
 132  0010              #line 132 "C:\Users\houlinfeng\Desktop\TwoWireDevice_Hou\source\config.c"
 132  0010  1F17        	clr [23]
 133  0011              #line 133 "C:\Users\houlinfeng\Desktop\TwoWireDevice_Hou\source\config.c"
 133  0011  1F6B        	clr [107]
 134  0012              #line 134 "C:\Users\houlinfeng\Desktop\TwoWireDevice_Hou\source\config.c"
 134  0012  1F6C        	clr [108]
 137  0013              #line 137 "C:\Users\houlinfeng\Desktop\TwoWireDevice_Hou\source\config.c"
 137  0013  1F18        	clr [24]
 138  0014              #line 138 "C:\Users\houlinfeng\Desktop\TwoWireDevice_Hou\source\config.c"
 138  0014  1F19        	clr [25]
 139  0015              #line 139 "C:\Users\houlinfeng\Desktop\TwoWireDevice_Hou\source\config.c"
 139  0015  1F1A        	clr [26]
 140  0016              #line 140 "C:\Users\houlinfeng\Desktop\TwoWireDevice_Hou\source\config.c"
 140  0016  0F54        	mov a,84
 140  0017  00ED        	mov [109],a
 142  0018              #line 142 "C:\Users\houlinfeng\Desktop\TwoWireDevice_Hou\source\config.c"
 142  0018  1F1B        	clr [27]
 143  0019              #line 143 "C:\Users\houlinfeng\Desktop\TwoWireDevice_Hou\source\config.c"
 143  0019  1F1C        	clr [28]
 144  001A              #line 144 "C:\Users\houlinfeng\Desktop\TwoWireDevice_Hou\source\config.c"
 144  001A  1F1D        	clr [29]
 147  001B              #line 147 "C:\Users\houlinfeng\Desktop\TwoWireDevice_Hou\source\config.c"
 147  001B  1F1E        	clr [30]
 148  001C              #line 148 "C:\Users\houlinfeng\Desktop\TwoWireDevice_Hou\source\config.c"
 148  001C  1F1F        	clr [31]
 150  001D              #line 150 "C:\Users\houlinfeng\Desktop\TwoWireDevice_Hou\source\config.c"
 150  001D  1F70        	clr [112]
 156  001E              #line 156 "C:\Users\houlinfeng\Desktop\TwoWireDevice_Hou\source\config.c"
 156  001E  0F40        	mov a,64
 156  001F  00E5        	mov [101],a
 158  0020              #line 158 "C:\Users\houlinfeng\Desktop\TwoWireDevice_Hou\source\config.c"
 158  0020  0FC1        	mov a,193
 158  0021  00E6        	mov [102],a
 159  0022              #line 159 "C:\Users\houlinfeng\Desktop\TwoWireDevice_Hou\source\config.c"
 159  0022  0FD4        	mov a,212
 159  0023  00E9        	mov [105],a
 160  0024              #line 160 "C:\Users\houlinfeng\Desktop\TwoWireDevice_Hou\source\config.c"
 160  0024  0F03        	mov a,3
 160  0025  00EA        	mov [106],a
 161  0026              #line 161 "C:\Users\houlinfeng\Desktop\TwoWireDevice_Hou\source\config.c"
 161  0026  36D0        	clr [80].5
 163  0027              #line 163 "C:\Users\houlinfeng\Desktop\TwoWireDevice_Hou\source\config.c"
 163  0027  30D0        	set [80].1
 164  0028              #line 164 "C:\Users\houlinfeng\Desktop\TwoWireDevice_Hou\source\config.c"
 164  0028  314A        	set [74].2
 165  0029              #line 165 "C:\Users\houlinfeng\Desktop\TwoWireDevice_Hou\source\config.c"
 165  0029  31E5        	set [101].3
 169  002A              #line 169 "C:\Users\houlinfeng\Desktop\TwoWireDevice_Hou\source\config.c"
 169  002A  2000     R  	call _PltCaliCmp
 170  002B              #line 170 "C:\Users\houlinfeng\Desktop\TwoWireDevice_Hou\source\config.c"
 170  002B  2000     R  	call _PltCaliOpa
 172  002C              #line 172 "C:\Users\houlinfeng\Desktop\TwoWireDevice_Hou\source\config.c"
 172  002C  0F0C        	mov a,12
 172  002D  2000     R  	call _PltInit
 173  002E              #line 173 "C:\Users\houlinfeng\Desktop\TwoWireDevice_Hou\source\config.c"
 173  002E  2000     E  	call _AdjustBusVolt
文件：config.c     编译器版本 HGASM 0202 页次25

 175  002F              #line 175 "C:\Users\houlinfeng\Desktop\TwoWireDevice_Hou\source\config.c"
 175  002F  2000     R  	call _PtmInit
 175  0030  0003        	ret
 175  0031              _SystemInit endp
 175  0031              #line 175 "C:\Users\houlinfeng\Desktop\TwoWireDevice_Hou\source\config.c"
 175  0031              #pragma debug scope 1 1
 175  0031              public _PltOpaSwitchOn
 175  0031              #pragma debug scope 7 1
 457  0031              #line 457 "C:\Users\houlinfeng\Desktop\TwoWireDevice_Hou\source\config.c"
 457  0000              _PltOpaSwitchOn .section 'code'
 457  0000              _PltOpaSwitchOn proc
 462  0000              #line 462 "C:\Users\houlinfeng\Desktop\TwoWireDevice_Hou\source\config.c"
 462  0000  3031        	set [49].0
 463  0001              #line 463 "C:\Users\houlinfeng\Desktop\TwoWireDevice_Hou\source\config.c"
 463  0001  0F06        	mov a,6
 463  0002  00B5        	mov [53],a
 463  0003  0003        	ret
 463  0004              _PltOpaSwitchOn endp
 463  0004              #line 463 "C:\Users\houlinfeng\Desktop\TwoWireDevice_Hou\source\config.c"
 463  0004              #pragma debug scope 1 1
 463  0004              public _PltOpaSwitchOff
 463  0004              #pragma debug scope 8 1
 470  0004              #line 470 "C:\Users\houlinfeng\Desktop\TwoWireDevice_Hou\source\config.c"
 470  0000              _PltOpaSwitchOff .section 'code'
 470  0000              _PltOpaSwitchOff proc
 471  0000              #line 471 "C:\Users\houlinfeng\Desktop\TwoWireDevice_Hou\source\config.c"
 471  0000  1F35        	clr [53]
 473  0001              #line 473 "C:\Users\houlinfeng\Desktop\TwoWireDevice_Hou\source\config.c"
 473  0001  3431        	clr [49].0
 474  0002              #line 474 "C:\Users\houlinfeng\Desktop\TwoWireDevice_Hou\source\config.c"
 474  0002  3532        	clr [50].2
 475  0003              #line 475 "C:\Users\houlinfeng\Desktop\TwoWireDevice_Hou\source\config.c"
 475  0003  373B        	clr [59].6
 475  0004  0003        	ret
 475  0005              _PltOpaSwitchOff endp
 475  0005              #line 475 "C:\Users\houlinfeng\Desktop\TwoWireDevice_Hou\source\config.c"
 475  0005              #pragma debug scope 1 1
 475  0005              ___sadc1 equ [48]
 475  0005              ___sadc0 equ [47]
 475  0005              ___sadoh equ [45]
 475  0005              public _PltLineVolt
 475  0005              #pragma debug scope 9 1
 484  0005              #line 484 "C:\Users\houlinfeng\Desktop\TwoWireDevice_Hou\source\config.c"
 484  0000              _PltLineVolt .section 'code'
 484  0000              _PltLineVolt proc
 492  0000              #line 492 "C:\Users\houlinfeng\Desktop\TwoWireDevice_Hou\source\config.c"
 492  0000  0F06        	mov a,6
 492  0001  00B1        	mov [49],a
 493  0002              #line 493 "C:\Users\houlinfeng\Desktop\TwoWireDevice_Hou\source\config.c"
 493  0002  333B        	set [59].6
 499  0003              #line 499 "C:\Users\houlinfeng\Desktop\TwoWireDevice_Hou\source\config.c"
 499  0003  0F4A        	mov a,74
 499  0004  00B0        	mov [48],a
 502  0005              #line 502 "C:\Users\houlinfeng\Desktop\TwoWireDevice_Hou\source\config.c"
 502  0005  0F2F        	mov a,47
 502  0006  00AF        	mov [47],a
 504  0007              #line 504 "C:\Users\houlinfeng\Desktop\TwoWireDevice_Hou\source\config.c"
 504  0007              ;# 504 "C:\Users\houlinfeng\Desktop\TwoWireDevice_Hou\source\config.c" 1
 504  0007              	IF 40>263690
 504  0007              ;# 504 "C:\Users\houlinfeng\Desktop\TwoWireDevice_Hou\source\config.c" 1
文件：config.c     编译器版本 HGASM 0202 页次26

 504  0007              	ERRMESSAGE 'the value 40of the argument exceeds the maxinum 263690'
 504  0007              	ENDIF
 504  0007              ;# 504 "C:\Users\houlinfeng\Desktop\TwoWireDevice_Hou\source\config.c" 1
 504  0007              	IF 40<0
 504  0007              ;# 504 "C:\Users\houlinfeng\Desktop\TwoWireDevice_Hou\source\config.c" 1
 504  0007              	ERRMESSAGE 'the value 40 of the argument exceeds the mininum 0'
 504  0007              	ENDIF
 504  0007              ;# 504 "C:\Users\houlinfeng\Desktop\TwoWireDevice_Hou\source\config.c" 1
 504  0007              	IF 40==0
 504  0007              ;# 504 "C:\Users\houlinfeng\Desktop\TwoWireDevice_Hou\source\config.c" 1
 504  0007              	JMP $
 504  0007              	ENDIF
 504  0007              ;# 504 "C:\Users\houlinfeng\Desktop\TwoWireDevice_Hou\source\config.c" 1
 504  0007              	IF 40==1
 504  0007              ;# 504 "C:\Users\houlinfeng\Desktop\TwoWireDevice_Hou\source\config.c" 1
 504  0007              	NOP
 504  0007              	ENDIF
 504  0007              ;# 504 "C:\Users\houlinfeng\Desktop\TwoWireDevice_Hou\source\config.c" 1
 504  0007              	IF 40==2
 504  0007              ;# 504 "C:\Users\houlinfeng\Desktop\TwoWireDevice_Hou\source\config.c" 1
 504  0007              	NOP
 504  0007              ;# 504 "C:\Users\houlinfeng\Desktop\TwoWireDevice_Hou\source\config.c" 1
 504  0007              	NOP
 504  0007              	ENDIF
 504  0007              ;# 504 "C:\Users\houlinfeng\Desktop\TwoWireDevice_Hou\source\config.c" 1
 504  0007              	IF 40==3
 504  0007              ;# 504 "C:\Users\houlinfeng\Desktop\TwoWireDevice_Hou\source\config.c" 1
 504  0007              	NOP
 504  0007              ;# 504 "C:\Users\houlinfeng\Desktop\TwoWireDevice_Hou\source\config.c" 1
 504  0007              	NOP
 504  0007              ;# 504 "C:\Users\houlinfeng\Desktop\TwoWireDevice_Hou\source\config.c" 1
 504  0007              	NOP
 504  0007              	ENDIF
 504  0007              ;# 504 "C:\Users\houlinfeng\Desktop\TwoWireDevice_Hou\source\config.c" 1
 504  0007              	IF (40<8) AND (40>3)
 504  0007              ;# 504 "C:\Users\houlinfeng\Desktop\TwoWireDevice_Hou\source\config.c" 1
 504  0007              	CALL __DELAY3 + 7 -40
 504  0007              	ENDIF
 504  0007              ;# 504 "C:\Users\houlinfeng\Desktop\TwoWireDevice_Hou\source\config.c" 1
 504  0007              	IF (40< 0404h) AND (40>7)
 504  0007              ;# 504 "C:\Users\houlinfeng\Desktop\TwoWireDevice_Hou\source\config.c" 1
 504  0007  0F09        	MOV A,40/4-1
 504  0008              ;# 504 "C:\Users\houlinfeng\Desktop\TwoWireDevice_Hou\source\config.c" 1
 504  0008  2000     E  	CALL __DELAYX3 + 3 -(40 MOD 4)
 504  0009              	ENDIF
 504  0009              ;# 504 "C:\Users\houlinfeng\Desktop\TwoWireDevice_Hou\source\config.c" 1
 504  0009              	IF (40< 0x40B) AND (40> 0403h)
 504  0009              ;# 504 "C:\Users\houlinfeng\Desktop\TwoWireDevice_Hou\source\config.c" 1
 504  0009              	MOV A,0 
 504  0009              ;# 504 "C:\Users\houlinfeng\Desktop\TwoWireDevice_Hou\source\config.c" 1
 504  0009              	CALL __DELAYX6 + 0x40a -40
 504  0009              	ENDIF
 504  0009              ;# 504 "C:\Users\houlinfeng\Desktop\TwoWireDevice_Hou\source\config.c" 1
 504  0009              	IF (40 >= 0x40b) AND ((((40-9)%0402h)/4+1)>256)
 504  0009              ;# 504 "C:\Users\houlinfeng\Desktop\TwoWireDevice_Hou\source\config.c" 1
 504  0009              	MOV A,(40-9)/0402h
 504  0009              ;# 504 "C:\Users\houlinfeng\Desktop\TwoWireDevice_Hou\source\config.c" 1
 504  0009              	MOV _builtin_holtek_delay_2,A
 504  0009              ;# 504 "C:\Users\houlinfeng\Desktop\TwoWireDevice_Hou\source\config.c" 1
 504  0009              	MOV A,0
文件：config.c     编译器版本 HGASM 0202 页次27

 504  0009              ;# 504 "C:\Users\houlinfeng\Desktop\TwoWireDevice_Hou\source\config.c" 1
 504  0009              	CALL __DELAYY5 +5- (((40-9)%0402h)%6)
 504  0009              	ENDIF
 504  0009              ;# 504 "C:\Users\houlinfeng\Desktop\TwoWireDevice_Hou\source\config.c" 1
 504  0009              	IF (40 >= 0x40b) AND ((((40-9)%0402h)/4+1)<=256)
 504  0009              ;# 504 "C:\Users\houlinfeng\Desktop\TwoWireDevice_Hou\source\config.c" 1
 504  0009              	MOV A,(40-9)/0402h
 504  0009              ;# 504 "C:\Users\houlinfeng\Desktop\TwoWireDevice_Hou\source\config.c" 1
 504  0009              	MOV _builtin_holtek_delay_2,A
 504  0009              ;# 504 "C:\Users\houlinfeng\Desktop\TwoWireDevice_Hou\source\config.c" 1
 504  0009              	MOV A,((40-9)%0402h)/4+1
 504  0009              ;# 504 "C:\Users\houlinfeng\Desktop\TwoWireDevice_Hou\source\config.c" 1
 504  0009              	CALL __DELAYY3 +3-(((40-9)%0402h)%4)
 504  0009              	ENDIF
 504  0009  0F04        	mov a,4
 504  000A  0080     E  	mov rg,a
 490  000B              #line 490 "C:\Users\houlinfeng\Desktop\TwoWireDevice_Hou\source\config.c"
 490  000B  1F00     E  	clr rd
 490  000C  1F00     E  	clr re
 488  000D              #line 488 "C:\Users\houlinfeng\Desktop\TwoWireDevice_Hou\source\config.c"
 488  000D  1F00     E  	clr rb
 488  000E  1F00     E  	clr rc
 487  000F              #line 487 "C:\Users\houlinfeng\Desktop\TwoWireDevice_Hou\source\config.c"
 487  000F  1F80     E  	set rf
 486  0010              #line 486 "C:\Users\houlinfeng\Desktop\TwoWireDevice_Hou\source\config.c"
 486  0010  1F00     E  	clr ra
 486  0011              _L51:
 509  0011              #line 509 "C:\Users\houlinfeng\Desktop\TwoWireDevice_Hou\source\config.c"
 509  0011  37AF        	clr [47].7
 510  0012              #line 510 "C:\Users\houlinfeng\Desktop\TwoWireDevice_Hou\source\config.c"
 510  0012  33AF        	set [47].7
 511  0013              #line 511 "C:\Users\houlinfeng\Desktop\TwoWireDevice_Hou\source\config.c"
 511  0013  37AF        	clr [47].7
 511  0014              _L43:
 512  0014              #line 512 "C:\Users\houlinfeng\Desktop\TwoWireDevice_Hou\source\config.c"
 512  0014  3F2F        	sz [47].6
 512  0015  2800     R  	jmp _L44
 512  0016              _L48:
 514  0016              #line 514 "C:\Users\houlinfeng\Desktop\TwoWireDevice_Hou\source\config.c"
 514  0016  072D        	mov a,[45]
 514  0017  0380     E  	addm a,rb
 514  0018  3C0A        	sz c
 514  0019  1480     E  	inc rc
 516  001A              #line 516 "C:\Users\houlinfeng\Desktop\TwoWireDevice_Hou\source\config.c"
 516  001A  072D        	mov a,[45]
 516  001B  0200     E  	sub a,rf
 516  001C  3C0A        	sz c
 516  001D  2800     R  	jmp _L46
 518  001E              #line 518 "C:\Users\houlinfeng\Desktop\TwoWireDevice_Hou\source\config.c"
 518  001E  072D        	mov a,[45]
 518  001F  0080     E  	mov rf,a
 518  0020  2800     R  	jmp _L46
 518  0021              _L44:
 512  0021              #line 512 "C:\Users\houlinfeng\Desktop\TwoWireDevice_Hou\source\config.c"
 512  0021  0700     E  	mov a,rd
 512  0022  0AE8        	sub a,232
 512  0023  0700     E  	mov a,re
 512  0024  0803        	sbc a,3
 512  0025  3F0A        	sz cz
 512  0026  2800     R  	jmp _L48
文件：config.c     编译器版本 HGASM 0202 页次28

 512  0027  1480     E  	inc rd
 512  0028  3D0A        	sz z
 512  0029  1480     E  	inc re
 512  002A  2800     R  	jmp _L43
 512  002B              _L46:
 521  002B              #line 521 "C:\Users\houlinfeng\Desktop\TwoWireDevice_Hou\source\config.c"
 521  002B  0700     E  	mov a,ra
 521  002C  022D        	sub a,[45]
 521  002D  3C0A        	sz c
 521  002E  2800     R  	jmp _L49
 523  002F              #line 523 "C:\Users\houlinfeng\Desktop\TwoWireDevice_Hou\source\config.c"
 523  002F  072D        	mov a,[45]
 523  0030  0080     E  	mov ra,a
 523  0031              _L49:
 523  0031  1780     E  	sdz rg
 523  0032  2800     R  	jmp _L51
 526  0033              #line 526 "C:\Users\houlinfeng\Desktop\TwoWireDevice_Hou\source\config.c"
 526  0033  36AF        	clr [47].5
 529  0034              #line 529 "C:\Users\houlinfeng\Desktop\TwoWireDevice_Hou\source\config.c"
 529  0034  0700     E  	mov a,rb
 529  0035  0200     E  	sub a,rf
 529  0036  0080     E  	mov rb,a
 529  0037  0700     E  	mov a,rc
 529  0038  1F00     E  	clr rc
 529  0039  1280     E  	sbcm a,rc
 530  003A              #line 530 "C:\Users\houlinfeng\Desktop\TwoWireDevice_Hou\source\config.c"
 530  003A  0700     E  	mov a,rb
 530  003B  0200     E  	sub a,ra
 530  003C  0080     E  	mov rb,a
 530  003D  0700     E  	mov a,rc
 530  003E  1F00     E  	clr rc
 530  003F  1280     E  	sbcm a,rc
 532  0040              #line 532 "C:\Users\houlinfeng\Desktop\TwoWireDevice_Hou\source\config.c"
 532  0040  340A        	clr c
 532  0041  1B80     E  	rrc rc
 532  0042  1B80     E  	rrc rb
 534  0043              #line 534 "C:\Users\houlinfeng\Desktop\TwoWireDevice_Hou\source\config.c"
 534  0043  0700     E  	mov a,rb
 534  0044  0080     E  	mov rd,a
 534  0045  0700     E  	mov a,rc
 534  0046  0080     E  	mov re,a
 534  0047  0FFF        	mov a,255  
 534  0048  0680     E  	andm a,rd  
 534  0049  0F00        	mov a,0  
 534  004A  0680     E  	andm a,re
 534  004B  0700     E  	mov a,rd
 534  004C  0080     E  	mov _FuncData[22],a
 534  004D  0700     E  	mov a,re
 534  004E  0080     E  	mov _FuncData[23],a
 537  004F              #line 537 "C:\Users\houlinfeng\Desktop\TwoWireDevice_Hou\source\config.c"
 537  004F  0700     E  	mov a,rb
 537  0050  0003        	ret
 537  0051              _PltLineVolt endp
 537  0051              #line 537 "C:\Users\houlinfeng\Desktop\TwoWireDevice_Hou\source\config.c"
 537  0051              #pragma debug scope 1 1
 537  0051              ___pcs0 equ [110]
 537  0051              ___ptm1c0 equ [93]
 537  0051              ___ptm1c1 equ [94]
 537  0051              ___ptm1rpl equ [99]
 537  0051              ___ptm1rph equ [100]
文件：config.c     编译器版本 HGASM 0202 页次29

 537  0051              ___ptm1al equ [97]
 537  0051              ___ptm1ah equ [98]
 537  0051              ___ptm1dl equ [95]
 537  0051              ___ptm1dh equ [96]
 537  0051              ___mfi2 equ [78]
 537  0051              public _PWMTimer
 537  0051              #pragma debug scope 10 1
 683  0051              #line 683 "C:\Users\houlinfeng\Desktop\TwoWireDevice_Hou\source\config.c"
 683  0000              _PWMTimer .section 'code'
 683  0000              _PWMTimer proc
 683  0000  00              local _PWMTimer_2 db 1 dup(?)	; 0,1
 683  0000  0080     E  	mov ra,a
 683  0001  0080     R  	mov _PWMTimer_2[0],a
 683  0002              #pragma debug variable 8 10 _PWMTimer_2+0 "Flag"
 690  0002              #line 690 "C:\Users\houlinfeng\Desktop\TwoWireDevice_Hou\source\config.c"
 690  0002  1080     E  	sz ra
 690  0003  2800     R  	jmp _L53
 694  0004              #line 694 "C:\Users\houlinfeng\Desktop\TwoWireDevice_Hou\source\config.c"
 694  0004  34EE        	clr [110].1
 695  0005              #line 695 "C:\Users\houlinfeng\Desktop\TwoWireDevice_Hou\source\config.c"
 695  0005  346E        	clr [110].0
 696  0006              #line 696 "C:\Users\houlinfeng\Desktop\TwoWireDevice_Hou\source\config.c"
 696  0006  1F5D        	clr [93]
 697  0007              #line 697 "C:\Users\houlinfeng\Desktop\TwoWireDevice_Hou\source\config.c"
 697  0007  0F88        	mov a,136
 697  0008  00DE        	mov [94],a
 698  0009              #line 698 "C:\Users\houlinfeng\Desktop\TwoWireDevice_Hou\source\config.c"
 698  0009  1F00     E  	clr ra
 698  000A  2800     R  	jmp _L54
 698  000B              _L53:
 745  000B              #line 745 "C:\Users\houlinfeng\Desktop\TwoWireDevice_Hou\source\config.c"
 745  000B  0700     R  	mov a,_PWMTimer_2[0]
 745  000C  0A02        	sub a,2
 745  000D  390A        	snz z
 745  000E  2800     R  	jmp _L55
 749  000F              #line 749 "C:\Users\houlinfeng\Desktop\TwoWireDevice_Hou\source\config.c"
 749  000F  1F5D        	clr [93]
 750  0010              #line 750 "C:\Users\houlinfeng\Desktop\TwoWireDevice_Hou\source\config.c"
 750  0010  0FA4        	mov a,164
 750  0011  00DE        	mov [94],a
 753  0012              #line 753 "C:\Users\houlinfeng\Desktop\TwoWireDevice_Hou\source\config.c"
 753  0012  0F62        	mov a,98
 753  0013  00E3        	mov [99],a
 754  0014              #line 754 "C:\Users\houlinfeng\Desktop\TwoWireDevice_Hou\source\config.c"
 754  0014  0F01        	mov a,1
 754  0015  00E4        	mov [100],a
 756  0016              #line 756 "C:\Users\houlinfeng\Desktop\TwoWireDevice_Hou\source\config.c"
 756  0016  0F0A        	mov a,10
 756  0017  00E1        	mov [97],a
 756  0018  2800     R  	jmp _L62
 756  0019              _L55:
 773  0019              #line 773 "C:\Users\houlinfeng\Desktop\TwoWireDevice_Hou\source\config.c"
 773  0019  0700     R  	mov a,_PWMTimer_2[0]
 773  001A  0A03        	sub a,3
 773  001B  390A        	snz z
 773  001C  2800     R  	jmp _L56
 776  001D              #line 776 "C:\Users\houlinfeng\Desktop\TwoWireDevice_Hou\source\config.c"
 776  001D  1F5D        	clr [93]
 777  001E              #line 777 "C:\Users\houlinfeng\Desktop\TwoWireDevice_Hou\source\config.c"
 777  001E  0FA4        	mov a,164
文件：config.c     编译器版本 HGASM 0202 页次30

 777  001F  00DE        	mov [94],a
 781  0020              #line 781 "C:\Users\houlinfeng\Desktop\TwoWireDevice_Hou\source\config.c"
 781  0020  0700     E  	mov a,_FuncData[45]
 781  0021  0080     E  	mov rb,a
 781  0022  1080     E  	sz rb
 781  0023  2800     R  	jmp _L63
 795  0024              #line 795 "C:\Users\houlinfeng\Desktop\TwoWireDevice_Hou\source\config.c"
 795  0024  0F6F        	mov a,111
 795  0025  00E3        	mov [99],a
 796  0026              #line 796 "C:\Users\houlinfeng\Desktop\TwoWireDevice_Hou\source\config.c"
 796  0026  0F01        	mov a,1
 796  0027  00E4        	mov [100],a
 798  0028              #line 798 "C:\Users\houlinfeng\Desktop\TwoWireDevice_Hou\source\config.c"
 798  0028  0FC3        	mov a,195
 798  0029  00E1        	mov [97],a
 798  002A  2800     R  	jmp _L62
 798  002B              _L56:
 814  002B              #line 814 "C:\Users\houlinfeng\Desktop\TwoWireDevice_Hou\source\config.c"
 814  002B  0700     R  	mov a,_PWMTimer_2[0]
 814  002C  0A04        	sub a,4
 814  002D  390A        	snz z
 814  002E  2800     R  	jmp _L61
 817  002F              #line 817 "C:\Users\houlinfeng\Desktop\TwoWireDevice_Hou\source\config.c"
 817  002F  1F5D        	clr [93]
 818  0030              #line 818 "C:\Users\houlinfeng\Desktop\TwoWireDevice_Hou\source\config.c"
 818  0030  0FA4        	mov a,164
 818  0031  00DE        	mov [94],a
 822  0032              #line 822 "C:\Users\houlinfeng\Desktop\TwoWireDevice_Hou\source\config.c"
 822  0032  0700     E  	mov a,_FuncData[45]
 822  0033  0080     E  	mov rb,a
 822  0034  1E00     E  	snz rb
 822  0035  2800     R  	jmp _L59
 822  0036              _L63:
 824  0036              #line 824 "C:\Users\houlinfeng\Desktop\TwoWireDevice_Hou\source\config.c"
 824  0036  1580     E  	dec rb
 824  0037  0700     E  	mov a,rb
 824  0038  0080     E  	mov _FuncData[45],a
 826  0039              #line 826 "C:\Users\houlinfeng\Desktop\TwoWireDevice_Hou\source\config.c"
 826  0039  1F00     E  	clr rc
 826  003A  340A        	clr c
 826  003B  1A80     E  	rlc rb
 826  003C  1A80     E  	rlc rc
 826  003D  0F00     R  	mov a,low offset _uiSoundGraBuff
 826  003E  0300     E  	add a,rb
 826  003F  0083        	mov mp,a
 826  0040  0F00     R  	mov a,high offset _uiSoundGraBuff
 826  0041  1300     E  	adc a,rc
 826  0042  0084        	mov sbp,a
 826  0043  2000     E  	call _Crom2Prom
 826  0044  0080     E  	mov rd,a
 826  0045  2000     E  	call _Crom2PromNext
 826  0046  0080     E  	mov re,a
 826  0047  0700     E  	mov a,rd
 826  0048  00E3        	mov [99],a
 827  0049              #line 827 "C:\Users\houlinfeng\Desktop\TwoWireDevice_Hou\source\config.c"
 827  0049  0700     E  	mov a,re
 827  004A  00E4        	mov [100],a
 829  004B              #line 829 "C:\Users\houlinfeng\Desktop\TwoWireDevice_Hou\source\config.c"
 829  004B  0F00     R  	mov a,low offset _ucSoundHighBuff
 829  004C  0300     E  	add a,rb
文件：config.c     编译器版本 HGASM 0202 页次31

 829  004D  0083        	mov mp,a
 829  004E  0F00     R  	mov a,high offset _ucSoundHighBuff
 829  004F  1300     E  	adc a,rc
 829  0050  0084        	mov sbp,a
 829  0051  2000     E  	call _Crom2Prom
 829  0052  0080     E  	mov rb,a
 829  0053  2000     E  	call _Crom2PromNext
 829  0054  0080     E  	mov rc,a
 829  0055  0700     E  	mov a,rb
 829  0056  00E1        	mov [97],a
 830  0057              #line 830 "C:\Users\houlinfeng\Desktop\TwoWireDevice_Hou\source\config.c"
 830  0057  0700     E  	mov a,rc
 830  0058  00E2        	mov [98],a
 830  0059  2800     R  	jmp _L60
 830  005A              _L59:
 838  005A              #line 838 "C:\Users\houlinfeng\Desktop\TwoWireDevice_Hou\source\config.c"
 838  005A  0F6F        	mov a,111
 838  005B  00E3        	mov [99],a
 839  005C              #line 839 "C:\Users\houlinfeng\Desktop\TwoWireDevice_Hou\source\config.c"
 839  005C  0F01        	mov a,1
 839  005D  00E4        	mov [100],a
 841  005E              #line 841 "C:\Users\houlinfeng\Desktop\TwoWireDevice_Hou\source\config.c"
 841  005E  0F23        	mov a,35
 841  005F  00E1        	mov [97],a
 841  0060              _L62:
 842  0060              #line 842 "C:\Users\houlinfeng\Desktop\TwoWireDevice_Hou\source\config.c"
 842  0060  1F62        	clr [98]
 842  0061              _L60:
 845  0061              #line 845 "C:\Users\houlinfeng\Desktop\TwoWireDevice_Hou\source\config.c"
 845  0061  1F5F        	clr [95]
 846  0062              #line 846 "C:\Users\houlinfeng\Desktop\TwoWireDevice_Hou\source\config.c"
 846  0062  1F60        	clr [96]
 848  0063              #line 848 "C:\Users\houlinfeng\Desktop\TwoWireDevice_Hou\source\config.c"
 848  0063  364E        	clr [78].4
 849  0064              #line 849 "C:\Users\houlinfeng\Desktop\TwoWireDevice_Hou\source\config.c"
 849  0064  344E        	clr [78].0
 851  0065              #line 851 "C:\Users\houlinfeng\Desktop\TwoWireDevice_Hou\source\config.c"
 851  0065  31DD        	set [93].3
 854  0066              #line 854 "C:\Users\houlinfeng\Desktop\TwoWireDevice_Hou\source\config.c"
 854  0066  34EE        	clr [110].1
 855  0067              #line 855 "C:\Users\houlinfeng\Desktop\TwoWireDevice_Hou\source\config.c"
 855  0067  306E        	set [110].0
 855  0068              _L61:
 859  0068              #line 859 "C:\Users\houlinfeng\Desktop\TwoWireDevice_Hou\source\config.c"
 859  0068  0F01        	mov a,1
 859  0069  0080     E  	mov ra,a
 859  006A              _L54:
 861  006A              #line 861 "C:\Users\houlinfeng\Desktop\TwoWireDevice_Hou\source\config.c"
 861  006A  0700     E  	mov a,ra
 861  006B  0003        	ret
 861  006C              _PWMTimer endp
 861  006C              #line 861 "C:\Users\houlinfeng\Desktop\TwoWireDevice_Hou\source\config.c"
 861  006C              #pragma debug scope 1 1
 861  006C              ___ctm0c0 equ [39]
 861  006C              ___ctm0c1 equ [40]
 861  006C              ___ctm0dl equ [41]
 861  006C              ___ctm0al equ [43]
 861  006C              ___ctm0ah equ [44]
 861  006C              ___mfi3 equ [79]
 861  006C              public _LEDTimer
文件：config.c     编译器版本 HGASM 0202 页次32

 861  006C              #pragma debug scope 11 1
 873  006C              #line 873 "C:\Users\houlinfeng\Desktop\TwoWireDevice_Hou\source\config.c"
 873  0000              _LEDTimer .section 'code'
 873  0000              _LEDTimer proc
 873  0000  00              local _LEDTimer_2 db 1 dup(?)	; 0,1
 873  0000  0080     E  	mov ra,a
 873  0001  0080     R  	mov _LEDTimer_2[0],a
 873  0002              #pragma debug variable 8 11 _LEDTimer_2+0 "Flag"
 917  0002              #line 917 "C:\Users\houlinfeng\Desktop\TwoWireDevice_Hou\source\config.c"
 917  0002  1080     E  	sz ra
 917  0003  2800     R  	jmp _L65
 919  0004              #line 919 "C:\Users\houlinfeng\Desktop\TwoWireDevice_Hou\source\config.c"
 919  0004  1F27        	clr [39]
 920  0005              #line 920 "C:\Users\houlinfeng\Desktop\TwoWireDevice_Hou\source\config.c"
 920  0005  1F28        	clr [40]
 921  0006              #line 921 "C:\Users\houlinfeng\Desktop\TwoWireDevice_Hou\source\config.c"
 921  0006  0729        	mov a,[41]
 921  0007  0080     E  	mov ra,a
 921  0008  2800     R  	jmp _L66
 921  0009              _L65:
 924  0009              #line 924 "C:\Users\houlinfeng\Desktop\TwoWireDevice_Hou\source\config.c"
 924  0009  1700     R  	sdza _LEDTimer_2[0]
 924  000A  2800     R  	jmp _L67
 926  000B              #line 926 "C:\Users\houlinfeng\Desktop\TwoWireDevice_Hou\source\config.c"
 926  000B  0F30        	mov a,48
 926  000C  00A7        	mov [39],a
 927  000D              #line 927 "C:\Users\houlinfeng\Desktop\TwoWireDevice_Hou\source\config.c"
 927  000D  0FB8        	mov a,184
 927  000E  00A8        	mov [40],a
 928  000F              #line 928 "C:\Users\houlinfeng\Desktop\TwoWireDevice_Hou\source\config.c"
 928  000F  0FFA        	mov a,250
 928  0010  00AB        	mov [43],a
 929  0011              #line 929 "C:\Users\houlinfeng\Desktop\TwoWireDevice_Hou\source\config.c"
 929  0011  1F2C        	clr [44]
 930  0012              #line 930 "C:\Users\houlinfeng\Desktop\TwoWireDevice_Hou\source\config.c"
 930  0012  36CF        	clr [79].5
 931  0013              #line 931 "C:\Users\houlinfeng\Desktop\TwoWireDevice_Hou\source\config.c"
 931  0013  0F38        	mov a,56
 931  0014  00A7        	mov [39],a
 932  0015              #line 932 "C:\Users\houlinfeng\Desktop\TwoWireDevice_Hou\source\config.c"
 932  0015  0F01        	mov a,1
 932  0016  0080     E  	mov ra,a
 932  0017  2800     R  	jmp _L66
 932  0018              _L67:
 935  0018              #line 935 "C:\Users\houlinfeng\Desktop\TwoWireDevice_Hou\source\config.c"
 935  0018  0700     R  	mov a,_LEDTimer_2[0]
 935  0019  0A02        	sub a,2
 935  001A  390A        	snz z
 935  001B  2800     R  	jmp _L68
 937  001C              #line 937 "C:\Users\houlinfeng\Desktop\TwoWireDevice_Hou\source\config.c"
 937  001C  0F30        	mov a,48
 937  001D  00A7        	mov [39],a
 938  001E              #line 938 "C:\Users\houlinfeng\Desktop\TwoWireDevice_Hou\source\config.c"
 938  001E  0FB8        	mov a,184
 938  001F  00A8        	mov [40],a
 939  0020              #line 939 "C:\Users\houlinfeng\Desktop\TwoWireDevice_Hou\source\config.c"
 939  0020  0F39        	mov a,57
 939  0021  00AB        	mov [43],a
 940  0022              #line 940 "C:\Users\houlinfeng\Desktop\TwoWireDevice_Hou\source\config.c"
 940  0022  0F01        	mov a,1
文件：config.c     编译器版本 HGASM 0202 页次33

 940  0023  00AC        	mov [44],a
 941  0024              #line 941 "C:\Users\houlinfeng\Desktop\TwoWireDevice_Hou\source\config.c"
 941  0024  36CF        	clr [79].5
 942  0025              #line 942 "C:\Users\houlinfeng\Desktop\TwoWireDevice_Hou\source\config.c"
 942  0025  0F38        	mov a,56
 942  0026  00A7        	mov [39],a
 943  0027              #line 943 "C:\Users\houlinfeng\Desktop\TwoWireDevice_Hou\source\config.c"
 943  0027  0F02        	mov a,2
 943  0028  0080     E  	mov ra,a
 943  0029  2800     R  	jmp _L66
 943  002A              _L68:
 948  002A              #line 948 "C:\Users\houlinfeng\Desktop\TwoWireDevice_Hou\source\config.c"
 948  002A  1F00     E  	clr ra
 948  002B  3ECF        	sz [79].5
 948  002C  1480     E  	inc ra
 948  002D              _L66:
 952  002D              #line 952 "C:\Users\houlinfeng\Desktop\TwoWireDevice_Hou\source\config.c"
 952  002D  0700     E  	mov a,ra
 952  002E  0003        	ret
 952  002F              _LEDTimer endp
 952  002F              #line 952 "C:\Users\houlinfeng\Desktop\TwoWireDevice_Hou\source\config.c"
 952  002F              #pragma debug scope 1 1
 952  002F              public _AdcSample
 952  002F              #pragma debug scope 12 1
1090  002F              #line 1090 "C:\Users\houlinfeng\Desktop\TwoWireDevice_Hou\source\config.c"
1090  0000              _AdcSample .section 'code'
1090  0000              _AdcSample proc
1090  0000  00              local _AdcSample_2 db 1 dup(?)	; 0,1
1090  0000  0080     E  	mov ra,a
1090  0001  0080     R  	mov _AdcSample_2[0],a
1090  0002              #pragma debug variable 8 12 _AdcSample_2+0 "Ch"
1104  0002              #line 1104 "C:\Users\houlinfeng\Desktop\TwoWireDevice_Hou\source\config.c"
1104  0002  0700     E  	mov a,ra
1104  0003  0A00        	sub a,0
1104  0004  3D0A        	sz z
1104  0005  2800     R  	jmp _L71
1104  0006  0A01        	sub a,(1)-(0)
1104  0007  3D0A        	sz z
1104  0008  2800     R  	jmp _L82
1104  0009              #line 1104 "C:\Users\houlinfeng\Desktop\TwoWireDevice_Hou\source\config.c"
1104  0009  0700     E  	mov a,ra
1104  000A  0A02        	sub a,2
1104  000B  3D0A        	sz z
1104  000C  2800     R  	jmp _L73
1104  000D  0A01        	sub a,(3)-(2)
1104  000E  3D0A        	sz z
1104  000F  2800     R  	jmp _L74
1104  0010  0700     E  	mov a,ra
1104  0011  0A04        	sub a,4
1104  0012  3D0A        	sz z
1104  0013  2800     R  	jmp _L75
1104  0014  0A01        	sub a,(5)-(4)
1104  0015  3D0A        	sz z
1104  0016  2800     R  	jmp _L76
1104  0017  0700     E  	mov a,ra
1104  0018  0A06        	sub a,6
1104  0019  390A        	snz z
1104  001A  2800     R  	jmp _L86
1121  001B              #line 1121 "C:\Users\houlinfeng\Desktop\TwoWireDevice_Hou\source\config.c"
1121  001B  0F60        	mov a,96
文件：config.c     编译器版本 HGASM 0202 页次34

1121  001C  0080     E  	mov rb,a
1121  001D  2800     R  	jmp _L87
1121  001E              _L71:
1107  001E              #line 1107 "C:\Users\houlinfeng\Desktop\TwoWireDevice_Hou\source\config.c"
1107  001E  1F00     E  	clr rb
1107  001F  1F00     E  	clr ra
1107  0020  2800     R  	jmp _L72
1107  0021              _L73:
1109  0021              #line 1109 "C:\Users\houlinfeng\Desktop\TwoWireDevice_Hou\source\config.c"
1109  0021  1F00     E  	clr rb
1109  0022  0F02        	mov a,2
1109  0023  0080     E  	mov ra,a
1109  0024  2800     R  	jmp _L72
1109  0025              _L74:
1110  0025              #line 1110 "C:\Users\houlinfeng\Desktop\TwoWireDevice_Hou\source\config.c"
1110  0025  1F00     E  	clr rb
1110  0026  0F03        	mov a,3
1110  0027  0080     E  	mov ra,a
1110  0028  2800     R  	jmp _L72
1110  0029              _L75:
1112  0029              #line 1112 "C:\Users\houlinfeng\Desktop\TwoWireDevice_Hou\source\config.c"
1112  0029  0F20        	mov a,32
1112  002A  0080     E  	mov rb,a
1112  002B  2800     R  	jmp _L87
1112  002C              _L76:
1120  002C              #line 1120 "C:\Users\houlinfeng\Desktop\TwoWireDevice_Hou\source\config.c"
1120  002C  0F40        	mov a,64
1120  002D  0080     E  	mov rb,a
1120  002E              _L87:
1121  002E              #line 1121 "C:\Users\houlinfeng\Desktop\TwoWireDevice_Hou\source\config.c"
1121  002E  0F08        	mov a,8
1121  002F  0080     E  	mov ra,a
1121  0030  2800     R  	jmp _L72
1121  0031              _L82:
1108  0031              #line 1108 "C:\Users\houlinfeng\Desktop\TwoWireDevice_Hou\source\config.c"
1108  0031  1F00     E  	clr rb
1108  0032  0F01        	mov a,1
1108  0033  0080     E  	mov ra,a
1108  0034              _L72:
1133  0034              #line 1133 "C:\Users\houlinfeng\Desktop\TwoWireDevice_Hou\source\config.c"
1133  0034  0700     E  	mov a,rb
1133  0035  0D0C        	or a,12
1133  0036  00B0        	mov [48],a
1136  0037              #line 1136 "C:\Users\houlinfeng\Desktop\TwoWireDevice_Hou\source\config.c"
1136  0037  0700     E  	mov a,ra
1136  0038  00AF        	mov [47],a
1137  0039              #line 1137 "C:\Users\houlinfeng\Desktop\TwoWireDevice_Hou\source\config.c"
1137  0039  32AF        	set [47].5
1139  003A              #line 1139 "C:\Users\houlinfeng\Desktop\TwoWireDevice_Hou\source\config.c"
1139  003A              ;# 1139 "C:\Users\houlinfeng\Desktop\TwoWireDevice_Hou\source\config.c" 1
1139  003A              	IF 8>263690
1139  003A              ;# 1139 "C:\Users\houlinfeng\Desktop\TwoWireDevice_Hou\source\config.c" 1
1139  003A              	ERRMESSAGE 'the value 8of the argument exceeds the maxinum 263690'
1139  003A              	ENDIF
1139  003A              ;# 1139 "C:\Users\houlinfeng\Desktop\TwoWireDevice_Hou\source\config.c" 1
1139  003A              	IF 8<0
1139  003A              ;# 1139 "C:\Users\houlinfeng\Desktop\TwoWireDevice_Hou\source\config.c" 1
1139  003A              	ERRMESSAGE 'the value 8 of the argument exceeds the mininum 0'
1139  003A              	ENDIF
1139  003A              ;# 1139 "C:\Users\houlinfeng\Desktop\TwoWireDevice_Hou\source\config.c" 1
文件：config.c     编译器版本 HGASM 0202 页次35

1139  003A              	IF 8==0
1139  003A              ;# 1139 "C:\Users\houlinfeng\Desktop\TwoWireDevice_Hou\source\config.c" 1
1139  003A              	JMP $
1139  003A              	ENDIF
1139  003A              ;# 1139 "C:\Users\houlinfeng\Desktop\TwoWireDevice_Hou\source\config.c" 1
1139  003A              	IF 8==1
1139  003A              ;# 1139 "C:\Users\houlinfeng\Desktop\TwoWireDevice_Hou\source\config.c" 1
1139  003A              	NOP
1139  003A              	ENDIF
1139  003A              ;# 1139 "C:\Users\houlinfeng\Desktop\TwoWireDevice_Hou\source\config.c" 1
1139  003A              	IF 8==2
1139  003A              ;# 1139 "C:\Users\houlinfeng\Desktop\TwoWireDevice_Hou\source\config.c" 1
1139  003A              	NOP
1139  003A              ;# 1139 "C:\Users\houlinfeng\Desktop\TwoWireDevice_Hou\source\config.c" 1
1139  003A              	NOP
1139  003A              	ENDIF
1139  003A              ;# 1139 "C:\Users\houlinfeng\Desktop\TwoWireDevice_Hou\source\config.c" 1
1139  003A              	IF 8==3
1139  003A              ;# 1139 "C:\Users\houlinfeng\Desktop\TwoWireDevice_Hou\source\config.c" 1
1139  003A              	NOP
1139  003A              ;# 1139 "C:\Users\houlinfeng\Desktop\TwoWireDevice_Hou\source\config.c" 1
1139  003A              	NOP
1139  003A              ;# 1139 "C:\Users\houlinfeng\Desktop\TwoWireDevice_Hou\source\config.c" 1
1139  003A              	NOP
1139  003A              	ENDIF
1139  003A              ;# 1139 "C:\Users\houlinfeng\Desktop\TwoWireDevice_Hou\source\config.c" 1
1139  003A              	IF (8<8) AND (8>3)
1139  003A              ;# 1139 "C:\Users\houlinfeng\Desktop\TwoWireDevice_Hou\source\config.c" 1
1139  003A              	CALL __DELAY3 + 7 -8
1139  003A              	ENDIF
1139  003A              ;# 1139 "C:\Users\houlinfeng\Desktop\TwoWireDevice_Hou\source\config.c" 1
1139  003A              	IF (8< 0404h) AND (8>7)
1139  003A              ;# 1139 "C:\Users\houlinfeng\Desktop\TwoWireDevice_Hou\source\config.c" 1
1139  003A  0F01        	MOV A,8/4-1
1139  003B              ;# 1139 "C:\Users\houlinfeng\Desktop\TwoWireDevice_Hou\source\config.c" 1
1139  003B  2000     E  	CALL __DELAYX3 + 3 -(8 MOD 4)
1139  003C              	ENDIF
1139  003C              ;# 1139 "C:\Users\houlinfeng\Desktop\TwoWireDevice_Hou\source\config.c" 1
1139  003C              	IF (8< 0x40B) AND (8> 0403h)
1139  003C              ;# 1139 "C:\Users\houlinfeng\Desktop\TwoWireDevice_Hou\source\config.c" 1
1139  003C              	MOV A,0 
1139  003C              ;# 1139 "C:\Users\houlinfeng\Desktop\TwoWireDevice_Hou\source\config.c" 1
1139  003C              	CALL __DELAYX6 + 0x40a -8
1139  003C              	ENDIF
1139  003C              ;# 1139 "C:\Users\houlinfeng\Desktop\TwoWireDevice_Hou\source\config.c" 1
1139  003C              	IF (8 >= 0x40b) AND ((((8-9)%0402h)/4+1)>256)
1139  003C              ;# 1139 "C:\Users\houlinfeng\Desktop\TwoWireDevice_Hou\source\config.c" 1
1139  003C              	MOV A,(8-9)/0402h
1139  003C              ;# 1139 "C:\Users\houlinfeng\Desktop\TwoWireDevice_Hou\source\config.c" 1
1139  003C              	MOV _builtin_holtek_delay_2,A
1139  003C              ;# 1139 "C:\Users\houlinfeng\Desktop\TwoWireDevice_Hou\source\config.c" 1
1139  003C              	MOV A,0
1139  003C              ;# 1139 "C:\Users\houlinfeng\Desktop\TwoWireDevice_Hou\source\config.c" 1
1139  003C              	CALL __DELAYY5 +5- (((8-9)%0402h)%6)
1139  003C              	ENDIF
1139  003C              ;# 1139 "C:\Users\houlinfeng\Desktop\TwoWireDevice_Hou\source\config.c" 1
1139  003C              	IF (8 >= 0x40b) AND ((((8-9)%0402h)/4+1)<=256)
1139  003C              ;# 1139 "C:\Users\houlinfeng\Desktop\TwoWireDevice_Hou\source\config.c" 1
1139  003C              	MOV A,(8-9)/0402h
1139  003C              ;# 1139 "C:\Users\houlinfeng\Desktop\TwoWireDevice_Hou\source\config.c" 1
文件：config.c     编译器版本 HGASM 0202 页次36

1139  003C              	MOV _builtin_holtek_delay_2,A
1139  003C              ;# 1139 "C:\Users\houlinfeng\Desktop\TwoWireDevice_Hou\source\config.c" 1
1139  003C              	MOV A,((8-9)%0402h)/4+1
1139  003C              ;# 1139 "C:\Users\houlinfeng\Desktop\TwoWireDevice_Hou\source\config.c" 1
1139  003C              	CALL __DELAYY3 +3-(((8-9)%0402h)%4)
1139  003C              	ENDIF
1143  003C              #line 1143 "C:\Users\houlinfeng\Desktop\TwoWireDevice_Hou\source\config.c"
1143  003C  37AF        	clr [47].7
1144  003D              #line 1144 "C:\Users\houlinfeng\Desktop\TwoWireDevice_Hou\source\config.c"
1144  003D  33AF        	set [47].7
1145  003E              #line 1145 "C:\Users\houlinfeng\Desktop\TwoWireDevice_Hou\source\config.c"
1145  003E  37AF        	clr [47].7
1146  003F              #line 1146 "C:\Users\houlinfeng\Desktop\TwoWireDevice_Hou\source\config.c"
1146  003F  0FE9        	mov a,-23
1146  0040  0080     E  	mov rb,a
1146  0041  0F03        	mov a,3
1146  0042  0080     E  	mov rc,a
1146  0043              _L78:
1146  0043  3B2F        	snz [47].6
1146  0044  2800     R  	jmp _L79
1146  0045  0FFF        	mov a,255
1146  0046  0380     E  	addm a,rb
1146  0047  0FFF        	mov a,255
1146  0048  1380     E  	adcm a,rc
1146  0049  0700     E  	mov a,rb
1146  004A  0500     E  	or a,rc
1146  004B  390A        	snz z
1146  004C  2800     R  	jmp _L78
1146  004D              _L79:
1150  004D              #line 1150 "C:\Users\houlinfeng\Desktop\TwoWireDevice_Hou\source\config.c"
1150  004D  072D        	mov a,[45]
1150  004E  0080     E  	mov ra,a
1151  004F              #line 1151 "C:\Users\houlinfeng\Desktop\TwoWireDevice_Hou\source\config.c"
1151  004F  36AF        	clr [47].5
1186  0050              #line 1186 "C:\Users\houlinfeng\Desktop\TwoWireDevice_Hou\source\config.c"
1186  0050  2800     R  	jmp _L70
1186  0051              _L86:
1123  0051              #line 1123 "C:\Users\houlinfeng\Desktop\TwoWireDevice_Hou\source\config.c"
1123  0051  1F00     E  	clr ra
1123  0052              _L70:
1187  0052              #line 1187 "C:\Users\houlinfeng\Desktop\TwoWireDevice_Hou\source\config.c"
1187  0052  0700     E  	mov a,ra
1187  0053  0003        	ret
1187  0054              _AdcSample endp
1187  0054              #line 1187 "C:\Users\houlinfeng\Desktop\TwoWireDevice_Hou\source\config.c"
1187  0054              #pragma debug scope 1 1
1187  0054              public _ucSoundHighBuff
1187  0000              @crom	.section 'crom'
  19  0000              #line 19 "C:\Users\houlinfeng\Desktop\TwoWireDevice_Hou\source\config.c"
  19  0000              @crom	.section	'crom'
  19  0000              _ucSoundHighBuff:
  19  0000              #pragma debug array 42 12 3 1
  19  0000              #pragma debug array 42 12 3 1
  19  0000              #pragma debug variable 42 1 _ucSoundHighBuff "ucSoundHighBuff"
  19  0000  0046        	dc 70
  19  0001  001E        	dc 30
  19  0002  0001        	dc 1
  19  0003              public _uiSoundGraBuff
  18  0003              #line 18 "C:\Users\houlinfeng\Desktop\TwoWireDevice_Hou\source\config.c"
  18  0003              @crom	.section	'crom'
文件：config.c     编译器版本 HGASM 0202 页次37

  18  0003              _uiSoundGraBuff:
  18  0003              #pragma debug variable 42 1 _uiSoundGraBuff "uiSoundGraBuff"
  18  0003  0168        	dc 360
  18  0004  0168        	dc 360
  18  0005  0168        	dc 360
  18  0006              #pragma debug struct_end
  18  0006              #pragma debug struct_end
  18  0006              #pragma debug union_end
  18  0006              #pragma debug union_end
  18  0006              #pragma debug variable 44 1 ___status "__status" 1
  18  0006              #pragma debug struct_end
  18  0006              #pragma debug struct_end
  18  0006              #pragma debug union_end
  18  0006              #pragma debug union_end
  18  0006              #pragma debug variable 46 1 ___scc "__scc" 1
  18  0006              #pragma debug struct_end
  18  0006              #pragma debug struct_end
  18  0006              #pragma debug union_end
  18  0006              #pragma debug union_end
  18  0006              #pragma debug variable 48 1 ___hircc "__hircc" 1
  18  0006              #pragma debug struct_end
  18  0006              #pragma debug struct_end
  18  0006              #pragma debug union_end
  18  0006              #pragma debug union_end
  18  0006              #pragma debug variable 50 1 ___pa "__pa" 1
  18  0006              #pragma debug struct_end
  18  0006              #pragma debug struct_end
  18  0006              #pragma debug union_end
  18  0006              #pragma debug union_end
  18  0006              #pragma debug variable 52 1 ___pac "__pac" 1
  18  0006              #pragma debug struct_end
  18  0006              #pragma debug struct_end
  18  0006              #pragma debug union_end
  18  0006              #pragma debug union_end
  18  0006              #pragma debug variable 54 1 ___papu "__papu" 1
  18  0006              #pragma debug struct_end
  18  0006              #pragma debug struct_end
  18  0006              #pragma debug union_end
  18  0006              #pragma debug union_end
  18  0006              #pragma debug variable 56 1 ___pawu "__pawu" 1
  18  0006              #pragma debug struct_end
  18  0006              #pragma debug struct_end
  18  0006              #pragma debug union_end
  18  0006              #pragma debug union_end
  18  0006              #pragma debug variable 58 1 ___pb "__pb" 1
  18  0006              #pragma debug struct_end
  18  0006              #pragma debug struct_end
  18  0006              #pragma debug union_end
  18  0006              #pragma debug union_end
  18  0006              #pragma debug variable 60 1 ___pbc "__pbc" 1
  18  0006              #pragma debug struct_end
  18  0006              #pragma debug struct_end
  18  0006              #pragma debug union_end
  18  0006              #pragma debug union_end
  18  0006              #pragma debug variable 62 1 ___pbpu "__pbpu" 1
  18  0006              #pragma debug struct_end
  18  0006              #pragma debug struct_end
  18  0006              #pragma debug union_end
  18  0006              #pragma debug union_end
  18  0006              #pragma debug variable 64 1 ___pc "__pc" 1
文件：config.c     编译器版本 HGASM 0202 页次38

  18  0006              #pragma debug struct_end
  18  0006              #pragma debug struct_end
  18  0006              #pragma debug union_end
  18  0006              #pragma debug union_end
  18  0006              #pragma debug variable 66 1 ___pcc "__pcc" 1
  18  0006              #pragma debug struct_end
  18  0006              #pragma debug struct_end
  18  0006              #pragma debug union_end
  18  0006              #pragma debug union_end
  18  0006              #pragma debug variable 68 1 ___pcpu "__pcpu" 1
  18  0006              #pragma debug struct_end
  18  0006              #pragma debug struct_end
  18  0006              #pragma debug union_end
  18  0006              #pragma debug union_end
  18  0006              #pragma debug variable 70 1 ___sledc0 "__sledc0" 1
  18  0006              #pragma debug struct_end
  18  0006              #pragma debug struct_end
  18  0006              #pragma debug union_end
  18  0006              #pragma debug union_end
  18  0006              #pragma debug variable 72 1 ___sledc1 "__sledc1" 1
  18  0006              #pragma debug struct_end
  18  0006              #pragma debug struct_end
  18  0006              #pragma debug union_end
  18  0006              #pragma debug union_end
  18  0006              #pragma debug variable 74 1 ___ctm0c0 "__ctm0c0" 1
  18  0006              #pragma debug struct_end
  18  0006              #pragma debug struct_end
  18  0006              #pragma debug union_end
  18  0006              #pragma debug union_end
  18  0006              #pragma debug variable 76 1 ___ctm0c1 "__ctm0c1" 1
  18  0006              #pragma debug variable 8 1 ___ctm0dl "__ctm0dl" 1
  18  0006              #pragma debug variable 8 1 ___ctm0al "__ctm0al" 1
  18  0006              #pragma debug variable 8 1 ___ctm0ah "__ctm0ah" 1
  18  0006              #pragma debug variable 8 1 ___sadoh "__sadoh" 1
  18  0006              #pragma debug struct_end
  18  0006              #pragma debug struct_end
  18  0006              #pragma debug union_end
  18  0006              #pragma debug union_end
  18  0006              #pragma debug variable 78 1 ___sadc0 "__sadc0" 1
  18  0006              #pragma debug struct_end
  18  0006              #pragma debug struct_end
  18  0006              #pragma debug union_end
  18  0006              #pragma debug union_end
  18  0006              #pragma debug variable 80 1 ___sadc1 "__sadc1" 1
  18  0006              #pragma debug struct_end
  18  0006              #pragma debug struct_end
  18  0006              #pragma debug union_end
  18  0006              #pragma debug union_end
  18  0006              #pragma debug variable 82 1 ___pltsw "__pltsw" 1
  18  0006              #pragma debug struct_end
  18  0006              #pragma debug struct_end
  18  0006              #pragma debug union_end
  18  0006              #pragma debug union_end
  18  0006              #pragma debug variable 84 1 ___pltdacc "__pltdacc" 1
  18  0006              #pragma debug variable 8 1 ___pltda0l "__pltda0l" 1
  18  0006              #pragma debug variable 8 1 ___pltda1l "__pltda1l" 1
  18  0006              #pragma debug variable 8 1 ___pltda2l "__pltda2l" 1
  18  0006              #pragma debug struct_end
  18  0006              #pragma debug struct_end
  18  0006              #pragma debug union_end
文件：config.c     编译器版本 HGASM 0202 页次39

  18  0006              #pragma debug union_end
  18  0006              #pragma debug variable 86 1 ___pltc0c "__pltc0c" 1
  18  0006              #pragma debug struct_end
  18  0006              #pragma debug struct_end
  18  0006              #pragma debug union_end
  18  0006              #pragma debug union_end
  18  0006              #pragma debug variable 88 1 ___pltc0vos "__pltc0vos" 1
  18  0006              #pragma debug struct_end
  18  0006              #pragma debug struct_end
  18  0006              #pragma debug union_end
  18  0006              #pragma debug union_end
  18  0006              #pragma debug variable 90 1 ___pltc1c "__pltc1c" 1
  18  0006              #pragma debug struct_end
  18  0006              #pragma debug struct_end
  18  0006              #pragma debug union_end
  18  0006              #pragma debug union_end
  18  0006              #pragma debug variable 92 1 ___pltc1vos "__pltc1vos" 1
  18  0006              #pragma debug struct_end
  18  0006              #pragma debug struct_end
  18  0006              #pragma debug union_end
  18  0006              #pragma debug union_end
  18  0006              #pragma debug variable 94 1 ___pltchyc "__pltchyc" 1
  18  0006              #pragma debug struct_end
  18  0006              #pragma debug struct_end
  18  0006              #pragma debug union_end
  18  0006              #pragma debug union_end
  18  0006              #pragma debug variable 96 1 ___pltac "__pltac" 1
  18  0006              #pragma debug struct_end
  18  0006              #pragma debug struct_end
  18  0006              #pragma debug union_end
  18  0006              #pragma debug union_end
  18  0006              #pragma debug variable 98 1 ___pltavos "__pltavos" 1
  18  0006              #pragma debug struct_end
  18  0006              #pragma debug struct_end
  18  0006              #pragma debug union_end
  18  0006              #pragma debug union_end
  18  0006              #pragma debug variable 100 1 ___wdtc "__wdtc" 1
  18  0006              #pragma debug struct_end
  18  0006              #pragma debug struct_end
  18  0006              #pragma debug union_end
  18  0006              #pragma debug union_end
  18  0006              #pragma debug variable 102 1 ___intc0 "__intc0" 1
  18  0006              #pragma debug struct_end
  18  0006              #pragma debug struct_end
  18  0006              #pragma debug union_end
  18  0006              #pragma debug union_end
  18  0006              #pragma debug variable 104 1 ___intc1 "__intc1" 1
  18  0006              #pragma debug struct_end
  18  0006              #pragma debug struct_end
  18  0006              #pragma debug union_end
  18  0006              #pragma debug union_end
  18  0006              #pragma debug variable 106 1 ___intc2 "__intc2" 1
  18  0006              #pragma debug struct_end
  18  0006              #pragma debug struct_end
  18  0006              #pragma debug union_end
  18  0006              #pragma debug union_end
  18  0006              #pragma debug variable 108 1 ___mfi1 "__mfi1" 1
  18  0006              #pragma debug struct_end
  18  0006              #pragma debug struct_end
  18  0006              #pragma debug union_end
文件：config.c     编译器版本 HGASM 0202 页次40

  18  0006              #pragma debug union_end
  18  0006              #pragma debug variable 110 1 ___mfi2 "__mfi2" 1
  18  0006              #pragma debug struct_end
  18  0006              #pragma debug struct_end
  18  0006              #pragma debug union_end
  18  0006              #pragma debug union_end
  18  0006              #pragma debug variable 112 1 ___mfi3 "__mfi3" 1
  18  0006              #pragma debug struct_end
  18  0006              #pragma debug struct_end
  18  0006              #pragma debug union_end
  18  0006              #pragma debug union_end
  18  0006              #pragma debug variable 114 1 ___mfi4 "__mfi4" 1
  18  0006              #pragma debug struct_end
  18  0006              #pragma debug struct_end
  18  0006              #pragma debug union_end
  18  0006              #pragma debug union_end
  18  0006              #pragma debug variable 116 1 ___ptm0c0 "__ptm0c0" 1
  18  0006              #pragma debug struct_end
  18  0006              #pragma debug struct_end
  18  0006              #pragma debug union_end
  18  0006              #pragma debug union_end
  18  0006              #pragma debug variable 118 1 ___ptm0c1 "__ptm0c1" 1
  18  0006              #pragma debug struct_end
  18  0006              #pragma debug struct_end
  18  0006              #pragma debug union_end
  18  0006              #pragma debug union_end
  18  0006              #pragma debug variable 120 1 ___ptm0c2 "__ptm0c2" 1
  18  0006              #pragma debug variable 8 1 ___ptm0rpl "__ptm0rpl" 1
  18  0006              #pragma debug variable 8 1 ___ptm0rph "__ptm0rph" 1
  18  0006              #pragma debug struct_end
  18  0006              #pragma debug struct_end
  18  0006              #pragma debug union_end
  18  0006              #pragma debug union_end
  18  0006              #pragma debug variable 122 1 ___ptm1c0 "__ptm1c0" 1
  18  0006              #pragma debug struct_end
  18  0006              #pragma debug struct_end
  18  0006              #pragma debug union_end
  18  0006              #pragma debug union_end
  18  0006              #pragma debug variable 124 1 ___ptm1c1 "__ptm1c1" 1
  18  0006              #pragma debug variable 8 1 ___ptm1dl "__ptm1dl" 1
  18  0006              #pragma debug variable 8 1 ___ptm1dh "__ptm1dh" 1
  18  0006              #pragma debug variable 8 1 ___ptm1al "__ptm1al" 1
  18  0006              #pragma debug variable 8 1 ___ptm1ah "__ptm1ah" 1
  18  0006              #pragma debug variable 8 1 ___ptm1rpl "__ptm1rpl" 1
  18  0006              #pragma debug variable 8 1 ___ptm1rph "__ptm1rph" 1
  18  0006              #pragma debug struct_end
  18  0006              #pragma debug struct_end
  18  0006              #pragma debug union_end
  18  0006              #pragma debug union_end
  18  0006              #pragma debug variable 126 1 ___ctm1c0 "__ctm1c0" 1
  18  0006              #pragma debug struct_end
  18  0006              #pragma debug struct_end
  18  0006              #pragma debug union_end
  18  0006              #pragma debug union_end
  18  0006              #pragma debug variable 128 1 ___ctm1c1 "__ctm1c1" 1
  18  0006              #pragma debug variable 8 1 ___ctm1al "__ctm1al" 1
  18  0006              #pragma debug variable 8 1 ___ctm1ah "__ctm1ah" 1
  18  0006              #pragma debug struct_end
  18  0006              #pragma debug struct_end
  18  0006              #pragma debug union_end
文件：config.c     编译器版本 HGASM 0202 页次41

  18  0006              #pragma debug union_end
  18  0006              #pragma debug variable 130 1 ___pas0 "__pas0" 1
  18  0006              #pragma debug struct_end
  18  0006              #pragma debug struct_end
  18  0006              #pragma debug union_end
  18  0006              #pragma debug union_end
  18  0006              #pragma debug variable 132 1 ___pas1 "__pas1" 1
  18  0006              #pragma debug struct_end
  18  0006              #pragma debug struct_end
  18  0006              #pragma debug union_end
  18  0006              #pragma debug union_end
  18  0006              #pragma debug variable 134 1 ___pbs0 "__pbs0" 1
  18  0006              #pragma debug struct_end
  18  0006              #pragma debug struct_end
  18  0006              #pragma debug union_end
  18  0006              #pragma debug union_end
  18  0006              #pragma debug variable 136 1 ___pcs0 "__pcs0" 1
  18  0006              #pragma debug struct_end
  18  0006              #pragma debug struct_end
  18  0006              #pragma debug union_end
  18  0006              #pragma debug union_end
  18  0006              #pragma debug variable 138 1 ___ifs "__ifs" 1
  18  0006              
  18  0006              ; output external variables
  18  0006              extern _FuncData:byte
  18  0006              extern _AdjustBusVolt:near
  18  0006              
  18  0006              ; 
  18  0006              ; Generated by holtek-gcc v3.19, Mon Nov 01 10:16:49 2021
  18  0006              ; Rebuild 718
  18  0006              ; end of file


        0 Errors, 0