文件：function.c   编译器版本 HGASM 0202 页次1


   1  0000              ; Generated by holtek-gcc v3.19, Mon Nov 01 10:16:47 2021
   2  0000              ; 
   3  0000              ; Configuration:
   4  0000              ;       with long instruction
   5  0000              ;       Single ROM, Multi-RAM
   6  0000              ;       bits_per_rom_unit:16
   7  0000              ;       with mp1
   8  0000              ;       with tbhp, address(0x9)
   9  0000              ;          Use tabrd-const
  10  0000              ;       
  11  0000              ; SFR address of long-instruction arch:
  12  0000              ;    mp0 = -1,1,0
  13  0000              ;    mp1 = 4,3,2
  14  0000              ;    mp2 = 14,13,12
  15  0000              ;    tbp = 9,7,8
  16  0000              ;    acc = 5
  17  0000              ;    pcl = 6
  18  0000              ;    status = 10
  19  0000              ;    bp = 11
  20  0000              ;    intc = 72
  21  0000              ;       
  22  0000              ;       
  23  0000              ; use 'tabrdc' instead of 'tabrd'
  24  0000              ;       
  25  0000              
  26  0000              #pragma translator "holtek-gcc 4.6.4" "3.19" "build 20130711"
  27  0000              ; Rebuild 718
  28  0000              
  29  0000              ir equ [2]
  30  0000              mp equ [3]
  31  0000              sbp equ [4]
  32  0000              acc equ [5]
  33  0000              bp equ [11]
  34  0000              tblp equ [7]
  35  0000              tbhp equ [9]
  36  0000              status equ [10]
  37  0000              c equ [10].0
  38  0000              ac equ [10].1
  39  0000              z equ [10].2
  40  0000              ov equ [10].3
  41  0000              cz equ [10].6
  42  0000              sc equ [10].7
  43  0000              intc equ [72]
  44  0000              
  45  0000              extern ra:byte
  46  0000              extern rb:byte
  47  0000              extern rc:byte
  48  0000              extern rd:byte
  49  0000              extern re:byte
  50  0000              extern rf:byte
  51  0000              extern rg:byte
  52  0000              extern rh:byte
  53  0000              extern _Crom2Prom:near
  54  0000              extern _Crom2PromNext:near
  55  0000              
  56  0000              RAMBANK 0 @BITDATASEC, @BITDATASEC1
  57  0000              @HCCINIT	.section 'data'
  58  0000              @HCCINIT0	.section 'data'
  59  0000              @BITDATASEC	 .section 'data'
文件：function.ASM 编译器版本 HGASM 0202 页次2

  60  0000              @BITDATASEC1	 .section 'data'
  61  0000              
  62  0000              #pragma debug scope 1 1
  63  0000              	extern __DELAY3:near
  64  0000              	extern __DELAYX3:near
  65  0000              	extern __DELAYX6:near
  66  0000              	extern __DELAYY5:near
  67  0000              	extern __DELAYY3:near
  68  0000              	extern _builtin_holtek_delay_2:byte
  69  0000              ___pc equ [27]
  70  0000              ___pa equ [20]
  71  0000              public _LedCtrl
  72  0000              #pragma debug scope 2 1

  50  0000              #line 50 "C:\Users\houlinfeng\Desktop\TwoWireDevice_Hou\source\function.c"
  50  0000              _LedCtrl .section 'code'
  50  0000              _LedCtrl proc
  50  0000  00              local _LedCtrl_2 db 1 dup(?)	; 0,1
  56  0001              #line 56 "C:\Users\houlinfeng\Desktop\TwoWireDevice_Hou\source\function.c"
  56  0000  0700     E  	mov a,_FuncData[0]
  56  0001  0080     E  	mov ra,a
  56  0002  0700     E  	mov a,ra
  56  0003  0E30        	and a,48
  56  0004  0080     E  	mov rb,a
  56  0005  1080     E  	sz rb
  56  0006  2800     R  	jmp _L2
  56  0007              _L16:
  51  0007              #line 51 "C:\Users\houlinfeng\Desktop\TwoWireDevice_Hou\source\function.c"
  51  0007  1F00     E  	clr ra
  51  0008  1F00     E  	clr rb
  51  0009  2800     R  	jmp _L3
  51  000A              _L2:
  62  000A              #line 62 "C:\Users\houlinfeng\Desktop\TwoWireDevice_Hou\source\function.c"
  62  000A  0700     E  	mov a,_SysData[6]
  62  000B  0080     R  	mov _LedCtrl_2[0],a
  62  000C  0F02        	mov a,2
  62  000D  0200     R  	sub a,_LedCtrl_2[0]
  62  000E  380A        	snz c
  62  000F  2800     R  	jmp _L4
  63  0010              #line 63 "C:\Users\houlinfeng\Desktop\TwoWireDevice_Hou\source\function.c"
  63  0010  3000     E  	set _SysData[0].2
  63  0011              _L4:
  65  0011              #line 65 "C:\Users\houlinfeng\Desktop\TwoWireDevice_Hou\source\function.c"
  65  0011  0700     R  	mov a,_LedCtrl_2[0]
  65  0012  0A00        	sub a,0
  65  0013  3D0A        	sz z
  65  0014  2800     R  	jmp _L6
  65  0015  0A01        	sub a,(1)-(0)
  65  0016  3D0A        	sz z
  65  0017  2800     R  	jmp _L7
  65  0018  0700     R  	mov a,_LedCtrl_2[0]
  65  0019  0A02        	sub a,2
  65  001A  3D0A        	sz z
  65  001B  2800     R  	jmp _L8
  65  001C  0700     R  	mov a,_LedCtrl_2[0]
  65  001D  0A03        	sub a,3
  65  001E  390A        	snz z
  65  001F  2800     R  	jmp _L5
  65  0020  2800     R  	jmp _L66
  65  0021              _L6:
文件：function.c   编译器版本 HGASM 0202 页次3

  70  0021              #line 70 "C:\Users\houlinfeng\Desktop\TwoWireDevice_Hou\source\function.c"
  70  0021  0700     E  	mov a,_CommData[2]
  70  0022  0080     E  	mov _SysData[5],a
  72  0023              #line 72 "C:\Users\houlinfeng\Desktop\TwoWireDevice_Hou\source\function.c"
  72  0023  1080     E  	sz _CommData[2]
  72  0024  2800     R  	jmp _L63
  72  0025  2800     R  	jmp _L13
  72  0026              _L7:
  86  0026              #line 86 "C:\Users\houlinfeng\Desktop\TwoWireDevice_Hou\source\function.c"
  86  0026  0F02        	mov a,2
  86  0027  2000     E  	call _LEDTimer
  87  0028              #line 87 "C:\Users\houlinfeng\Desktop\TwoWireDevice_Hou\source\function.c"
  87  0028  0F01        	mov a,1
  87  0029  0080     E  	mov _FuncData[52],a
  88  002A              #line 88 "C:\Users\houlinfeng\Desktop\TwoWireDevice_Hou\source\function.c"
  88  002A  0700     E  	mov a,_SysData[5]
  88  002B  0080     E  	mov ra,a
  88  002C  1E00     E  	snz ra
  88  002D  2800     R  	jmp _L11
  90  002E              #line 90 "C:\Users\houlinfeng\Desktop\TwoWireDevice_Hou\source\function.c"
  90  002E  1500     E  	deca ra
  90  002F  0080     E  	mov _SysData[5],a
  90  0030              _L11:
  92  0030              #line 92 "C:\Users\houlinfeng\Desktop\TwoWireDevice_Hou\source\function.c"
  92  0030  0F02        	mov a,2
  92  0031  0080     E  	mov _SysData[6],a
  94  0032              #line 94 "C:\Users\houlinfeng\Desktop\TwoWireDevice_Hou\source\function.c"
  94  0032  2800     R  	jmp _L5
  94  0033              _L8:
  98  0033              #line 98 "C:\Users\houlinfeng\Desktop\TwoWireDevice_Hou\source\function.c"
  98  0033  0FFF        	mov a,255
  98  0034  2000     E  	call _LEDTimer
  98  0035  0080     E  	mov ra,a
  98  0036  1700     E  	sdza ra
  98  0037  2800     R  	jmp _L5
 100  0038              #line 100 "C:\Users\houlinfeng\Desktop\TwoWireDevice_Hou\source\function.c"
 100  0038  1F00     E  	clr _FuncData[52]
 101  0039              #line 101 "C:\Users\houlinfeng\Desktop\TwoWireDevice_Hou\source\function.c"
 101  0039  1E00     E  	snz _SysData[5]
 101  003A  2800     R  	jmp _L13
 101  003B              _L63:
 103  003B              #line 103 "C:\Users\houlinfeng\Desktop\TwoWireDevice_Hou\source\function.c"
 103  003B  0F01        	mov a,1
 103  003C  0080     E  	mov _SysData[6],a
 103  003D  2800     R  	jmp _L5
 103  003E              _L13:
 107  003E              #line 107 "C:\Users\houlinfeng\Desktop\TwoWireDevice_Hou\source\function.c"
 107  003E  0F03        	mov a,3
 107  003F  0080     E  	mov _SysData[6],a
 107  0040  2800     R  	jmp _L5
 107  0041              _L66:
 116  0041              #line 116 "C:\Users\houlinfeng\Desktop\TwoWireDevice_Hou\source\function.c"
 116  0041  3C00     E  	sz ra.7
 116  0042  2800     R  	jmp _L14
 118  0043              #line 118 "C:\Users\houlinfeng\Desktop\TwoWireDevice_Hou\source\function.c"
 118  0043  3000     E  	set ra.7
 118  0044  0700     E  	mov a,ra
 118  0045  0080     E  	mov _FuncData[0],a
 119  0046              #line 119 "C:\Users\houlinfeng\Desktop\TwoWireDevice_Hou\source\function.c"
 119  0046  0F01        	mov a,1
文件：function.c   编译器版本 HGASM 0202 页次4

 119  0047  2000     E  	call _LEDTimer
 120  0048              #line 120 "C:\Users\houlinfeng\Desktop\TwoWireDevice_Hou\source\function.c"
 120  0048  0F01        	mov a,1
 120  0049  0080     E  	mov _FuncData[52],a
 121  004A              #line 121 "C:\Users\houlinfeng\Desktop\TwoWireDevice_Hou\source\function.c"
 121  004A  3000     E  	set _SysData[0].2
 121  004B  2800     R  	jmp _L5
 121  004C              _L14:
 125  004C              #line 125 "C:\Users\houlinfeng\Desktop\TwoWireDevice_Hou\source\function.c"
 125  004C  0FFF        	mov a,255
 125  004D  2000     E  	call _LEDTimer
 125  004E  0080     E  	mov ra,a
 125  004F  1700     E  	sdza ra
 125  0050  2800     R  	jmp _L5
 127  0051              #line 127 "C:\Users\houlinfeng\Desktop\TwoWireDevice_Hou\source\function.c"
 127  0051  1F00     E  	clr _FuncData[52]
 129  0052              #line 129 "C:\Users\houlinfeng\Desktop\TwoWireDevice_Hou\source\function.c"
 129  0052  0F4F        	mov a,79
 129  0053  0680     E  	andm a,_FuncData[0]
 131  0054              #line 131 "C:\Users\houlinfeng\Desktop\TwoWireDevice_Hou\source\function.c"
 131  0054  0F00        	mov a,0
 131  0055  2000     E  	call _LEDTimer
 132  0056              #line 132 "C:\Users\houlinfeng\Desktop\TwoWireDevice_Hou\source\function.c"
 132  0056  3400     E  	clr _SysData[0].2
 133  0057              #line 133 "C:\Users\houlinfeng\Desktop\TwoWireDevice_Hou\source\function.c"
 133  0057  1F00     E  	clr _SysData[6]
 133  0058              _L5:
 143  0058              #line 143 "C:\Users\houlinfeng\Desktop\TwoWireDevice_Hou\source\function.c"
 143  0058  1080     E  	sz _FuncData[35]
 143  0059  2800     R  	jmp _L16
 145  005A              #line 145 "C:\Users\houlinfeng\Desktop\TwoWireDevice_Hou\source\function.c"
 145  005A  0700     E  	mov a,_FuncData[0]
 145  005B  0080     E  	mov ra,a
 145  005C  3800     E  	snz ra.4
 145  005D  2800     R  	jmp _L30
 147  005E              #line 147 "C:\Users\houlinfeng\Desktop\TwoWireDevice_Hou\source\function.c"
 147  005E  1800     E  	rla ra
 147  005F  0E01        	and a,1
 147  0060  0080     E  	mov rb,a
 147  0061  2800     R  	jmp _L17
 147  0062              _L30:
  51  0062              #line 51 "C:\Users\houlinfeng\Desktop\TwoWireDevice_Hou\source\function.c"
  51  0062  1F00     E  	clr rb
  51  0063              _L17:
 150  0063              #line 150 "C:\Users\houlinfeng\Desktop\TwoWireDevice_Hou\source\function.c"
 150  0063  3800     E  	snz ra.5
 150  0064  2800     R  	jmp _L31
 152  0065              #line 152 "C:\Users\houlinfeng\Desktop\TwoWireDevice_Hou\source\function.c"
 152  0065  1A80     E  	rlc ra
 152  0066  1F00     E  	clr ra
 152  0067  1A80     E  	rlc ra
 152  0068  2800     R  	jmp _L3
 152  0069              _L31:
  51  0069              #line 51 "C:\Users\houlinfeng\Desktop\TwoWireDevice_Hou\source\function.c"
  51  0069  1F00     E  	clr ra
  51  006A              _L3:
 159  006A              #line 159 "C:\Users\houlinfeng\Desktop\TwoWireDevice_Hou\source\function.c"
 159  006A  0700     E  	mov a,_FuncData[0]
 159  006B  0080     E  	mov rc,a
 159  006C  0700     E  	mov a,rc
文件：function.c   编译器版本 HGASM 0202 页次5

 159  006D  0E05        	and a,5
 159  006E  0080     E  	mov rd,a
 159  006F  1E00     E  	snz rd
 159  0070  2800     R  	jmp _L18
 161  0071              #line 161 "C:\Users\houlinfeng\Desktop\TwoWireDevice_Hou\source\function.c"
 161  0071  0F01        	mov a,1
 161  0072  0080     E  	mov rb,a
 161  0073              _L18:
 163  0073              #line 163 "C:\Users\houlinfeng\Desktop\TwoWireDevice_Hou\source\function.c"
 163  0073  0F0A        	mov a,10
 163  0074  0680     E  	andm a,rc
 163  0075  1E00     E  	snz rc
 163  0076  2800     R  	jmp _L19
 165  0077              #line 165 "C:\Users\houlinfeng\Desktop\TwoWireDevice_Hou\source\function.c"
 165  0077  0F01        	mov a,1
 165  0078  0080     E  	mov ra,a
 165  0079              _L19:
 168  0079              #line 168 "C:\Users\houlinfeng\Desktop\TwoWireDevice_Hou\source\function.c"
 168  0079  1700     E  	sdza _FuncData[33]
 168  007A  2800     R  	jmp _L20
 170  007B              #line 170 "C:\Users\houlinfeng\Desktop\TwoWireDevice_Hou\source\function.c"
 170  007B  0F01        	mov a,1
 170  007C  0080     E  	mov rb,a
 170  007D              _L20:
 176  007D              #line 176 "C:\Users\houlinfeng\Desktop\TwoWireDevice_Hou\source\function.c"
 176  007D  0700     E  	mov a,_FuncData[26]
 176  007E  0080     R  	mov _LedCtrl_2[0],a
 176  007F  0700     R  	mov a,_LedCtrl_2[0]
 176  0080  0AA1        	sub a,161
 176  0081  3D0A        	sz z
 176  0082  2800     R  	jmp _L33
 181  0083              #line 181 "C:\Users\houlinfeng\Desktop\TwoWireDevice_Hou\source\function.c"
 181  0083  0700     R  	mov a,_LedCtrl_2[0]
 181  0084  0AA0        	sub a,160
 181  0085  390A        	snz z
 181  0086  2800     R  	jmp _L21
 183  0087              #line 183 "C:\Users\houlinfeng\Desktop\TwoWireDevice_Hou\source\function.c"
 183  0087  1F00     E  	clr ra
 183  0088  2800     R  	jmp _L21
 183  0089              _L33:
 178  0089              #line 178 "C:\Users\houlinfeng\Desktop\TwoWireDevice_Hou\source\function.c"
 178  0089  0F01        	mov a,1
 178  008A  0080     E  	mov ra,a
 178  008B              _L21:
 187  008B              #line 187 "C:\Users\houlinfeng\Desktop\TwoWireDevice_Hou\source\function.c"
 187  008B  0700     E  	mov a,_SysData[2]
 187  008C  0A28        	sub a,40
 187  008D  3D0A        	sz z
 187  008E  2800     R  	jmp _L23
 187  008F  0A0A        	sub a,(50)-(40)
 187  0090  3D0A        	sz z
 187  0091  2800     R  	jmp _L23
 187  0092  0700     E  	mov a,_SysData[2]
 187  0093  0A33        	sub a,51
 187  0094  3D0A        	sz z
 187  0095  2800     R  	jmp _L23
 187  0096  0A09        	sub a,(60)-(51)
 187  0097  3D0A        	sz z
 187  0098  2800     R  	jmp _L23
 187  0099  0700     E  	mov a,_SysData[2]
文件：function.c   编译器版本 HGASM 0202 页次6

 187  009A  0A3D        	sub a,61
 187  009B  3D0A        	sz z
 187  009C  2800     R  	jmp _L23
 187  009D  0A09        	sub a,(70)-(61)
 187  009E  3D0A        	sz z
 187  009F  2800     R  	jmp _L24
 187  00A0  0700     E  	mov a,_SysData[2]
 187  00A1  0A50        	sub a,80
 187  00A2  3D0A        	sz z
 187  00A3  2800     R  	jmp _L24
 187  00A4  0700     E  	mov a,_SysData[2]
 187  00A5  0A6E        	sub a,110
 187  00A6  390A        	snz z
 187  00A7  2800     R  	jmp _L1
 187  00A8  2800     R  	jmp _L24
 187  00A9              _L23:
 340  00A9              #line 340 "C:\Users\houlinfeng\Desktop\TwoWireDevice_Hou\source\function.c"
 340  00A9  1E00     E  	snz _FuncData[62]
 340  00AA  2800     R  	jmp _L25
 343  00AB              #line 343 "C:\Users\houlinfeng\Desktop\TwoWireDevice_Hou\source\function.c"
 343  00AB  0F01        	mov a,1
 343  00AC  0080     E  	mov ra,a
 343  00AD              _L25:
 347  00AD              #line 347 "C:\Users\houlinfeng\Desktop\TwoWireDevice_Hou\source\function.c"
 347  00AD  3800     E  	snz _FuncData[40].6
 347  00AE  2800     R  	jmp _L26
 352  00AF              #line 352 "C:\Users\houlinfeng\Desktop\TwoWireDevice_Hou\source\function.c"
 352  00AF  1E00     E  	snz rb
 352  00B0  2800     R  	jmp _L26
 354  00B1              #line 354 "C:\Users\houlinfeng\Desktop\TwoWireDevice_Hou\source\function.c"
 354  00B1  301B        	set [27].0
 354  00B2  2800     R  	jmp _L27
 354  00B3              _L26:
 358  00B3              #line 358 "C:\Users\houlinfeng\Desktop\TwoWireDevice_Hou\source\function.c"
 358  00B3  341B        	clr [27].0
 358  00B4              _L27:
 363  00B4              #line 363 "C:\Users\houlinfeng\Desktop\TwoWireDevice_Hou\source\function.c"
 363  00B4  3800     E  	snz _FuncData[11].6
 363  00B5  2800     R  	jmp _L29
 368  00B6              #line 368 "C:\Users\houlinfeng\Desktop\TwoWireDevice_Hou\source\function.c"
 368  00B6  1080     E  	sz ra
 368  00B7  2800     R  	jmp _L64
 368  00B8  2800     R  	jmp _L29
 368  00B9              _L24:
 394  00B9              #line 394 "C:\Users\houlinfeng\Desktop\TwoWireDevice_Hou\source\function.c"
 394  00B9  3800     E  	snz _FuncData[11].6
 394  00BA  2800     R  	jmp _L29
 400  00BB              #line 400 "C:\Users\houlinfeng\Desktop\TwoWireDevice_Hou\source\function.c"
 400  00BB  1E00     E  	snz rb
 400  00BC  2800     R  	jmp _L29
 400  00BD              _L64:
 402  00BD              #line 402 "C:\Users\houlinfeng\Desktop\TwoWireDevice_Hou\source\function.c"
 402  00BD  3294        	set [20].5
 402  00BE  2800     R  	jmp _L1
 402  00BF              _L29:
 406  00BF              #line 406 "C:\Users\houlinfeng\Desktop\TwoWireDevice_Hou\source\function.c"
 406  00BF  3694        	clr [20].5
 406  00C0              _L1:
 406  00C0  0003        	ret
 406  00C1              _LedCtrl endp
文件：function.c   编译器版本 HGASM 0202 页次7

 406  00C1              #line 406 "C:\Users\houlinfeng\Desktop\TwoWireDevice_Hou\source\function.c"
 406  00C1              #pragma debug scope 1 1
 406  00C1              public _AVDevice
 406  00C1              #pragma debug scope 3 1
1169  00C1              #line 1169 "C:\Users\houlinfeng\Desktop\TwoWireDevice_Hou\source\function.c"
1169  0000              _AVDevice .section 'code'
1169  0000              _AVDevice proc
1169  0000  00              local _AVDevice_2 db 1 dup(?)	; 0,1
1175  0001              #line 1175 "C:\Users\houlinfeng\Desktop\TwoWireDevice_Hou\source\function.c"
1175  0000  0700     E  	mov a,_FuncData[14]
1175  0001  0080     R  	mov _AVDevice_2[0],a
1175  0002  0700     E  	mov a,_FuncData[56]
1175  0003  0080     E  	mov ra,a
1175  0004  0700     R  	mov a,_AVDevice_2[0]
1175  0005  0200     E  	sub a,ra
1175  0006  3D0A        	sz z
1175  0007  2800     R  	jmp _L69
1178  0008              #line 1178 "C:\Users\houlinfeng\Desktop\TwoWireDevice_Hou\source\function.c"
1178  0008  0700     E  	mov a,ra
1178  0009  0AB2        	sub a,178
1178  000A  390A        	snz z
1178  000B  2800     R  	jmp _L70
1179  000C              #line 1179 "C:\Users\houlinfeng\Desktop\TwoWireDevice_Hou\source\function.c"
1179  000C  0700     R  	mov a,_AVDevice_2[0]
1179  000D  0AB1        	sub a,177
1179  000E  390A        	snz z
1179  000F  2800     R  	jmp _L72
1179  0010  2800     R  	jmp _L118
1179  0011              _L70:
1183  0011              #line 1183 "C:\Users\houlinfeng\Desktop\TwoWireDevice_Hou\source\function.c"
1183  0011  0700     E  	mov a,ra
1183  0012  0AC2        	sub a,194
1183  0013  390A        	snz z
1183  0014  2800     R  	jmp _L72
1184  0015              #line 1184 "C:\Users\houlinfeng\Desktop\TwoWireDevice_Hou\source\function.c"
1184  0015  0700     R  	mov a,_AVDevice_2[0]
1184  0016  0AC1        	sub a,193
1184  0017  390A        	snz z
1184  0018  2800     R  	jmp _L72
1184  0019              _L118:
1186  0019              #line 1186 "C:\Users\houlinfeng\Desktop\TwoWireDevice_Hou\source\function.c"
1186  0019  0F03        	mov a,3
1186  001A  0080     E  	mov _FuncData[45],a
1186  001B              _L72:
1189  001B              #line 1189 "C:\Users\houlinfeng\Desktop\TwoWireDevice_Hou\source\function.c"
1189  001B  0700     R  	mov a,_AVDevice_2[0]
1189  001C  0080     E  	mov _FuncData[56],a
1191  001D              #line 1191 "C:\Users\houlinfeng\Desktop\TwoWireDevice_Hou\source\function.c"
1191  001D  1F00     E  	clr _FuncData[53]
1192  001E              #line 1192 "C:\Users\houlinfeng\Desktop\TwoWireDevice_Hou\source\function.c"
1192  001E  0F00        	mov a,0
1192  001F  2000     E  	call _PWMTimer
1193  0020              #line 1193 "C:\Users\houlinfeng\Desktop\TwoWireDevice_Hou\source\function.c"
1193  0020  3614        	clr [20].4
1194  0021              #line 1194 "C:\Users\houlinfeng\Desktop\TwoWireDevice_Hou\source\function.c"
1194  0021  1F00     E  	clr _FuncData[59]
1195  0022              #line 1195 "C:\Users\houlinfeng\Desktop\TwoWireDevice_Hou\source\function.c"
1195  0022  1F00     E  	clr _FuncData[58]
1200  0023              #line 1200 "C:\Users\houlinfeng\Desktop\TwoWireDevice_Hou\source\function.c"
1200  0023  0700     E  	mov a,_FuncData[56]
文件：function.c   编译器版本 HGASM 0202 页次8

1200  0024  0080     R  	mov _AVDevice_2[0],a
1200  0025  0700     R  	mov a,_AVDevice_2[0]
1200  0026  0AB1        	sub a,177
1200  0027  390A        	snz z
1200  0028  2800     R  	jmp _L73
1202  0029              #line 1202 "C:\Users\houlinfeng\Desktop\TwoWireDevice_Hou\source\function.c"
1202  0029  0F03        	mov a,3
1202  002A  0580     E  	orm a,_FuncData[57]
1203  002B              #line 1203 "C:\Users\houlinfeng\Desktop\TwoWireDevice_Hou\source\function.c"
1203  002B  0F06        	mov a,6
1203  002C  0580     E  	orm a,_FuncData[11]
1203  002D  0F00        	mov a,0
1203  002E  0580     E  	orm a,_FuncData[10]
1203  002F  2800     R  	jmp _L69
1203  0030              _L73:
1205  0030              #line 1205 "C:\Users\houlinfeng\Desktop\TwoWireDevice_Hou\source\function.c"
1205  0030  0700     R  	mov a,_AVDevice_2[0]
1205  0031  0AB2        	sub a,178
1205  0032  390A        	snz z
1205  0033  2800     R  	jmp _L75
1207  0034              #line 1207 "C:\Users\houlinfeng\Desktop\TwoWireDevice_Hou\source\function.c"
1207  0034  0FFC        	mov a,252
1207  0035  0680     E  	andm a,_FuncData[57]
1208  0036              #line 1208 "C:\Users\houlinfeng\Desktop\TwoWireDevice_Hou\source\function.c"
1208  0036  0FFF        	mov a,255  
1208  0037  0680     E  	andm a,_FuncData[10]  
1208  0038  0FF9        	mov a,249  
1208  0039  0680     E  	andm a,_FuncData[11]
1208  003A  2800     R  	jmp _L69
1208  003B              _L75:
1211  003B              #line 1211 "C:\Users\houlinfeng\Desktop\TwoWireDevice_Hou\source\function.c"
1211  003B  0700     R  	mov a,_AVDevice_2[0]
1211  003C  0AD1        	sub a,209
1211  003D  390A        	snz z
1211  003E  2800     R  	jmp _L77
1213  003F              #line 1213 "C:\Users\houlinfeng\Desktop\TwoWireDevice_Hou\source\function.c"
1213  003F  3000     E  	set _FuncData[57].1
1214  0040              #line 1214 "C:\Users\houlinfeng\Desktop\TwoWireDevice_Hou\source\function.c"
1214  0040  0F04        	mov a,4
1214  0041  0580     E  	orm a,_FuncData[11]
1214  0042  0F00        	mov a,0
1214  0043  0580     E  	orm a,_FuncData[10]
1214  0044  2800     R  	jmp _L69
1214  0045              _L77:
1216  0045              #line 1216 "C:\Users\houlinfeng\Desktop\TwoWireDevice_Hou\source\function.c"
1216  0045  0700     R  	mov a,_AVDevice_2[0]
1216  0046  0AD2        	sub a,210
1216  0047  390A        	snz z
1216  0048  2800     R  	jmp _L78
1218  0049              #line 1218 "C:\Users\houlinfeng\Desktop\TwoWireDevice_Hou\source\function.c"
1218  0049  3400     E  	clr _FuncData[57].1
1219  004A              #line 1219 "C:\Users\houlinfeng\Desktop\TwoWireDevice_Hou\source\function.c"
1219  004A  0FFF        	mov a,255  
1219  004B  0680     E  	andm a,_FuncData[10]  
1219  004C  0FFB        	mov a,251  
1219  004D  0680     E  	andm a,_FuncData[11]
1219  004E  2800     R  	jmp _L69
1219  004F              _L78:
1222  004F              #line 1222 "C:\Users\houlinfeng\Desktop\TwoWireDevice_Hou\source\function.c"
1222  004F  0700     R  	mov a,_AVDevice_2[0]
文件：function.c   编译器版本 HGASM 0202 页次9

1222  0050  0AC1        	sub a,193
1222  0051  390A        	snz z
1222  0052  2800     R  	jmp _L76
1224  0053              #line 1224 "C:\Users\houlinfeng\Desktop\TwoWireDevice_Hou\source\function.c"
1224  0053  3000     E  	set _FuncData[57].0
1225  0054              #line 1225 "C:\Users\houlinfeng\Desktop\TwoWireDevice_Hou\source\function.c"
1225  0054  0F02        	mov a,2
1225  0055  0580     E  	orm a,_FuncData[11]
1225  0056  0F00        	mov a,0
1225  0057  0580     E  	orm a,_FuncData[10]
1225  0058  2800     R  	jmp _L69
1225  0059              _L76:
1227  0059              #line 1227 "C:\Users\houlinfeng\Desktop\TwoWireDevice_Hou\source\function.c"
1227  0059  0700     R  	mov a,_AVDevice_2[0]
1227  005A  0AC2        	sub a,194
1227  005B  390A        	snz z
1227  005C  2800     R  	jmp _L69
1229  005D              #line 1229 "C:\Users\houlinfeng\Desktop\TwoWireDevice_Hou\source\function.c"
1229  005D  3400     E  	clr _FuncData[57].0
1230  005E              #line 1230 "C:\Users\houlinfeng\Desktop\TwoWireDevice_Hou\source\function.c"
1230  005E  0FFF        	mov a,255  
1230  005F  0680     E  	andm a,_FuncData[10]  
1230  0060  0FFD        	mov a,253  
1230  0061  0680     E  	andm a,_FuncData[11]
1230  0062              _L69:
1236  0062              #line 1236 "C:\Users\houlinfeng\Desktop\TwoWireDevice_Hou\source\function.c"
1236  0062  0700     E  	mov a,_FuncData[57]
1236  0063  0080     R  	mov _AVDevice_2[0],a
1236  0064  0700     R  	mov a,_AVDevice_2[0]
1236  0065  0E03        	and a,3
1236  0066  0080     E  	mov ra,a
1236  0067  1E00     E  	snz ra
1236  0068  2800     R  	jmp _L80
1240  0069              #line 1240 "C:\Users\houlinfeng\Desktop\TwoWireDevice_Hou\source\function.c"
1240  0069  0700     E  	mov a,_FuncData[53]
1240  006A  0A00        	sub a,0
1240  006B  3D0A        	sz z
1240  006C  2800     R  	jmp _L82
1240  006D  0A01        	sub a,(1)-(0)
1240  006E  3D0A        	sz z
1240  006F  2800     R  	jmp _L83
1240  0070  0700     E  	mov a,_FuncData[53]
1240  0071  0A02        	sub a,2
1240  0072  3D0A        	sz z
1240  0073  2800     R  	jmp _L84
1240  0074  0A01        	sub a,(3)-(2)
1240  0075  3D0A        	sz z
1240  0076  2800     R  	jmp _L85
1240  0077  0700     E  	mov a,_FuncData[53]
1240  0078  0A04        	sub a,4
1240  0079  3D0A        	sz z
1240  007A  2800     R  	jmp _L86
1240  007B  0A01        	sub a,(5)-(4)
1240  007C  3D0A        	sz z
1240  007D  2800     R  	jmp _L87
1240  007E  0700     E  	mov a,_FuncData[53]
1240  007F  0A06        	sub a,6
1240  0080  3D0A        	sz z
1240  0081  2800     R  	jmp _L88
1240  0082  0700     E  	mov a,_FuncData[53]
文件：function.c   编译器版本 HGASM 0202 页次10

1240  0083  0A07        	sub a,7
1240  0084  390A        	snz z
1240  0085  2800     R  	jmp _L67
1240  0086  2800     R  	jmp _L122
1240  0087              _L82:
1244  0087              #line 1244 "C:\Users\houlinfeng\Desktop\TwoWireDevice_Hou\source\function.c"
1244  0087  0F01        	mov a,1
1244  0088  0080     E  	mov _FuncData[53],a
1245  0089              #line 1245 "C:\Users\houlinfeng\Desktop\TwoWireDevice_Hou\source\function.c"
1245  0089  0F02        	mov a,2
1245  008A  0080     E  	mov _FuncData[58],a
1246  008B              #line 1246 "C:\Users\houlinfeng\Desktop\TwoWireDevice_Hou\source\function.c"
1246  008B  0F01        	mov a,1
1246  008C  0080     E  	mov _FuncData[59],a
1247  008D              #line 1247 "C:\Users\houlinfeng\Desktop\TwoWireDevice_Hou\source\function.c"
1247  008D  3000     E  	set _SysData[0].7
1249  008E              #line 1249 "C:\Users\houlinfeng\Desktop\TwoWireDevice_Hou\source\function.c"
1249  008E  2800     R  	jmp _L67
1249  008F              _L83:
1253  008F              #line 1253 "C:\Users\houlinfeng\Desktop\TwoWireDevice_Hou\source\function.c"
1253  008F  0F02        	mov a,2
1253  0090  0080     E  	mov _FuncData[53],a
1256  0091              #line 1256 "C:\Users\houlinfeng\Desktop\TwoWireDevice_Hou\source\function.c"
1256  0091  0700     E  	mov a,_FuncData[54]
1256  0092  0300     E  	add a,_FuncData[54]
1256  0093  0080     E  	mov ra,a
1256  0094  0700     E  	mov a,_FuncData[54]
1256  0095  0380     E  	addm a,ra
1256  0096  0700     E  	mov a,ra
1256  0097  0380     E  	addm a,ra
1256  0098  0700     E  	mov a,ra
1256  0099  0300     E  	add a,ra
1256  009A  0080     E  	mov _FuncData[1],a
1260  009B              #line 1260 "C:\Users\houlinfeng\Desktop\TwoWireDevice_Hou\source\function.c"
1260  009B  3000     E  	set _SysData[0].7
1262  009C              #line 1262 "C:\Users\houlinfeng\Desktop\TwoWireDevice_Hou\source\function.c"
1262  009C  1F00     R  	clr ___s_ucStrongSdCycCnt_2143[0]
1264  009D              #line 1264 "C:\Users\houlinfeng\Desktop\TwoWireDevice_Hou\source\function.c"
1264  009D  2800     R  	jmp _L67
1264  009E              _L84:
1268  009E              #line 1268 "C:\Users\houlinfeng\Desktop\TwoWireDevice_Hou\source\function.c"
1268  009E  1400     R  	inca ___s_ucStrongSdCycCnt_2143[0]
1268  009F  0080     E  	mov ra,a
1268  00A0  0700     E  	mov a,ra
1268  00A1  0080     R  	mov ___s_ucStrongSdCycCnt_2143[0],a
1269  00A2              #line 1269 "C:\Users\houlinfeng\Desktop\TwoWireDevice_Hou\source\function.c"
1269  00A2  0F0A        	mov a,10
1269  00A3  0200     E  	sub a,ra
1269  00A4  380A        	snz c
1269  00A5  2800     R  	jmp _L90
1271  00A6              #line 1271 "C:\Users\houlinfeng\Desktop\TwoWireDevice_Hou\source\function.c"
1271  00A6  3800     R  	snz _AVDevice_2[0].0
1271  00A7  2800     R  	jmp _L120
1273  00A8              #line 1273 "C:\Users\houlinfeng\Desktop\TwoWireDevice_Hou\source\function.c"
1273  00A8  0F03        	mov a,3
1273  00A9  2000     E  	call _PWMTimer
1274  00AA              #line 1274 "C:\Users\houlinfeng\Desktop\TwoWireDevice_Hou\source\function.c"
1274  00AA  3000     E  	set _SysData[0].1
1274  00AB  2800     R  	jmp _L120
1274  00AC              _L90:
文件：function.c   编译器版本 HGASM 0202 页次11

1279  00AC              #line 1279 "C:\Users\houlinfeng\Desktop\TwoWireDevice_Hou\source\function.c"
1279  00AC  0F03        	mov a,3
1279  00AD  0080     E  	mov _FuncData[53],a
1280  00AE              #line 1280 "C:\Users\houlinfeng\Desktop\TwoWireDevice_Hou\source\function.c"
1280  00AE  1F00     R  	clr ___s_ucStrongSdCycCnt_2143[0]
1280  00AF  2800     R  	jmp _L120
1280  00B0              _L85:
1289  00B0              #line 1289 "C:\Users\houlinfeng\Desktop\TwoWireDevice_Hou\source\function.c"
1289  00B0  3800     R  	snz _AVDevice_2[0].0
1289  00B1  2800     R  	jmp _L92
1291  00B2              #line 1291 "C:\Users\houlinfeng\Desktop\TwoWireDevice_Hou\source\function.c"
1291  00B2  0F00        	mov a,0
1291  00B3  2000     E  	call _PWMTimer
1292  00B4              #line 1292 "C:\Users\houlinfeng\Desktop\TwoWireDevice_Hou\source\function.c"
1292  00B4  3400     E  	clr _SysData[0].1
1292  00B5              _L92:
1294  00B5              #line 1294 "C:\Users\houlinfeng\Desktop\TwoWireDevice_Hou\source\function.c"
1294  00B5  3800     E  	snz _FuncData[57].1
1294  00B6  2800     R  	jmp _L93
1296  00B7              #line 1296 "C:\Users\houlinfeng\Desktop\TwoWireDevice_Hou\source\function.c"
1296  00B7  3214        	set [20].4
1296  00B8              _L93:
1298  00B8              #line 1298 "C:\Users\houlinfeng\Desktop\TwoWireDevice_Hou\source\function.c"
1298  00B8  0F04        	mov a,4
1298  00B9  0080     E  	mov _FuncData[53],a
1298  00BA              _L120:
1299  00BA              #line 1299 "C:\Users\houlinfeng\Desktop\TwoWireDevice_Hou\source\function.c"
1299  00BA  0F01        	mov a,1
1299  00BB  0080     E  	mov _FuncData[1],a
1302  00BC              #line 1302 "C:\Users\houlinfeng\Desktop\TwoWireDevice_Hou\source\function.c"
1302  00BC  2800     R  	jmp _L67
1302  00BD              _L86:
1306  00BD              #line 1306 "C:\Users\houlinfeng\Desktop\TwoWireDevice_Hou\source\function.c"
1306  00BD  3614        	clr [20].4
1307  00BE              #line 1307 "C:\Users\houlinfeng\Desktop\TwoWireDevice_Hou\source\function.c"
1307  00BE  0700     E  	mov a,_FuncData[58]
1307  00BF  0080     E  	mov ra,a
1307  00C0  1E00     E  	snz ra
1307  00C1  2800     R  	jmp _L121
1309  00C2              #line 1309 "C:\Users\houlinfeng\Desktop\TwoWireDevice_Hou\source\function.c"
1309  00C2  0F01        	mov a,1
1309  00C3  0080     E  	mov _FuncData[53],a
1310  00C4              #line 1310 "C:\Users\houlinfeng\Desktop\TwoWireDevice_Hou\source\function.c"
1310  00C4  1500     E  	deca ra
1310  00C5  0080     E  	mov _FuncData[58],a
1310  00C6  2800     R  	jmp _L98
1310  00C7              _L87:
1327  00C7              #line 1327 "C:\Users\houlinfeng\Desktop\TwoWireDevice_Hou\source\function.c"
1327  00C7  0700     E  	mov a,_FuncData[54]
1327  00C8  0300     E  	add a,_FuncData[54]
1327  00C9  0080     E  	mov ra,a
1327  00CA  0700     E  	mov a,_FuncData[54]
1327  00CB  0380     E  	addm a,ra
1327  00CC  0700     E  	mov a,ra
1327  00CD  0380     E  	addm a,ra
1327  00CE  0700     E  	mov a,ra
1327  00CF  0380     E  	addm a,ra
1327  00D0  0700     E  	mov a,ra
1327  00D1  0B0B        	add a,11
1327  00D2  0080     E  	mov _FuncData[1],a
文件：function.c   编译器版本 HGASM 0202 页次12

1332  00D3              #line 1332 "C:\Users\houlinfeng\Desktop\TwoWireDevice_Hou\source\function.c"
1332  00D3  3000     E  	set _SysData[0].7
1334  00D4              #line 1334 "C:\Users\houlinfeng\Desktop\TwoWireDevice_Hou\source\function.c"
1334  00D4  0F06        	mov a,6
1334  00D5  0080     E  	mov _FuncData[53],a
1337  00D6              #line 1337 "C:\Users\houlinfeng\Desktop\TwoWireDevice_Hou\source\function.c"
1337  00D6  2800     R  	jmp _L67
1337  00D7              _L88:
1342  00D7              #line 1342 "C:\Users\houlinfeng\Desktop\TwoWireDevice_Hou\source\function.c"
1342  00D7  3800     R  	snz _AVDevice_2[0].1
1342  00D8  2800     R  	jmp _L96
1344  00D9              #line 1344 "C:\Users\houlinfeng\Desktop\TwoWireDevice_Hou\source\function.c"
1344  00D9  3214        	set [20].4
1344  00DA              _L96:
1346  00DA              #line 1346 "C:\Users\houlinfeng\Desktop\TwoWireDevice_Hou\source\function.c"
1346  00DA  0F01        	mov a,1
1346  00DB  0080     E  	mov _FuncData[1],a
1347  00DC              #line 1347 "C:\Users\houlinfeng\Desktop\TwoWireDevice_Hou\source\function.c"
1347  00DC  0F07        	mov a,7
1347  00DD  0080     E  	mov _FuncData[53],a
1350  00DE              #line 1350 "C:\Users\houlinfeng\Desktop\TwoWireDevice_Hou\source\function.c"
1350  00DE  2800     R  	jmp _L67
1350  00DF              _L122:
1354  00DF              #line 1354 "C:\Users\houlinfeng\Desktop\TwoWireDevice_Hou\source\function.c"
1354  00DF  3614        	clr [20].4
1355  00E0              #line 1355 "C:\Users\houlinfeng\Desktop\TwoWireDevice_Hou\source\function.c"
1355  00E0  0700     E  	mov a,_FuncData[59]
1355  00E1  0080     E  	mov ra,a
1355  00E2  1E00     E  	snz ra
1355  00E3  2800     R  	jmp _L97
1357  00E4              #line 1357 "C:\Users\houlinfeng\Desktop\TwoWireDevice_Hou\source\function.c"
1357  00E4  1500     E  	deca ra
1357  00E5  0080     E  	mov _FuncData[59],a
1357  00E6              _L121:
1358  00E6              #line 1358 "C:\Users\houlinfeng\Desktop\TwoWireDevice_Hou\source\function.c"
1358  00E6  0F05        	mov a,5
1358  00E7  0080     E  	mov _FuncData[53],a
1358  00E8  2800     R  	jmp _L98
1358  00E9              _L97:
1362  00E9              #line 1362 "C:\Users\houlinfeng\Desktop\TwoWireDevice_Hou\source\function.c"
1362  00E9  1F00     E  	clr _FuncData[53]
1362  00EA              _L98:
1367  00EA              #line 1367 "C:\Users\houlinfeng\Desktop\TwoWireDevice_Hou\source\function.c"
1367  00EA  0700     E  	mov a,_FuncData[54]
1367  00EB  0080     E  	mov rb,a
1367  00EC  1F00     E  	clr rc
1367  00ED  0180     E  	cpl rb
1367  00EE  0180     E  	cpl rc
1366  00EF              #line 1366 "C:\Users\houlinfeng\Desktop\TwoWireDevice_Hou\source\function.c"
1366  00EF  0700     E  	mov a,rb
1366  00F0  0300     E  	add a,rb
1366  00F1  0080     E  	mov ra,a
1366  00F2  0700     E  	mov a,ra
1366  00F3  0380     E  	addm a,rb
1366  00F4  0700     E  	mov a,rb
1366  00F5  0380     E  	addm a,rb
1366  00F6  0700     E  	mov a,rb
1366  00F7  0380     E  	addm a,rb
1366  00F8  0700     E  	mov a,rb
1366  00F9  0B1A        	add a,26
文件：function.c   编译器版本 HGASM 0202 页次13

1366  00FA  0080     E  	mov _FuncData[1],a
1372  00FB              #line 1372 "C:\Users\houlinfeng\Desktop\TwoWireDevice_Hou\source\function.c"
1372  00FB  2800     R  	jmp _L67
1372  00FC              _L80:
1384  00FC              #line 1384 "C:\Users\houlinfeng\Desktop\TwoWireDevice_Hou\source\function.c"
1384  00FC  1F00     E  	clr _FuncData[59]
1385  00FD              #line 1385 "C:\Users\houlinfeng\Desktop\TwoWireDevice_Hou\source\function.c"
1385  00FD  1F00     E  	clr _FuncData[58]
1387  00FE              #line 1387 "C:\Users\houlinfeng\Desktop\TwoWireDevice_Hou\source\function.c"
1387  00FE  1F00     E  	clr _FuncData[53]
1388  00FF              #line 1388 "C:\Users\houlinfeng\Desktop\TwoWireDevice_Hou\source\function.c"
1388  00FF  0700     E  	mov a,_SysData[0]
1388  0100  0080     E  	mov ra,a
1388  0101  3400     E  	clr ra.1
1388  0102  0700     E  	mov a,ra
1388  0103  0080     E  	mov _SysData[0],a
1390  0104              #line 1390 "C:\Users\houlinfeng\Desktop\TwoWireDevice_Hou\source\function.c"
1390  0104  0F02        	mov a,2
1390  0105  0080     E  	mov _FuncData[1],a
1393  0106              #line 1393 "C:\Users\houlinfeng\Desktop\TwoWireDevice_Hou\source\function.c"
1393  0106  0700     E  	mov a,_FuncData[26]
1393  0107  0AA0        	sub a,160
1393  0108  3D0A        	sz z
1393  0109  2800     R  	jmp _L119
1393  010A  0A01        	sub a,(161)-(160)
1393  010B  3D0A        	sz z
1393  010C  2800     R  	jmp _L101
1393  010D  0700     E  	mov a,_FuncData[26]
1393  010E  0AB0        	sub a,176
1393  010F  3D0A        	sz z
1393  0110  2800     R  	jmp _L102
1393  0111  0A01        	sub a,(177)-(176)
1393  0112  3D0A        	sz z
1393  0113  2800     R  	jmp _L103
1393  0114  1600     E  	siza _FuncData[26]
1393  0115  2800     R  	jmp _L117
1407  0116              #line 1407 "C:\Users\houlinfeng\Desktop\TwoWireDevice_Hou\source\function.c"
1407  0116  3000     E  	set ra.1
1407  0117  0700     E  	mov a,ra
1407  0118  0080     E  	mov _SysData[0],a
1409  0119              #line 1409 "C:\Users\houlinfeng\Desktop\TwoWireDevice_Hou\source\function.c"
1409  0119  2800     R  	jmp _L67
1409  011A              _L103:
1396  011A              #line 1396 "C:\Users\houlinfeng\Desktop\TwoWireDevice_Hou\source\function.c"
1396  011A  0F02        	mov a,2
1396  011B  2000     E  	call _PWMTimer
1397  011C              #line 1397 "C:\Users\houlinfeng\Desktop\TwoWireDevice_Hou\source\function.c"
1397  011C  3000     E  	set _SysData[0].1
1398  011D              #line 1398 "C:\Users\houlinfeng\Desktop\TwoWireDevice_Hou\source\function.c"
1398  011D  1F80     E  	set _FuncData[26]
1398  011E  2800     R  	jmp _L67
1398  011F              _L102:
1399  011F              #line 1399 "C:\Users\houlinfeng\Desktop\TwoWireDevice_Hou\source\function.c"
1399  011F  0F00        	mov a,0
1399  0120  2000     E  	call _PWMTimer
1400  0121              #line 1400 "C:\Users\houlinfeng\Desktop\TwoWireDevice_Hou\source\function.c"
1400  0121  3400     E  	clr _SysData[0].1
1401  0122              #line 1401 "C:\Users\houlinfeng\Desktop\TwoWireDevice_Hou\source\function.c"
1401  0122  1F00     E  	clr _FuncData[26]
1401  0123  2800     R  	jmp _L67
文件：function.c   编译器版本 HGASM 0202 页次14

1401  0124              _L101:
1402  0124              #line 1402 "C:\Users\houlinfeng\Desktop\TwoWireDevice_Hou\source\function.c"
1402  0124  3214        	set [20].4
1402  0125  2800     R  	jmp _L67
1402  0126              _L117:
1414  0126              #line 1414 "C:\Users\houlinfeng\Desktop\TwoWireDevice_Hou\source\function.c"
1414  0126  0F00        	mov a,0
1414  0127  2000     E  	call _PWMTimer
1414  0128              _L119:
1415  0128              #line 1415 "C:\Users\houlinfeng\Desktop\TwoWireDevice_Hou\source\function.c"
1415  0128  3614        	clr [20].4
1415  0129              _L67:
1415  0129  0003        	ret
1415  012A              _AVDevice endp
1415  012A              #line 1415 "C:\Users\houlinfeng\Desktop\TwoWireDevice_Hou\source\function.c"
1415  012A              #pragma debug scope 1 1
1415  0000              @HCCINIT	.section 'data'
1170  0000              #line 1170 "C:\Users\houlinfeng\Desktop\TwoWireDevice_Hou\source\function.c"
1170  0000              @HCCINIT___s_ucStrongSdCycCnt_2143 .section 'data'
1170  0000              ___s_ucStrongSdCycCnt_2143 label byte
1170  0000              #pragma debug variable 8 3 ___s_ucStrongSdCycCnt_2143 "s_ucStrongSdCycCnt"
1170  0000              	db 0
1170  0000              @ROMDATA_BASE .section inpage 'code'
1170  0000              	db 0
1170  0001              @HCCINIT___s_ucStrongSdCycCnt_2143 .section 'data'
1170  0001              public _AvGroupConfig
1170  0000              @crom	.section 'crom'
  13  0000              #line 13 "C:\Users\houlinfeng\Desktop\TwoWireDevice_Hou\source\function.c"
  13  0000              @crom	.section	'crom'
  13  0000              _AvGroupConfig:
  13  0000              #pragma debug array 42 8 4 1
  13  0000              #pragma debug array 42 8 4 1
  13  0000              #pragma debug variable 42 1 _AvGroupConfig "AvGroupConfig"
  13  0000              	db 11
  13  0001              	db 1
  13  0001              	db 26
  13  0002              	db 3
  13  0002              #pragma debug struct_end
  13  0002              #pragma debug struct_end
  13  0002              #pragma debug union_end
  13  0002              #pragma debug union_end
  13  0002              #pragma debug variable 44 1 ___pa "__pa" 1
  13  0002              #pragma debug struct_end
  13  0002              #pragma debug struct_end
  13  0002              #pragma debug union_end
  13  0002              #pragma debug union_end
  13  0002              #pragma debug variable 46 1 ___pc "__pc" 1
  13  0002              
  13  0002              ; output external variables
  13  0002              extern _CommData:byte
  13  0002              extern _SysData:byte
  13  0002              extern _FuncData:byte
  13  0002              extern _LEDTimer:near
  13  0002              extern _PWMTimer:near
  13  0002              
  13  0002              ; 
  13  0002              ; Generated by holtek-gcc v3.19, Mon Nov 01 10:16:47 2021
  13  0002              ; Rebuild 718
  13  0002              ; end of file

文件：function.c   编译器版本 HGASM 0202 页次15


        0 Errors, 0