文件：int.c        编译器版本 HGASM 0202 页次1


   1  0000              ; Generated by holtek-gcc v3.19, Mon Nov 01 10:16:49 2021
   2  0000              ; 
   3  0000              ; Configuration:
   4  0000              ;       with long instruction
   5  0000              ;       Single ROM, Multi-RAM
   6  0000              ;       bits_per_rom_unit:16
   7  0000              ;       with mp1
   8  0000              ;       with tbhp, address(0x9)
   9  0000              ;          Use tabrd-const
  10  0000              ;       
  11  0000              ; SFR address of long-instruction arch:
  12  0000              ;    mp0 = -1,1,0
  13  0000              ;    mp1 = 4,3,2
  14  0000              ;    mp2 = 14,13,12
  15  0000              ;    tbp = 9,7,8
  16  0000              ;    acc = 5
  17  0000              ;    pcl = 6
  18  0000              ;    status = 10
  19  0000              ;    bp = 11
  20  0000              ;    intc = 72
  21  0000              ;       
  22  0000              ;       
  23  0000              ; use 'tabrdc' instead of 'tabrd'
  24  0000              ;       
  25  0000              
  26  0000              #pragma translator "holtek-gcc 4.6.4" "3.19" "build 20130711"
  27  0000              ; Rebuild 718
  28  0000              
  29  0000              ir equ [2]
  30  0000              mp equ [3]
  31  0000              sbp equ [4]
  32  0000              acc equ [5]
  33  0000              bp equ [11]
  34  0000              tblp equ [7]
  35  0000              tbhp equ [9]
  36  0000              status equ [10]
  37  0000              c equ [10].0
  38  0000              ac equ [10].1
  39  0000              z equ [10].2
  40  0000              ov equ [10].3
  41  0000              cz equ [10].6
  42  0000              sc equ [10].7
  43  0000              intc equ [72]
  44  0000              
  45  0000              extern ra:byte
  46  0000              extern rb:byte
  47  0000              extern rc:byte
  48  0000              extern rd:byte
  49  0000              extern re:byte
  50  0000              extern rf:byte
  51  0000              extern rg:byte
  52  0000              extern rh:byte
  53  0000              extern _Crom2Prom:near
  54  0000              extern _Crom2PromNext:near
  55  0000              
  56  0000              RAMBANK 0 @BITDATASEC, @BITDATASEC1
  57  0000              @HCCINIT	.section 'data'
  58  0000              @HCCINIT0	.section 'data'
  59  0000              @BITDATASEC	 .section 'data'
文件：int.ASM      编译器版本 HGASM 0202 页次2

  60  0000              @BITDATASEC1	 .section 'data'
  61  0000              
  62  0000              #pragma debug scope 1 1
  63  0000              	extern __DELAY3:near
  64  0000              	extern __DELAYX3:near
  65  0000              	extern __DELAYX6:near
  66  0000              	extern __DELAYY5:near
  67  0000              	extern __DELAYY3:near
  68  0000              	extern _builtin_holtek_delay_2:byte
  69  0000              public _ISR_PLTCMP0
  70  0000              #pragma debug scope 2 1

 311  0000              #line 311 "C:\Users\houlinfeng\Desktop\TwoWireDevice_Hou\source\int.c"
 311  0000              @ISR_PLTCMP0_code .section at 4 'code'
 311  0000              _ISR_PLTCMP0:
 311  0000              ifdef INTERRUPT_DELAY
 311  0000              	nop
 311  0000              endif
 311  0000  0004        	reti
 311  0001              #line 311 "C:\Users\houlinfeng\Desktop\TwoWireDevice_Hou\source\int.c"
 311  0001              #pragma debug scope 1 1
 311  0001              public _ISR_INT0
 311  0001              #pragma debug scope 3 1
 318  0001              #line 318 "C:\Users\houlinfeng\Desktop\TwoWireDevice_Hou\source\int.c"
 318  0000              @ISR_INT0_code .section at 8 'code'
 318  0000              _ISR_INT0:
 318  0000              ifdef INTERRUPT_DELAY
 318  0000              	nop
 318  0000              endif
 318  0000  0004        	reti
 318  0001              #line 318 "C:\Users\houlinfeng\Desktop\TwoWireDevice_Hou\source\int.c"
 318  0001              #pragma debug scope 1 1
 318  0001              public _ISR_INT1
 318  0001              #pragma debug scope 4 1
 324  0001              #line 324 "C:\Users\houlinfeng\Desktop\TwoWireDevice_Hou\source\int.c"
 324  0000              @ISR_INT1_code .section at 12 'code'
 324  0000              _ISR_INT1:
 324  0000              ifdef INTERRUPT_DELAY
 324  0000              	nop
 324  0000              endif
 324  0000  0004        	reti
 324  0001              #line 324 "C:\Users\houlinfeng\Desktop\TwoWireDevice_Hou\source\int.c"
 324  0001              #pragma debug scope 1 1
 324  0001              public _ISR_UART
 324  0001              #pragma debug scope 5 1
 330  0001              #line 330 "C:\Users\houlinfeng\Desktop\TwoWireDevice_Hou\source\int.c"
 330  0000              @ISR_UART_code .section at 16 'code'
 330  0000              _ISR_UART:
 330  0000              ifdef INTERRUPT_DELAY
 330  0000              	nop
 330  0000              endif
 330  0000  0004        	reti
 330  0001              #line 330 "C:\Users\houlinfeng\Desktop\TwoWireDevice_Hou\source\int.c"
 330  0001              #pragma debug scope 1 1
 330  0001              public _ISR_LVD
 330  0001              #pragma debug scope 6 1
 336  0001              #line 336 "C:\Users\houlinfeng\Desktop\TwoWireDevice_Hou\source\int.c"
 336  0000              @ISR_LVD_code .section at 20 'code'
 336  0000              _ISR_LVD:
 336  0000              ifdef INTERRUPT_DELAY
文件：int.c        编译器版本 HGASM 0202 页次3

 336  0000              	nop
 336  0000              endif
 336  0000  0004        	reti
 336  0001              #line 336 "C:\Users\houlinfeng\Desktop\TwoWireDevice_Hou\source\int.c"
 336  0001              #pragma debug scope 1 1
 336  0001              public _ISR_ADC_EEPROM
 336  0001              #pragma debug scope 7 1
 342  0001              #line 342 "C:\Users\houlinfeng\Desktop\TwoWireDevice_Hou\source\int.c"
 342  0000              @ISR_ADC_EEPROM_code .section at 24 'code'
 342  0000              _ISR_ADC_EEPROM:
 342  0000              ifdef INTERRUPT_DELAY
 342  0000              	nop
 342  0000              endif
 342  0000  0004        	reti
 342  0001              #line 342 "C:\Users\houlinfeng\Desktop\TwoWireDevice_Hou\source\int.c"
 342  0001              #pragma debug scope 1 1
 342  0001              ___mfi1 equ [77]
 342  0001              ___ptm0c0 equ [82]
 342  0001              ___scc equ [18]
 342  0001              ___ptm0c2 equ [84]
 342  0001              ___ptm0ah equ [88]
 342  0001              ___ptm0al equ [87]
 342  0001              ___pltda2l equ [53]
 342  0001              ___pltdacc equ [50]
 342  0001              ___pltac equ [59]
 342  0001              public _ISR_PTM0CMP_PTM0CMA
 342  0001              #pragma debug scope 8 1
 348  0001              #line 348 "C:\Users\houlinfeng\Desktop\TwoWireDevice_Hou\source\int.c"
 348  0000              @ISR_PTM0CMP_PTM0CMA_code .section at 28 'code'
 348  0000              ifdef INTERRUPT_DELAY
 348  0000              	nop
 348  0000              endif
 348  0000  0080     E  	mov r1,a
 348  0001  070A        	mov a,status
 348  0002              ifndef INTERRUPT_DELAY
 348  0002  0080     E  	mov r2,a
 348  0003              endif
 348  0003  2800     R  	jmp _ISR_PTM0CMP_PTM0CMA
 348  0004              #pragma debug scope 1 1
 348  0004              @dummy28 endp
 348  0004              #pragma debug scope 9 1
 348  0000              _ISR_PTM0CMP_PTM0CMA .section 'code'
 348  0000              _ISR_PTM0CMP_PTM0CMA proc
 348  0000  00          local _ISR_PTM0CMP_PTM0CMA_2 db 1 dup(?)
 348  0000              ifdef INTERRUPT_DELAY
 348  0000              	mov r2,a
 348  0000              endif
 348  0000  0703        	mov a,mp
 348  0001  0080     E  	mov r3,a
 348  0002  0704        	mov a,sbp
 348  0003  0080     E  	mov r4,a
 348  0004  0707        	mov a,tblp
 348  0005  0080     E  	mov r5,a
 348  0006  0709        	mov a,tbhp
 348  0007  0080     E  	mov r6,a
 358  0008              #line 358 "C:\Users\houlinfeng\Desktop\TwoWireDevice_Hou\source\int.c"
 358  0008  3ACD        	snz [77].5
 358  0009  2800     R  	jmp _L8
 361  000A              #line 361 "C:\Users\houlinfeng\Desktop\TwoWireDevice_Hou\source\int.c"
 361  000A  37D2        	clr [82].7
文件：int.c        编译器版本 HGASM 0202 页次4

 365  000B              #line 365 "C:\Users\houlinfeng\Desktop\TwoWireDevice_Hou\source\int.c"
 365  000B  35D2        	clr [82].3
 366  000C              #line 366 "C:\Users\houlinfeng\Desktop\TwoWireDevice_Hou\source\int.c"
 366  000C  31D2        	set [82].3
 368  000D              #line 368 "C:\Users\houlinfeng\Desktop\TwoWireDevice_Hou\source\int.c"
 368  000D  0F01        	mov a,1
 368  000E  0080     E  	mov _FuncData[6],a
 369  000F              #line 369 "C:\Users\houlinfeng\Desktop\TwoWireDevice_Hou\source\int.c"
 369  000F  0F03        	mov a,3
 369  0010  0092        	mov [18],a
 372  0011              #line 372 "C:\Users\houlinfeng\Desktop\TwoWireDevice_Hou\source\int.c"
 372  0011  3C54        	sz [84].0
 372  0012  2800     R  	jmp _L10
 376  0013              #line 376 "C:\Users\houlinfeng\Desktop\TwoWireDevice_Hou\source\int.c"
 376  0013  0758        	mov a,[88]
 376  0014  0080     E  	mov _CommData[25],a
 377  0015              #line 377 "C:\Users\houlinfeng\Desktop\TwoWireDevice_Hou\source\int.c"
 377  0015  0757        	mov a,[87]
 377  0016  0080     E  	mov ra,a
 377  0017  0700     E  	mov a,ra
 377  0018  0080     E  	mov _CommData[26],a
 378  0019              #line 378 "C:\Users\houlinfeng\Desktop\TwoWireDevice_Hou\source\int.c"
 378  0019  0700     E  	mov a,_CommData[25]
 378  001A  0080     R  	mov ___time_2138[1],a
 378  001B  0700     E  	mov a,ra
 378  001C  0080     R  	mov ___time_2138[0],a
 386  001D              #line 386 "C:\Users\houlinfeng\Desktop\TwoWireDevice_Hou\source\int.c"
 386  001D  1E00     E  	snz _CommData[9]
 386  001E  2800     R  	jmp _L11
 388  001F              #line 388 "C:\Users\houlinfeng\Desktop\TwoWireDevice_Hou\source\int.c"
 388  001F  3800     E  	snz _CommData[7].7
 388  0020  2800     R  	jmp _L12
 390  0021              #line 390 "C:\Users\houlinfeng\Desktop\TwoWireDevice_Hou\source\int.c"
 390  0021  2000     E  	call _PltOpaSwitchOn
 391  0022              #line 391 "C:\Users\houlinfeng\Desktop\TwoWireDevice_Hou\source\int.c"
 391  0022              ;# 391 "C:\Users\houlinfeng\Desktop\TwoWireDevice_Hou\source\int.c" 1
 391  0022              	IF 200>263690
 391  0022              ;# 391 "C:\Users\houlinfeng\Desktop\TwoWireDevice_Hou\source\int.c" 1
 391  0022              	ERRMESSAGE 'the value 200of the argument exceeds the maxinum 263690'
 391  0022              	ENDIF
 391  0022              ;# 391 "C:\Users\houlinfeng\Desktop\TwoWireDevice_Hou\source\int.c" 1
 391  0022              	IF 200<0
 391  0022              ;# 391 "C:\Users\houlinfeng\Desktop\TwoWireDevice_Hou\source\int.c" 1
 391  0022              	ERRMESSAGE 'the value 200 of the argument exceeds the mininum 0'
 391  0022              	ENDIF
 391  0022              ;# 391 "C:\Users\houlinfeng\Desktop\TwoWireDevice_Hou\source\int.c" 1
 391  0022              	IF 200==0
 391  0022              ;# 391 "C:\Users\houlinfeng\Desktop\TwoWireDevice_Hou\source\int.c" 1
 391  0022              	JMP $
 391  0022              	ENDIF
 391  0022              ;# 391 "C:\Users\houlinfeng\Desktop\TwoWireDevice_Hou\source\int.c" 1
 391  0022              	IF 200==1
 391  0022              ;# 391 "C:\Users\houlinfeng\Desktop\TwoWireDevice_Hou\source\int.c" 1
 391  0022              	NOP
 391  0022              	ENDIF
 391  0022              ;# 391 "C:\Users\houlinfeng\Desktop\TwoWireDevice_Hou\source\int.c" 1
 391  0022              	IF 200==2
 391  0022              ;# 391 "C:\Users\houlinfeng\Desktop\TwoWireDevice_Hou\source\int.c" 1
 391  0022              	NOP
 391  0022              ;# 391 "C:\Users\houlinfeng\Desktop\TwoWireDevice_Hou\source\int.c" 1
文件：int.c        编译器版本 HGASM 0202 页次5

 391  0022              	NOP
 391  0022              	ENDIF
 391  0022              ;# 391 "C:\Users\houlinfeng\Desktop\TwoWireDevice_Hou\source\int.c" 1
 391  0022              	IF 200==3
 391  0022              ;# 391 "C:\Users\houlinfeng\Desktop\TwoWireDevice_Hou\source\int.c" 1
 391  0022              	NOP
 391  0022              ;# 391 "C:\Users\houlinfeng\Desktop\TwoWireDevice_Hou\source\int.c" 1
 391  0022              	NOP
 391  0022              ;# 391 "C:\Users\houlinfeng\Desktop\TwoWireDevice_Hou\source\int.c" 1
 391  0022              	NOP
 391  0022              	ENDIF
 391  0022              ;# 391 "C:\Users\houlinfeng\Desktop\TwoWireDevice_Hou\source\int.c" 1
 391  0022              	IF (200<8) AND (200>3)
 391  0022              ;# 391 "C:\Users\houlinfeng\Desktop\TwoWireDevice_Hou\source\int.c" 1
 391  0022              	CALL __DELAY3 + 7 -200
 391  0022              	ENDIF
 391  0022              ;# 391 "C:\Users\houlinfeng\Desktop\TwoWireDevice_Hou\source\int.c" 1
 391  0022              	IF (200< 0404h) AND (200>7)
 391  0022              ;# 391 "C:\Users\houlinfeng\Desktop\TwoWireDevice_Hou\source\int.c" 1
 391  0022  0F31        	MOV A,200/4-1
 391  0023              ;# 391 "C:\Users\houlinfeng\Desktop\TwoWireDevice_Hou\source\int.c" 1
 391  0023  2000     E  	CALL __DELAYX3 + 3 -(200 MOD 4)
 391  0024              	ENDIF
 391  0024              ;# 391 "C:\Users\houlinfeng\Desktop\TwoWireDevice_Hou\source\int.c" 1
 391  0024              	IF (200< 0x40B) AND (200> 0403h)
 391  0024              ;# 391 "C:\Users\houlinfeng\Desktop\TwoWireDevice_Hou\source\int.c" 1
 391  0024              	MOV A,0 
 391  0024              ;# 391 "C:\Users\houlinfeng\Desktop\TwoWireDevice_Hou\source\int.c" 1
 391  0024              	CALL __DELAYX6 + 0x40a -200
 391  0024              	ENDIF
 391  0024              ;# 391 "C:\Users\houlinfeng\Desktop\TwoWireDevice_Hou\source\int.c" 1
 391  0024              	IF (200 >= 0x40b) AND ((((200-9)%0402h)/4+1)>256)
 391  0024              ;# 391 "C:\Users\houlinfeng\Desktop\TwoWireDevice_Hou\source\int.c" 1
 391  0024              	MOV A,(200-9)/0402h
 391  0024              ;# 391 "C:\Users\houlinfeng\Desktop\TwoWireDevice_Hou\source\int.c" 1
 391  0024              	MOV _builtin_holtek_delay_2,A
 391  0024              ;# 391 "C:\Users\houlinfeng\Desktop\TwoWireDevice_Hou\source\int.c" 1
 391  0024              	MOV A,0
 391  0024              ;# 391 "C:\Users\houlinfeng\Desktop\TwoWireDevice_Hou\source\int.c" 1
 391  0024              	CALL __DELAYY5 +5- (((200-9)%0402h)%6)
 391  0024              	ENDIF
 391  0024              ;# 391 "C:\Users\houlinfeng\Desktop\TwoWireDevice_Hou\source\int.c" 1
 391  0024              	IF (200 >= 0x40b) AND ((((200-9)%0402h)/4+1)<=256)
 391  0024              ;# 391 "C:\Users\houlinfeng\Desktop\TwoWireDevice_Hou\source\int.c" 1
 391  0024              	MOV A,(200-9)/0402h
 391  0024              ;# 391 "C:\Users\houlinfeng\Desktop\TwoWireDevice_Hou\source\int.c" 1
 391  0024              	MOV _builtin_holtek_delay_2,A
 391  0024              ;# 391 "C:\Users\houlinfeng\Desktop\TwoWireDevice_Hou\source\int.c" 1
 391  0024              	MOV A,((200-9)%0402h)/4+1
 391  0024              ;# 391 "C:\Users\houlinfeng\Desktop\TwoWireDevice_Hou\source\int.c" 1
 391  0024              	CALL __DELAYY3 +3-(((200-9)%0402h)%4)
 391  0024              	ENDIF
 392  0024              #line 392 "C:\Users\houlinfeng\Desktop\TwoWireDevice_Hou\source\int.c"
 392  0024  2000     E  	call _PltOpaSwitchOff
 392  0025              _L12:
 395  0025              #line 395 "C:\Users\houlinfeng\Desktop\TwoWireDevice_Hou\source\int.c"
 395  0025  0700     E  	mov a,_CommData[7]
 395  0026  0380     E  	addm a,_CommData[7]
 396  0027              #line 396 "C:\Users\houlinfeng\Desktop\TwoWireDevice_Hou\source\int.c"
 396  0027  1580     E  	dec _CommData[9]
文件：int.c        编译器版本 HGASM 0202 页次6

 396  0028              _L11:
 409  0028              #line 409 "C:\Users\houlinfeng\Desktop\TwoWireDevice_Hou\source\int.c"
 409  0028  0700     R  	mov a,___time_2138[0]
 409  0029  0080     E  	mov rb,a
 409  002A  0700     R  	mov a,___time_2138[1]
 409  002B  0080     E  	mov rc,a
 409  002C  0FBE        	mov a,190
 409  002D  0300     E  	add a,rb
 409  002E  0080     E  	mov rd,a
 409  002F  0FFF        	mov a,255
 409  0030  1300     E  	adc a,rc
 409  0031  0080     E  	mov re,a
 409  0032  0FF8        	mov a,248
 409  0033  0200     E  	sub a,rd
 409  0034  0F00        	mov a,0
 409  0035  1200     E  	sbc a,re
 409  0036  3C0A        	sz c
 409  0037  2800     R  	jmp _L13
 410  0038              #line 410 "C:\Users\houlinfeng\Desktop\TwoWireDevice_Hou\source\int.c"
 410  0038  1080     E  	sz _CommData[0]
 410  0039  2800     R  	jmp _L14
 410  003A              _L13:
 412  003A              #line 412 "C:\Users\houlinfeng\Desktop\TwoWireDevice_Hou\source\int.c"
 412  003A  0700     E  	mov a,_CommData[0]
 412  003B  0080     R  	mov _ISR_PTM0CMP_PTM0CMA_2[0],a
 412  003C  1080     R  	sz _ISR_PTM0CMP_PTM0CMA_2[0]
 412  003D  2800     R  	jmp _L15
 414  003E              #line 414 "C:\Users\houlinfeng\Desktop\TwoWireDevice_Hou\source\int.c"
 414  003E  0F10        	mov a,16
 414  003F  0080     E  	mov _CommData[0],a
 415  0040              #line 415 "C:\Users\houlinfeng\Desktop\TwoWireDevice_Hou\source\int.c"
 415  0040  1480     E  	inc _CommData[10]
 415  0041  2800     R  	jmp _L10
 415  0042              _L15:
 417  0042              #line 417 "C:\Users\houlinfeng\Desktop\TwoWireDevice_Hou\source\int.c"
 417  0042  0700     R  	mov a,_ISR_PTM0CMP_PTM0CMA_2[0]
 417  0043  0A03        	sub a,3
 417  0044  3D0A        	sz z
 417  0045  2800     R  	jmp _L10
 425  0046              #line 425 "C:\Users\houlinfeng\Desktop\TwoWireDevice_Hou\source\int.c"
 425  0046  0700     E  	mov a,_CommData[10]
 425  0047  0080     R  	mov _ISR_PTM0CMP_PTM0CMA_2[0],a
 425  0048  0F2C        	mov a,44
 425  0049  0200     R  	sub a,_ISR_PTM0CMP_PTM0CMA_2[0]
 425  004A  380A        	snz c
 425  004B  2800     R  	jmp _L10
 430  004C              #line 430 "C:\Users\houlinfeng\Desktop\TwoWireDevice_Hou\source\int.c"
 430  004C  0F72        	mov a,114
 430  004D  0200     E  	sub a,rb
 430  004E  0F00        	mov a,0
 430  004F  1200     E  	sbc a,rc
 430  0050  380A        	snz c
 430  0051  2800     R  	jmp _L24
 432  0052              #line 432 "C:\Users\houlinfeng\Desktop\TwoWireDevice_Hou\source\int.c"
 432  0052  0700     E  	mov a,_CommData[8]
 432  0053  0380     E  	addm a,_CommData[8]
 434  0054              #line 434 "C:\Users\houlinfeng\Desktop\TwoWireDevice_Hou\source\int.c"
 434  0054  0F01        	mov a,1
 434  0055  0080     E  	mov ra,a
 434  0056  2800     R  	jmp _L17
文件：int.c        编译器版本 HGASM 0202 页次7

 434  0057              _L24:
 360  0057              #line 360 "C:\Users\houlinfeng\Desktop\TwoWireDevice_Hou\source\int.c"
 360  0057  1F00     E  	clr ra
 360  0058              _L17:
 438  0058              #line 438 "C:\Users\houlinfeng\Desktop\TwoWireDevice_Hou\source\int.c"
 438  0058  0F73        	mov a,115
 438  0059  0300     E  	add a,rb
 438  005A  0080     E  	mov rd,a
 438  005B  0FFF        	mov a,255
 438  005C  1300     E  	adc a,rc
 438  005D  0080     E  	mov re,a
 438  005E  0F30        	mov a,48
 438  005F  0200     E  	sub a,rd
 438  0060  0F00        	mov a,0
 438  0061  1200     E  	sbc a,re
 438  0062  380A        	snz c
 438  0063  2800     R  	jmp _L18
 440  0064              #line 440 "C:\Users\houlinfeng\Desktop\TwoWireDevice_Hou\source\int.c"
 440  0064  0700     E  	mov a,_CommData[8]
 440  0065  0300     E  	add a,_CommData[8]
 440  0066  0080     E  	mov ra,a
 441  0067              #line 441 "C:\Users\houlinfeng\Desktop\TwoWireDevice_Hou\source\int.c"
 441  0067  1400     E  	inca ra
 441  0068  0080     E  	mov _CommData[8],a
 441  0069  2800     R  	jmp _L19
 441  006A              _L18:
 446  006A              #line 446 "C:\Users\houlinfeng\Desktop\TwoWireDevice_Hou\source\int.c"
 446  006A  0FC8        	mov a,200
 446  006B  0200     E  	sub a,rb
 446  006C  0F00        	mov a,0
 446  006D  1200     E  	sbc a,rc
 446  006E  3C0A        	sz c
 446  006F  2800     R  	jmp _L20
 446  0070  0F09        	mov a,9
 446  0071  0200     R  	sub a,_ISR_PTM0CMP_PTM0CMA_2[0]
 446  0072  380A        	snz c
 446  0073  2800     R  	jmp _L19
 446  0074              _L20:
 451  0074              #line 451 "C:\Users\houlinfeng\Desktop\TwoWireDevice_Hou\source\int.c"
 451  0074  1700     E  	sdza ra
 451  0075  2800     R  	jmp _L21
 451  0076              _L19:
 454  0076              #line 454 "C:\Users\houlinfeng\Desktop\TwoWireDevice_Hou\source\int.c"
 454  0076  2000     E  	call _CommProtocol
 455  0077              #line 455 "C:\Users\houlinfeng\Desktop\TwoWireDevice_Hou\source\int.c"
 455  0077  1480     E  	inc _CommData[10]
 455  0078  2800     R  	jmp _L22
 455  0079              _L21:
 460  0079              #line 460 "C:\Users\houlinfeng\Desktop\TwoWireDevice_Hou\source\int.c"
 460  0079  2000     E  	call _CommBitErr
 461  007A              #line 461 "C:\Users\houlinfeng\Desktop\TwoWireDevice_Hou\source\int.c"
 461  007A  2000     E  	call _PltOpaSwitchOff
 461  007B              _L22:
 467  007B              #line 467 "C:\Users\houlinfeng\Desktop\TwoWireDevice_Hou\source\int.c"
 467  007B  1E00     E  	snz _CommData[9]
 467  007C  2800     R  	jmp _L10
 469  007D              #line 469 "C:\Users\houlinfeng\Desktop\TwoWireDevice_Hou\source\int.c"
 469  007D  3800     E  	snz _CommData[7].7
 469  007E  2800     R  	jmp _L10
 471  007F              #line 471 "C:\Users\houlinfeng\Desktop\TwoWireDevice_Hou\source\int.c"
文件：int.c        编译器版本 HGASM 0202 页次8

 471  007F  1F35        	clr [53]
 472  0080              #line 472 "C:\Users\houlinfeng\Desktop\TwoWireDevice_Hou\source\int.c"
 472  0080  3132        	set [50].2
 473  0081              #line 473 "C:\Users\houlinfeng\Desktop\TwoWireDevice_Hou\source\int.c"
 473  0081  333B        	set [59].6
 473  0082  2800     R  	jmp _L10
 473  0083              _L14:
 483  0083              #line 483 "C:\Users\houlinfeng\Desktop\TwoWireDevice_Hou\source\int.c"
 483  0083  2000     E  	call _CommBitErr
 484  0084              #line 484 "C:\Users\houlinfeng\Desktop\TwoWireDevice_Hou\source\int.c"
 484  0084  2000     E  	call _PltOpaSwitchOff
 484  0085              _L10:
 488  0085              #line 488 "C:\Users\houlinfeng\Desktop\TwoWireDevice_Hou\source\int.c"
 488  0085  3000     E  	set _SysData[0].0
 492  0086              #line 492 "C:\Users\houlinfeng\Desktop\TwoWireDevice_Hou\source\int.c"
 492  0086  36CD        	clr [77].5
 492  0087              _L8:
 496  0087              #line 496 "C:\Users\houlinfeng\Desktop\TwoWireDevice_Hou\source\int.c"
 496  0087  3A4D        	snz [77].4
 496  0088  2800     R  	jmp _L7
 499  0089              #line 499 "C:\Users\houlinfeng\Desktop\TwoWireDevice_Hou\source\int.c"
 499  0089  0F01        	mov a,1
 499  008A  0080     E  	mov _FuncData[6],a
 500  008B              #line 500 "C:\Users\houlinfeng\Desktop\TwoWireDevice_Hou\source\int.c"
 500  008B  33D2        	set [82].7
 501  008C              #line 501 "C:\Users\houlinfeng\Desktop\TwoWireDevice_Hou\source\int.c"
 501  008C  2000     E  	call _CommTimeout
 503  008D              #line 503 "C:\Users\houlinfeng\Desktop\TwoWireDevice_Hou\source\int.c"
 503  008D  3000     E  	set _SysData[0].7
 504  008E              #line 504 "C:\Users\houlinfeng\Desktop\TwoWireDevice_Hou\source\int.c"
 504  008E  364D        	clr [77].4
 504  008F              _L7:
 504  008F  0700     E  	mov a,r2
 504  0090  008A        	mov status,a
 504  0091  0700     E  	mov a,r3
 504  0092  0083        	mov mp,a
 504  0093  0700     E  	mov a,r4
 504  0094  0084        	mov sbp,a
 504  0095  0700     E  	mov a,r5
 504  0096  0087        	mov tblp,a
 504  0097  0700     E  	mov a,r6
 504  0098  0089        	mov tbhp,a
 504  0099  1D05        	tabrdc acc
 504  009A  0700     E  	mov a,r1
 504  009B  0004        	reti
 504  009C              _ISR_PTM0CMP_PTM0CMA endp
 504  009C              
 504  009C              #line 504 "C:\Users\houlinfeng\Desktop\TwoWireDevice_Hou\source\int.c"
 504  009C              #pragma debug scope 1 1
 504  009C              public _ISR_PTM1CMP_PTM1CMA
 504  009C              #pragma debug scope 10 1
 514  009C              #line 514 "C:\Users\houlinfeng\Desktop\TwoWireDevice_Hou\source\int.c"
 514  0000              @ISR_PTM1CMP_PTM1CMA_code .section at 32 'code'
 514  0000              _ISR_PTM1CMP_PTM1CMA:
 514  0000              ifdef INTERRUPT_DELAY
 514  0000              	nop
 514  0000              endif
 514  0000  0004        	reti
 514  0001              #line 514 "C:\Users\houlinfeng\Desktop\TwoWireDevice_Hou\source\int.c"
 514  0001              #pragma debug scope 1 1
文件：int.c        编译器版本 HGASM 0202 页次9

 514  0001              public _ISR_CTM0CMP_CTM0CMA
 514  0001              #pragma debug scope 11 1
 520  0001              #line 520 "C:\Users\houlinfeng\Desktop\TwoWireDevice_Hou\source\int.c"
 520  0000              @ISR_CTM0CMP_CTM0CMA_code .section at 36 'code'
 520  0000              _ISR_CTM0CMP_CTM0CMA:
 520  0000              ifdef INTERRUPT_DELAY
 520  0000              	nop
 520  0000              endif
 520  0000  0004        	reti
 520  0001              #line 520 "C:\Users\houlinfeng\Desktop\TwoWireDevice_Hou\source\int.c"
 520  0001              #pragma debug scope 1 1
 520  0001              ___mfi4 equ [80]
 520  0001              ___intc0 equ [72]
 520  0001              public _ISR_CTM1CMP_CTM1CMA
 520  0001              #pragma debug scope 12 1
 526  0001              #line 526 "C:\Users\houlinfeng\Desktop\TwoWireDevice_Hou\source\int.c"
 526  0000              @ISR_CTM1CMP_CTM1CMA_code .section at 40 'code'
 526  0000              ifdef INTERRUPT_DELAY
 526  0000              	nop
 526  0000              endif
 526  0000  0080     E  	mov r1,a
 526  0001  070A        	mov a,status
 526  0002              ifndef INTERRUPT_DELAY
 526  0002  0080     E  	mov r2,a
 526  0003              endif
 526  0003  2800     R  	jmp _ISR_CTM1CMP_CTM1CMA
 526  0004              #pragma debug scope 1 1
 526  0004              @dummy40 endp
 526  0004              #pragma debug scope 13 1
 526  0000              _ISR_CTM1CMP_CTM1CMA .section 'code'
 526  0000              _ISR_CTM1CMP_CTM1CMA proc
 526  0000              ifdef INTERRUPT_DELAY
 526  0000              	mov r2,a
 526  0000              endif
 529  0000              #line 529 "C:\Users\houlinfeng\Desktop\TwoWireDevice_Hou\source\int.c"
 529  0000  3AD0        	snz [80].5
 529  0001  2800     R  	jmp _L44
 535  0002              #line 535 "C:\Users\houlinfeng\Desktop\TwoWireDevice_Hou\source\int.c"
 535  0002  3048        	set [72].0
 537  0003              #line 537 "C:\Users\houlinfeng\Desktop\TwoWireDevice_Hou\source\int.c"
 537  0003  0700     E  	mov a,_FuncData[1]
 537  0004  0080     E  	mov ra,a
 537  0005  1E00     E  	snz ra
 537  0006  2800     R  	jmp _L45
 539  0007              #line 539 "C:\Users\houlinfeng\Desktop\TwoWireDevice_Hou\source\int.c"
 539  0007  1500     E  	deca ra
 539  0008  0080     E  	mov _FuncData[1],a
 539  0009              _L45:
 541  0009              #line 541 "C:\Users\houlinfeng\Desktop\TwoWireDevice_Hou\source\int.c"
 541  0009  0700     E  	mov a,_FuncData[3]
 541  000A  0080     E  	mov ra,a
 541  000B  1E00     E  	snz ra
 541  000C  2800     R  	jmp _L46
 543  000D              #line 543 "C:\Users\houlinfeng\Desktop\TwoWireDevice_Hou\source\int.c"
 543  000D  1500     E  	deca ra
 543  000E  0080     E  	mov _FuncData[3],a
 543  000F              _L46:
 546  000F              #line 546 "C:\Users\houlinfeng\Desktop\TwoWireDevice_Hou\source\int.c"
 546  000F  3000     E  	set _SysData[0].7
 548  0010              #line 548 "C:\Users\houlinfeng\Desktop\TwoWireDevice_Hou\source\int.c"
文件：int.c        编译器版本 HGASM 0202 页次10

 548  0010  36D0        	clr [80].5
 548  0011              _L44:
 551  0011              #line 551 "C:\Users\houlinfeng\Desktop\TwoWireDevice_Hou\source\int.c"
 551  0011  3A50        	snz [80].4
 551  0012  2800     R  	jmp _L43
 553  0013              #line 553 "C:\Users\houlinfeng\Desktop\TwoWireDevice_Hou\source\int.c"
 553  0013  3650        	clr [80].4
 553  0014              _L43:
 553  0014  0700     E  	mov a,r2
 553  0015  008A        	mov status,a
 553  0016  0700     E  	mov a,r1
 553  0017  0004        	reti
 553  0018              _ISR_CTM1CMP_CTM1CMA endp
 553  0018              
 553  0018              #line 553 "C:\Users\houlinfeng\Desktop\TwoWireDevice_Hou\source\int.c"
 553  0018              #pragma debug scope 1 1
 553  0018              public _ISR_TIMEBASE0
 553  0018              #pragma debug scope 14 1
 564  0018              #line 564 "C:\Users\houlinfeng\Desktop\TwoWireDevice_Hou\source\int.c"
 564  0000              @ISR_TIMEBASE0_code .section at 44 'code'
 564  0000              _ISR_TIMEBASE0:
 564  0000              ifdef INTERRUPT_DELAY
 564  0000              	nop
 564  0000              endif
 564  0000  0004        	reti
 564  0001              #line 564 "C:\Users\houlinfeng\Desktop\TwoWireDevice_Hou\source\int.c"
 564  0001              #pragma debug scope 1 1
 564  0001              public _ISR_TIMEBASE1
 564  0001              #pragma debug scope 15 1
 571  0001              #line 571 "C:\Users\houlinfeng\Desktop\TwoWireDevice_Hou\source\int.c"
 571  0000              @ISR_TIMEBASE1_code .section at 48 'code'
 571  0000              _ISR_TIMEBASE1:
 571  0000              ifdef INTERRUPT_DELAY
 571  0000              	nop
 571  0000              endif
 571  0000  0004        	reti
 571  0001              #line 571 "C:\Users\houlinfeng\Desktop\TwoWireDevice_Hou\source\int.c"
 571  0001              #pragma debug scope 1 1
 571  0001              public _ISR_PLTCMP1
 571  0001              #pragma debug scope 16 1
 577  0001              #line 577 "C:\Users\houlinfeng\Desktop\TwoWireDevice_Hou\source\int.c"
 577  0000              @ISR_PLTCMP1_code .section at 52 'code'
 577  0000              _ISR_PLTCMP1:
 577  0000              ifdef INTERRUPT_DELAY
 577  0000              	nop
 577  0000              endif
 577  0000  0004        	reti
 577  0001              #line 577 "C:\Users\houlinfeng\Desktop\TwoWireDevice_Hou\source\int.c"
 577  0001              #pragma debug scope 1 1
 577  0000              @HCCINIT	.section 'data'
 354  0000              #line 354 "C:\Users\houlinfeng\Desktop\TwoWireDevice_Hou\source\int.c"
 354  0000              @HCCINIT___time_2138 .section 'data'
 354  0000              ___time_2138 label byte
 354  0000              #pragma debug variable 12 9 ___time_2138 "time"
 354  0000              	db 0
 354  0000              @ROMDATA_BASE .section inpage 'code'
 354  0000              	db 0
 354  0001              @HCCINIT___time_2138 .section 'data'
 354  0001              	db 0
 354  0001              @ROMDATA_BASE .section inpage 'code'
文件：int.c        编译器版本 HGASM 0202 页次11

 354  0001              	db 0
 354  0002              @HCCINIT___time_2138 .section 'data'
 354  0002              #pragma debug struct_end
 354  0002              #pragma debug struct_end
 354  0002              #pragma debug union_end
 354  0002              #pragma debug union_end
 354  0002              #pragma debug variable 43 1 ___scc "__scc" 1
 354  0002              #pragma debug struct_end
 354  0002              #pragma debug struct_end
 354  0002              #pragma debug union_end
 354  0002              #pragma debug union_end
 354  0002              #pragma debug variable 45 1 ___pltdacc "__pltdacc" 1
 354  0002              #pragma debug variable 8 1 ___pltda2l "__pltda2l" 1
 354  0002              #pragma debug struct_end
 354  0002              #pragma debug struct_end
 354  0002              #pragma debug union_end
 354  0002              #pragma debug union_end
 354  0002              #pragma debug variable 47 1 ___pltac "__pltac" 1
 354  0002              #pragma debug struct_end
 354  0002              #pragma debug struct_end
 354  0002              #pragma debug union_end
 354  0002              #pragma debug union_end
 354  0002              #pragma debug variable 49 1 ___intc0 "__intc0" 1
 354  0002              #pragma debug struct_end
 354  0002              #pragma debug struct_end
 354  0002              #pragma debug union_end
 354  0002              #pragma debug union_end
 354  0002              #pragma debug variable 51 1 ___mfi1 "__mfi1" 1
 354  0002              #pragma debug struct_end
 354  0002              #pragma debug struct_end
 354  0002              #pragma debug union_end
 354  0002              #pragma debug union_end
 354  0002              #pragma debug variable 53 1 ___mfi4 "__mfi4" 1
 354  0002              #pragma debug struct_end
 354  0002              #pragma debug struct_end
 354  0002              #pragma debug union_end
 354  0002              #pragma debug union_end
 354  0002              #pragma debug variable 55 1 ___ptm0c0 "__ptm0c0" 1
 354  0002              #pragma debug struct_end
 354  0002              #pragma debug struct_end
 354  0002              #pragma debug union_end
 354  0002              #pragma debug union_end
 354  0002              #pragma debug variable 57 1 ___ptm0c2 "__ptm0c2" 1
 354  0002              #pragma debug variable 8 1 ___ptm0al "__ptm0al" 1
 354  0002              #pragma debug variable 8 1 ___ptm0ah "__ptm0ah" 1
 354  0002              
 354  0002              ; output external variables
 354  0002              extern _SysData:byte
 354  0002              extern _CommData:byte
 354  0002              extern _FuncData:byte
 354  0002              extern r1:byte
 354  0002              extern r2:byte
 354  0002              extern r3:byte
 354  0002              extern r4:byte
 354  0002              extern r5:byte
 354  0002              extern r6:byte
 354  0002              extern _PltOpaSwitchOn:near
 354  0002              extern _PltOpaSwitchOff:near
 354  0002              extern _CommProtocol:near
 354  0002              extern _CommBitErr:near
文件：int.c        编译器版本 HGASM 0202 页次12

 354  0002              extern _CommTimeout:near
 354  0002              
 354  0002              ; 
 354  0002              ; Generated by holtek-gcc v3.19, Mon Nov 01 10:16:49 2021
 354  0002              ; Rebuild 718
 354  0002              ; end of file


        0 Errors, 0