文件：main.c       编译器版本 HGASM 0202 页次1


   1  0000              ; Generated by holtek-gcc v3.19, Mon Nov 01 10:16:48 2021
   2  0000              ; 
   3  0000              ; Configuration:
   4  0000              ;       with long instruction
   5  0000              ;       Single ROM, Multi-RAM
   6  0000              ;       bits_per_rom_unit:16
   7  0000              ;       with mp1
   8  0000              ;       with tbhp, address(0x9)
   9  0000              ;          Use tabrd-const
  10  0000              ;       
  11  0000              ; SFR address of long-instruction arch:
  12  0000              ;    mp0 = -1,1,0
  13  0000              ;    mp1 = 4,3,2
  14  0000              ;    mp2 = 14,13,12
  15  0000              ;    tbp = 9,7,8
  16  0000              ;    acc = 5
  17  0000              ;    pcl = 6
  18  0000              ;    status = 10
  19  0000              ;    bp = 11
  20  0000              ;    intc = 72
  21  0000              ;       
  22  0000              ;       
  23  0000              ; use 'tabrdc' instead of 'tabrd'
  24  0000              ;       
  25  0000              
  26  0000              #pragma translator "holtek-gcc 4.6.4" "3.19" "build 20130711"
  27  0000              ; Rebuild 718
  28  0000              
  29  0000              ir equ [2]
  30  0000              mp equ [3]
  31  0000              sbp equ [4]
  32  0000              acc equ [5]
  33  0000              bp equ [11]
  34  0000              tblp equ [7]
  35  0000              tbhp equ [9]
  36  0000              status equ [10]
  37  0000              c equ [10].0
  38  0000              ac equ [10].1
  39  0000              z equ [10].2
  40  0000              ov equ [10].3
  41  0000              cz equ [10].6
  42  0000              sc equ [10].7
  43  0000              intc equ [72]
  44  0000              
  45  0000              extern ra:byte
  46  0000              extern rb:byte
  47  0000              extern rc:byte
  48  0000              extern rd:byte
  49  0000              extern re:byte
  50  0000              extern rf:byte
  51  0000              extern rg:byte
  52  0000              extern rh:byte
  53  0000              extern _Crom2Prom:near
  54  0000              extern _Crom2PromNext:near
  55  0000              
  56  0000              RAMBANK 0 @BITDATASEC, @BITDATASEC1
  57  0000              @HCCINIT	.section 'data'
  58  0000              @HCCINIT0	.section 'data'
  59  0000              @BITDATASEC	 .section 'data'
文件：main.ASM     编译器版本 HGASM 0202 页次2

  60  0000              @BITDATASEC1	 .section 'data'
  61  0000              
  62  0000              #pragma debug scope 1 1
  63  0000              	extern __DELAY3:near
  64  0000              	extern __DELAYX3:near
  65  0000              	extern __DELAYX6:near
  66  0000              	extern __DELAYY5:near
  67  0000              	extern __DELAYY3:near
  68  0000              	extern _builtin_holtek_delay_2:byte
  69  0000              ___pa equ [20]
  70  0000              ___pac equ [21]
  71  0000              ___papu equ [22]
  72  0000              ___pawu equ [23]
  73  0000              ___pas0 equ [107]
  74  0000              ___pas1 equ [108]
  75  0000              ___pb equ [24]
  76  0000              ___pbc equ [25]
  77  0000              ___pbpu equ [26]
  78  0000              ___pbs0 equ [109]
  79  0000              ___pc equ [27]
  80  0000              ___pcc equ [28]
  81  0000              ___pcpu equ [29]
  82  0000              ___sledc0 equ [30]
  83  0000              ___sledc1 equ [31]
  84  0000              ___ifs equ [112]
  85  0000              public _ConfigType
  86  0000              #pragma debug scope 2 1

 345  0000              #line 345 "C:\Users\houlinfeng\Desktop\TwoWireDevice_Hou\source\main.c"
 345  0000              _ConfigType .section 'code'
 345  0000              _ConfigType proc
 345  0000  00              local _ConfigType_2 db 1 dup(?)	; 0,1
 345  0000  0080     E  	mov ra,a
 345  0001  0080     R  	mov _ConfigType_2[0],a
 345  0002              #pragma debug variable 8 2 _ConfigType_2+0 "Typetmp"
 346  0002              #line 346 "C:\Users\houlinfeng\Desktop\TwoWireDevice_Hou\source\main.c"
 346  0002  0700     E  	mov a,ra
 346  0003  0A5A        	sub a,90
 346  0004  390A        	snz z
 346  0005  2800     R  	jmp _L1
 582  0006              #line 582 "C:\Users\houlinfeng\Desktop\TwoWireDevice_Hou\source\main.c"
 582  0006  1F14        	clr [20]
 583  0007              #line 583 "C:\Users\houlinfeng\Desktop\TwoWireDevice_Hou\source\main.c"
 583  0007  1F15        	clr [21]
 584  0008              #line 584 "C:\Users\houlinfeng\Desktop\TwoWireDevice_Hou\source\main.c"
 584  0008  1F16        	clr [22]
 585  0009              #line 585 "C:\Users\houlinfeng\Desktop\TwoWireDevice_Hou\source\main.c"
 585  0009  1F17        	clr [23]
 586  000A              #line 586 "C:\Users\houlinfeng\Desktop\TwoWireDevice_Hou\source\main.c"
 586  000A  1F6B        	clr [107]
 587  000B              #line 587 "C:\Users\houlinfeng\Desktop\TwoWireDevice_Hou\source\main.c"
 587  000B  1F6C        	clr [108]
 589  000C              #line 589 "C:\Users\houlinfeng\Desktop\TwoWireDevice_Hou\source\main.c"
 589  000C  1F18        	clr [24]
 590  000D              #line 590 "C:\Users\houlinfeng\Desktop\TwoWireDevice_Hou\source\main.c"
 590  000D  1F19        	clr [25]
 591  000E              #line 591 "C:\Users\houlinfeng\Desktop\TwoWireDevice_Hou\source\main.c"
 591  000E  1F1A        	clr [26]
 592  000F              #line 592 "C:\Users\houlinfeng\Desktop\TwoWireDevice_Hou\source\main.c"
 592  000F  346D        	clr [109].0
文件：main.c       编译器版本 HGASM 0202 页次3

 593  0010              #line 593 "C:\Users\houlinfeng\Desktop\TwoWireDevice_Hou\source\main.c"
 593  0010  34ED        	clr [109].1
 595  0011              #line 595 "C:\Users\houlinfeng\Desktop\TwoWireDevice_Hou\source\main.c"
 595  0011  1F1B        	clr [27]
 596  0012              #line 596 "C:\Users\houlinfeng\Desktop\TwoWireDevice_Hou\source\main.c"
 596  0012  1F1C        	clr [28]
 597  0013              #line 597 "C:\Users\houlinfeng\Desktop\TwoWireDevice_Hou\source\main.c"
 597  0013  1F1D        	clr [29]
 599  0014              #line 599 "C:\Users\houlinfeng\Desktop\TwoWireDevice_Hou\source\main.c"
 599  0014  1F1E        	clr [30]
 600  0015              #line 600 "C:\Users\houlinfeng\Desktop\TwoWireDevice_Hou\source\main.c"
 600  0015  1F1F        	clr [31]
 602  0016              #line 602 "C:\Users\houlinfeng\Desktop\TwoWireDevice_Hou\source\main.c"
 602  0016  1F70        	clr [112]
 605  0017              #line 605 "C:\Users\houlinfeng\Desktop\TwoWireDevice_Hou\source\main.c"
 605  0017  0F43        	mov a,67
 605  0018  0080     R  	mov _FuncData[1],a
 606  0019              #line 606 "C:\Users\houlinfeng\Desktop\TwoWireDevice_Hou\source\main.c"
 606  0019  1F00     R  	clr _FuncData[54]
 607  001A              #line 607 "C:\Users\houlinfeng\Desktop\TwoWireDevice_Hou\source\main.c"
 607  001A  0F01        	mov a,1
 607  001B  0080     R  	mov _FuncData[55],a
 609  001C              #line 609 "C:\Users\houlinfeng\Desktop\TwoWireDevice_Hou\source\main.c"
 609  001C  0F03        	mov a,3
 609  001D  0080     R  	mov _FuncData[45],a
 609  001E              _L1:
 609  001E  0003        	ret
 609  001F              _ConfigType endp
 609  001F              #line 609 "C:\Users\houlinfeng\Desktop\TwoWireDevice_Hou\source\main.c"
 609  001F              #pragma debug scope 1 1
 609  001F              public _DataInit
 609  001F              #pragma debug scope 3 1
 312  001F              #line 312 "C:\Users\houlinfeng\Desktop\TwoWireDevice_Hou\source\main.c"
 312  0000              _DataInit .section 'code'
 312  0000              _DataInit proc
 317  0000              #line 317 "C:\Users\houlinfeng\Desktop\TwoWireDevice_Hou\source\main.c"
 317  0000  0F07        	mov a,7
 317  0001  0080     E  	mov _memset_2[4],a
 317  0002  1F00     E  	clr _memset_2[5]
 317  0003  1F00     E  	clr _memset_2[2]
 317  0004  1F00     E  	clr _memset_2[3]
 317  0005  0F00     R  	mov a,low offset _SysData
 317  0006  0080     E  	mov _memset_2[0],a
 317  0007  0F00     R  	mov a,high offset _SysData
 317  0008  0080     E  	mov _memset_2[1],a
 317  0009  2000     E  	call _memset
 318  000A              #line 318 "C:\Users\houlinfeng\Desktop\TwoWireDevice_Hou\source\main.c"
 318  000A  0F3B        	mov a,59
 318  000B  0080     E  	mov _memset_2[4],a
 318  000C  1F00     E  	clr _memset_2[5]
 318  000D  1F00     E  	clr _memset_2[2]
 318  000E  1F00     E  	clr _memset_2[3]
 318  000F  0F00     R  	mov a,low offset _MemData
 318  0010  0080     E  	mov _memset_2[0],a
 318  0011  0F00     R  	mov a,high offset _MemData
 318  0012  0080     E  	mov _memset_2[1],a
 318  0013  2000     E  	call _memset
 319  0014              #line 319 "C:\Users\houlinfeng\Desktop\TwoWireDevice_Hou\source\main.c"
 319  0014  0F1D        	mov a,29
 319  0015  0080     E  	mov _memset_2[4],a
文件：main.c       编译器版本 HGASM 0202 页次4

 319  0016  1F00     E  	clr _memset_2[5]
 319  0017  1F00     E  	clr _memset_2[2]
 319  0018  1F00     E  	clr _memset_2[3]
 319  0019  0F00     R  	mov a,low offset _CommData
 319  001A  0080     E  	mov _memset_2[0],a
 319  001B  0F00     R  	mov a,high offset _CommData
 319  001C  0080     E  	mov _memset_2[1],a
 319  001D  2000     E  	call _memset
 320  001E              #line 320 "C:\Users\houlinfeng\Desktop\TwoWireDevice_Hou\source\main.c"
 320  001E  0F41        	mov a,65
 320  001F  0080     E  	mov _memset_2[4],a
 320  0020  1F00     E  	clr _memset_2[5]
 320  0021  1F00     E  	clr _memset_2[2]
 320  0022  1F00     E  	clr _memset_2[3]
 320  0023  0F00     R  	mov a,low offset _FuncData
 320  0024  0080     E  	mov _memset_2[0],a
 320  0025  0F00     R  	mov a,high offset _FuncData
 320  0026  0080     E  	mov _memset_2[1],a
 320  0027  2000     E  	call _memset
 322  0028              #line 322 "C:\Users\houlinfeng\Desktop\TwoWireDevice_Hou\source\main.c"
 322  0028  2000     E  	call _MemoryInit
 324  0029              #line 324 "C:\Users\houlinfeng\Desktop\TwoWireDevice_Hou\source\main.c"
 324  0029  2000     E  	call _RefreshData
 327  002A              #line 327 "C:\Users\houlinfeng\Desktop\TwoWireDevice_Hou\source\main.c"
 327  002A  1F00     R  	clr _FuncData[10]
 327  002B  0F60        	mov a,96
 327  002C  0080     R  	mov _FuncData[11],a
 329  002D              #line 329 "C:\Users\houlinfeng\Desktop\TwoWireDevice_Hou\source\main.c"
 329  002D  1700     R  	sdza _SysData[4]
 329  002E  2800     R  	jmp _L6
 331  002F              #line 331 "C:\Users\houlinfeng\Desktop\TwoWireDevice_Hou\source\main.c"
 331  002F  1F00     R  	clr _FuncData[39]
 331  0030  0F60        	mov a,96
 331  0031  0080     R  	mov _FuncData[40],a
 331  0032              _L6:
 334  0032              #line 334 "C:\Users\houlinfeng\Desktop\TwoWireDevice_Hou\source\main.c"
 334  0032  0F20        	mov a,32
 334  0033  0080     R  	mov _FuncData[1],a
 337  0034              #line 337 "C:\Users\houlinfeng\Desktop\TwoWireDevice_Hou\source\main.c"
 337  0034  0700     R  	mov a,_SysData[2]
 337  0035  2000     R  	call _ConfigType
 337  0036  0003        	ret
 337  0037              _DataInit endp
 337  0037              #line 337 "C:\Users\houlinfeng\Desktop\TwoWireDevice_Hou\source\main.c"
 337  0037              #pragma debug scope 1 1
 337  0037              ___intc0 equ [72]
 337  0037              ___wdtc equ [61]
 337  0037              public _main
 337  0037              #pragma debug scope 4 1
 109  0037              #line 109 "C:\Users\houlinfeng\Desktop\TwoWireDevice_Hou\source\main.c"
 109  0037              IFDEF WITH_DEFAULT_STARTUP
 109  0037              extern _main_initial0:near
 109  0037              extern _main_startup:near
 109  0037              ENDIF
 109  0037              
 109  0037              ROMBANK 0 @start
 109  0000              @start .section com_l 'code'
 109  0000              _main_startup1:
 109  0000              @start .section com_e 'code'
 109  0000  2800     R  	jmp _main
文件：main.c       编译器版本 HGASM 0202 页次5

 109  0001              
 109  0000              _main .section 'code'
 109  0000              _main proc
 109  0000  00              local _main_2 db 1 dup(?)
 111  0001              #line 111 "C:\Users\houlinfeng\Desktop\TwoWireDevice_Hou\source\main.c"
 111  0000  2000     E  	call _SystemInit
 113  0001              #line 113 "C:\Users\houlinfeng\Desktop\TwoWireDevice_Hou\source\main.c"
 113  0001  2000     R  	call _DataInit
 115  0002              #line 115 "C:\Users\houlinfeng\Desktop\TwoWireDevice_Hou\source\main.c"
 115  0002  3048        	set [72].0
 115  0003              _L8:
 157  0003              #line 157 "C:\Users\houlinfeng\Desktop\TwoWireDevice_Hou\source\main.c"
 157  0003  1080     R  	sz _FuncData[1]
 157  0004  2800     R  	jmp _L9
 159  0005              #line 159 "C:\Users\houlinfeng\Desktop\TwoWireDevice_Hou\source\main.c"
 159  0005  0700     R  	mov a,_SysData[2]
 159  0006  0A5A        	sub a,90
 159  0007  390A        	snz z
 159  0008  2800     R  	jmp _L9
 212  0009              #line 212 "C:\Users\houlinfeng\Desktop\TwoWireDevice_Hou\source\main.c"
 212  0009  2000     E  	call _AVDevice
 212  000A              _L9:
 241  000A              #line 241 "C:\Users\houlinfeng\Desktop\TwoWireDevice_Hou\source\main.c"
 241  000A  1080     R  	sz _FuncData[3]
 241  000B  2800     R  	jmp _L12
 246  000C              #line 246 "C:\Users\houlinfeng\Desktop\TwoWireDevice_Hou\source\main.c"
 246  000C  0F02        	mov a,2
 246  000D  0080     R  	mov _FuncData[3],a
 253  000E              #line 253 "C:\Users\houlinfeng\Desktop\TwoWireDevice_Hou\source\main.c"
 253  000E  3C00     R  	sz _SysData[0].0
 253  000F  2800     R  	jmp _L12
 255  0010              #line 255 "C:\Users\houlinfeng\Desktop\TwoWireDevice_Hou\source\main.c"
 255  0010  2000     E  	call _AdjustBusVolt
 257  0011              #line 257 "C:\Users\houlinfeng\Desktop\TwoWireDevice_Hou\source\main.c"
 257  0011  2000     E  	call _MinWorkLoopVolCheck
 257  0012              _L12:
 264  0012              #line 264 "C:\Users\houlinfeng\Desktop\TwoWireDevice_Hou\source\main.c"
 264  0012  2000     E  	call _LedCtrl
 266  0013              #line 266 "C:\Users\houlinfeng\Desktop\TwoWireDevice_Hou\source\main.c"
 266  0013  2000     E  	call _RefreshData
 268  0014              #line 268 "C:\Users\houlinfeng\Desktop\TwoWireDevice_Hou\source\main.c"
 268  0014  1E00     R  	snz _MemData[58]
 268  0015  2800     R  	jmp _L14
 270  0016              #line 270 "C:\Users\houlinfeng\Desktop\TwoWireDevice_Hou\source\main.c"
 270  0016  2000     E  	call _MemoryWrite
 270  0017              _L14:
 272  0017              #line 272 "C:\Users\houlinfeng\Desktop\TwoWireDevice_Hou\source\main.c"
 272  0017  2000     E  	call _MemoryProcess
 274  0018              #line 274 "C:\Users\houlinfeng\Desktop\TwoWireDevice_Hou\source\main.c"
 274  0018  1E00     R  	snz _SysData[1]
 274  0019  2800     R  	jmp _L15
 276  001A              #line 276 "C:\Users\houlinfeng\Desktop\TwoWireDevice_Hou\source\main.c"
 276  001A  1080     R  	sz _CommData[0]
 276  001B  2800     R  	jmp _L15
 278  001C              #line 278 "C:\Users\houlinfeng\Desktop\TwoWireDevice_Hou\source\main.c"
 278  001C  0F07        	mov a,7
 278  001D  00BD        	mov [61],a
 278  001E              _L15:
 284  001E              #line 284 "C:\Users\houlinfeng\Desktop\TwoWireDevice_Hou\source\main.c"
 284  001E              ;# 284 "C:\Users\houlinfeng\Desktop\TwoWireDevice_Hou\source\main.c" 1
文件：main.c       编译器版本 HGASM 0202 页次6

 284  001E  0001        	clr wdt
 293  001F              #line 293 "C:\Users\houlinfeng\Desktop\TwoWireDevice_Hou\source\main.c"
 293  001F  0700     R  	mov a,_SysData[0]
 293  0020  0080     R  	mov _main_2[0],a
 293  0021  3800     R  	snz _main_2[0].7
 293  0022  2800     R  	jmp _L16
 295  0023              #line 295 "C:\Users\houlinfeng\Desktop\TwoWireDevice_Hou\source\main.c"
 295  0023  0700     R  	mov a,_main_2[0]
 295  0024  0B80        	add a,128
 295  0025  0080     R  	mov _SysData[0],a
 295  0026  2800     R  	jmp _L8
 295  0027              _L16:
 299  0027              #line 299 "C:\Users\houlinfeng\Desktop\TwoWireDevice_Hou\source\main.c"
 299  0027  0F01        	mov a,1
 299  0028  0200     R  	sub a,_main_2[0]
 299  0029  380A        	snz c
 299  002A  2800     R  	jmp _L8
 301  002B              #line 301 "C:\Users\houlinfeng\Desktop\TwoWireDevice_Hou\source\main.c"
 301  002B              ;# 301 "C:\Users\houlinfeng\Desktop\TwoWireDevice_Hou\source\main.c" 1
 301  002B  0002        	halt
 301  002C  2800     R  	jmp _L8
 301  002D  2800     R  	jmp $
 301  002E              _main endp
 301  002E              
 301  002E              @dummy endp
 301  002E              
 301  002E              #line 301 "C:\Users\houlinfeng\Desktop\TwoWireDevice_Hou\source\main.c"
 301  002E              #pragma debug scope 1 1
 301  002E              public _VerInfo
 301  0000              @crom	.section 'crom'
 627  0000              #line 627 "C:\Users\houlinfeng\Desktop\TwoWireDevice_Hou\source\main.c"
 627  0000              @crom	.section	'crom'
 627  0000              _VerInfo:
 627  0000              #pragma debug array 42 8 3 1
 627  0000              #pragma debug array 42 8 3 1
 627  0000              #pragma debug variable 42 1 _VerInfo "VerInfo"
 627  0000              	db 1
 627  0001              	db 21
 627  0001              	db 120
 103  0002              #line 103 "C:\Users\houlinfeng\Desktop\TwoWireDevice_Hou\source\main.c"
 103  0002              public _FuncData
 103  0000              @HCCINIT0_FuncData .section 'data'
 103  0000  0041[       _FuncData	db 65 dup(0)
            00
            ]
 103  0041              #pragma debug struct_end
 103  0041              #pragma debug struct_end
 103  0041              #pragma debug variable 43 1 _FuncData "FuncData"
 103  0041              
 103  0000              @HCCINIT .section 'data'
 102  0000              #line 102 "C:\Users\houlinfeng\Desktop\TwoWireDevice_Hou\source\main.c"
 102  0000              public _CommData
 102  0000              @HCCINIT0_CommData .section 'data'
 102  0000  001D[       _CommData	db 29 dup(0)
            00
            ]
 102  001D              #pragma debug struct_end
 102  001D              #pragma debug struct_end
 102  001D              #pragma debug variable 44 1 _CommData "CommData"
 102  001D              
文件：main.c       编译器版本 HGASM 0202 页次7

 102  0000              @HCCINIT .section 'data'
 101  0000              #line 101 "C:\Users\houlinfeng\Desktop\TwoWireDevice_Hou\source\main.c"
 101  0000              public _MemData
 101  0000              @HCCINIT0_MemData .section 'data'
 101  0000  003B[       _MemData	db 59 dup(0)
            00
            ]
 101  003B              #pragma debug struct_end
 101  003B              #pragma debug struct_end
 101  003B              #pragma debug variable 45 1 _MemData "MemData"
 101  003B              
 101  0000              @HCCINIT .section 'data'
 100  0000              #line 100 "C:\Users\houlinfeng\Desktop\TwoWireDevice_Hou\source\main.c"
 100  0000              public _SysData
 100  0000              @HCCINIT0_SysData .section 'data'
 100  0000  0007[       _SysData	db 7 dup(0)
            00
            ]
 100  0007              #pragma debug struct_end
 100  0007              #pragma debug struct_end
 100  0007              #pragma debug variable 46 1 _SysData "SysData"
 100  0007              
 100  0000              @HCCINIT .section 'data'
 100  0000              #pragma debug struct_end
 100  0000              #pragma debug struct_end
 100  0000              #pragma debug union_end
 100  0000              #pragma debug union_end
 100  0000              #pragma debug variable 48 1 ___pa "__pa" 1
 100  0000              #pragma debug struct_end
 100  0000              #pragma debug struct_end
 100  0000              #pragma debug union_end
 100  0000              #pragma debug union_end
 100  0000              #pragma debug variable 50 1 ___pac "__pac" 1
 100  0000              #pragma debug struct_end
 100  0000              #pragma debug struct_end
 100  0000              #pragma debug union_end
 100  0000              #pragma debug union_end
 100  0000              #pragma debug variable 52 1 ___papu "__papu" 1
 100  0000              #pragma debug struct_end
 100  0000              #pragma debug struct_end
 100  0000              #pragma debug union_end
 100  0000              #pragma debug union_end
 100  0000              #pragma debug variable 54 1 ___pawu "__pawu" 1
 100  0000              #pragma debug struct_end
 100  0000              #pragma debug struct_end
 100  0000              #pragma debug union_end
 100  0000              #pragma debug union_end
 100  0000              #pragma debug variable 56 1 ___pb "__pb" 1
 100  0000              #pragma debug struct_end
 100  0000              #pragma debug struct_end
 100  0000              #pragma debug union_end
 100  0000              #pragma debug union_end
 100  0000              #pragma debug variable 58 1 ___pbc "__pbc" 1
 100  0000              #pragma debug struct_end
 100  0000              #pragma debug struct_end
 100  0000              #pragma debug union_end
 100  0000              #pragma debug union_end
 100  0000              #pragma debug variable 60 1 ___pbpu "__pbpu" 1
 100  0000              #pragma debug struct_end
 100  0000              #pragma debug struct_end
文件：main.c       编译器版本 HGASM 0202 页次8

 100  0000              #pragma debug union_end
 100  0000              #pragma debug union_end
 100  0000              #pragma debug variable 62 1 ___pc "__pc" 1
 100  0000              #pragma debug struct_end
 100  0000              #pragma debug struct_end
 100  0000              #pragma debug union_end
 100  0000              #pragma debug union_end
 100  0000              #pragma debug variable 64 1 ___pcc "__pcc" 1
 100  0000              #pragma debug struct_end
 100  0000              #pragma debug struct_end
 100  0000              #pragma debug union_end
 100  0000              #pragma debug union_end
 100  0000              #pragma debug variable 66 1 ___pcpu "__pcpu" 1
 100  0000              #pragma debug struct_end
 100  0000              #pragma debug struct_end
 100  0000              #pragma debug union_end
 100  0000              #pragma debug union_end
 100  0000              #pragma debug variable 68 1 ___sledc0 "__sledc0" 1
 100  0000              #pragma debug struct_end
 100  0000              #pragma debug struct_end
 100  0000              #pragma debug union_end
 100  0000              #pragma debug union_end
 100  0000              #pragma debug variable 70 1 ___sledc1 "__sledc1" 1
 100  0000              #pragma debug struct_end
 100  0000              #pragma debug struct_end
 100  0000              #pragma debug union_end
 100  0000              #pragma debug union_end
 100  0000              #pragma debug variable 72 1 ___wdtc "__wdtc" 1
 100  0000              #pragma debug struct_end
 100  0000              #pragma debug struct_end
 100  0000              #pragma debug union_end
 100  0000              #pragma debug union_end
 100  0000              #pragma debug variable 74 1 ___intc0 "__intc0" 1
 100  0000              #pragma debug struct_end
 100  0000              #pragma debug struct_end
 100  0000              #pragma debug union_end
 100  0000              #pragma debug union_end
 100  0000              #pragma debug variable 76 1 ___pas0 "__pas0" 1
 100  0000              #pragma debug struct_end
 100  0000              #pragma debug struct_end
 100  0000              #pragma debug union_end
 100  0000              #pragma debug union_end
 100  0000              #pragma debug variable 78 1 ___pas1 "__pas1" 1
 100  0000              #pragma debug struct_end
 100  0000              #pragma debug struct_end
 100  0000              #pragma debug union_end
 100  0000              #pragma debug union_end
 100  0000              #pragma debug variable 80 1 ___pbs0 "__pbs0" 1
 100  0000              #pragma debug struct_end
 100  0000              #pragma debug struct_end
 100  0000              #pragma debug union_end
 100  0000              #pragma debug union_end
 100  0000              #pragma debug variable 82 1 ___ifs "__ifs" 1
 109  0000              #line 109 "C:\Users\houlinfeng\Desktop\TwoWireDevice_Hou\source\main.c"
 109  0000              @code .section at 0 'code'
 109  0000  2800     R  	jmp _main_startup1
 109  0001              
 109  0001              extern _memset_2:byte
 109  0001              extern _memset:near
 109  0001              extern _MemoryInit:near
文件：main.c       编译器版本 HGASM 0202 页次9

 109  0001              extern _RefreshData:near
 109  0001              extern _SystemInit:near
 109  0001              extern _AVDevice:near
 109  0001              extern _AdjustBusVolt:near
 109  0001              extern _MinWorkLoopVolCheck:near
 109  0001              extern _LedCtrl:near
 109  0001              extern _MemoryWrite:near
 109  0001              extern _MemoryProcess:near
 109  0001              
 109  0001              ; 
 109  0001              ; Generated by holtek-gcc v3.19, Mon Nov 01 10:16:48 2021
 109  0001              ; Rebuild 718
 109  0001              ; end of file


        0 Errors, 0