文件：memory.c     编译器版本 HGASM 0202 页次1


   1  0000              ; Generated by holtek-gcc v3.19, Mon Nov 01 10:16:48 2021
   2  0000              ; 
   3  0000              ; Configuration:
   4  0000              ;       with long instruction
   5  0000              ;       Single ROM, Multi-RAM
   6  0000              ;       bits_per_rom_unit:16
   7  0000              ;       with mp1
   8  0000              ;       with tbhp, address(0x9)
   9  0000              ;          Use tabrd-const
  10  0000              ;       
  11  0000              ; SFR address of long-instruction arch:
  12  0000              ;    mp0 = -1,1,0
  13  0000              ;    mp1 = 4,3,2
  14  0000              ;    mp2 = 14,13,12
  15  0000              ;    tbp = 9,7,8
  16  0000              ;    acc = 5
  17  0000              ;    pcl = 6
  18  0000              ;    status = 10
  19  0000              ;    bp = 11
  20  0000              ;    intc = 72
  21  0000              ;       
  22  0000              ;       
  23  0000              ; use 'tabrdc' instead of 'tabrd'
  24  0000              ;       
  25  0000              
  26  0000              #pragma translator "holtek-gcc 4.6.4" "3.19" "build 20130711"
  27  0000              ; Rebuild 718
  28  0000              
  29  0000              ir equ [2]
  30  0000              mp equ [3]
  31  0000              sbp equ [4]
  32  0000              acc equ [5]
  33  0000              bp equ [11]
  34  0000              tblp equ [7]
  35  0000              tbhp equ [9]
  36  0000              status equ [10]
  37  0000              c equ [10].0
  38  0000              ac equ [10].1
  39  0000              z equ [10].2
  40  0000              ov equ [10].3
  41  0000              cz equ [10].6
  42  0000              sc equ [10].7
  43  0000              intc equ [72]
  44  0000              
  45  0000              extern ra:byte
  46  0000              extern rb:byte
  47  0000              extern rc:byte
  48  0000              extern rd:byte
  49  0000              extern re:byte
  50  0000              extern rf:byte
  51  0000              extern rg:byte
  52  0000              extern rh:byte
  53  0000              extern _Crom2Prom:near
  54  0000              extern _Crom2PromNext:near
  55  0000              
  56  0000              RAMBANK 0 @BITDATASEC, @BITDATASEC1
  57  0000              @HCCINIT	.section 'data'
  58  0000              @HCCINIT0	.section 'data'
  59  0000              @BITDATASEC	 .section 'data'
文件：memory.ASM   编译器版本 HGASM 0202 页次2

  60  0000              @BITDATASEC1	 .section 'data'
  61  0000              
  62  0000              #pragma debug scope 1 1
  63  0000              	extern __DELAY3:near
  64  0000              	extern __DELAYX3:near
  65  0000              	extern __DELAYX6:near
  66  0000              	extern __DELAYY5:near
  67  0000              	extern __DELAYY3:near
  68  0000              	extern _builtin_holtek_delay_2:byte
  69  0000              ___eea equ [62]
  70  0000              ___mp1l equ [3]
  71  0000              ___mp1h equ [4]
  72  0000              ___iar1 equ [2]
  73  0000              ___eed equ [63]
  74  0000              public _MemoryInit
  75  0000              #pragma debug scope 2 1

  17  0000              #line 17 "C:\Users\houlinfeng\Desktop\TwoWireDevice_Hou\source\memory.c"
  17  0000              _MemoryInit .section 'code'
  17  0000              _MemoryInit proc
  17  0000  0F30        	mov a,48
  17  0001  0080     E  	mov rb,a
  19  0002              #line 19 "C:\Users\houlinfeng\Desktop\TwoWireDevice_Hou\source\memory.c"
  19  0002  1F00     E  	clr ra
  19  0003              _L3:
  21  0003              #line 21 "C:\Users\houlinfeng\Desktop\TwoWireDevice_Hou\source\memory.c"
  21  0003  0700     E  	mov a,ra
  21  0004  00BE        	mov [62],a
  22  0005              #line 22 "C:\Users\houlinfeng\Desktop\TwoWireDevice_Hou\source\memory.c"
  22  0005  0F40        	mov a,64
  22  0006  0083        	mov [3],a
  23  0007              #line 23 "C:\Users\houlinfeng\Desktop\TwoWireDevice_Hou\source\memory.c"
  23  0007  0F01        	mov a,1
  23  0008  0084        	mov [4],a
  25  0009              #line 25 "C:\Users\houlinfeng\Desktop\TwoWireDevice_Hou\source\memory.c"
  25  0009              ;# 25 "C:\Users\houlinfeng\Desktop\TwoWireDevice_Hou\source\memory.c" 1
  25  0009              	IAR1 EQU [02H]
  26  0009              #line 26 "C:\Users\houlinfeng\Desktop\TwoWireDevice_Hou\source\memory.c"
  26  0009              ;# 26 "C:\Users\houlinfeng\Desktop\TwoWireDevice_Hou\source\memory.c" 1
  26  0009  3082        	SET IAR1.1 
  27  000A              #line 27 "C:\Users\houlinfeng\Desktop\TwoWireDevice_Hou\source\memory.c"
  27  000A              ;# 27 "C:\Users\houlinfeng\Desktop\TwoWireDevice_Hou\source\memory.c" 1
  27  000A  3002        	SET IAR1.0 
  28  000B              #line 28 "C:\Users\houlinfeng\Desktop\TwoWireDevice_Hou\source\memory.c"
  28  000B              ;# 28 "C:\Users\houlinfeng\Desktop\TwoWireDevice_Hou\source\memory.c" 1
  28  000B              	LDWAIT:
  29  000B              #line 29 "C:\Users\houlinfeng\Desktop\TwoWireDevice_Hou\source\memory.c"
  29  000B              ;# 29 "C:\Users\houlinfeng\Desktop\TwoWireDevice_Hou\source\memory.c" 1
  29  000B  3C02        	SZ  IAR1.0 
  30  000C              #line 30 "C:\Users\houlinfeng\Desktop\TwoWireDevice_Hou\source\memory.c"
  30  000C              ;# 30 "C:\Users\houlinfeng\Desktop\TwoWireDevice_Hou\source\memory.c" 1
  30  000C  2800     R  	JMP LDWAIT 
  32  000D              #line 32 "C:\Users\houlinfeng\Desktop\TwoWireDevice_Hou\source\memory.c"
  32  000D  1F02        	clr [2]
  33  000E              #line 33 "C:\Users\houlinfeng\Desktop\TwoWireDevice_Hou\source\memory.c"
  33  000E  1F04        	clr [4]
  35  000F              #line 35 "C:\Users\houlinfeng\Desktop\TwoWireDevice_Hou\source\memory.c"
  35  000F  0F00     E  	mov a,low (offset _MemData+4)
  35  0010  0300     E  	add a,ra
  35  0011  0083        	mov mp,a
文件：memory.c     编译器版本 HGASM 0202 页次3

  35  0012  0F00     E  	mov a,high (offset _MemData+4)
  35  0013  1F04        	clr sbp
  35  0014  1384        	adcm a,sbp
  35  0015  073F        	mov a,[63]
  35  0016  0082        	mov ir,a
  19  0017              #line 19 "C:\Users\houlinfeng\Desktop\TwoWireDevice_Hou\source\memory.c"
  19  0017  1480     E  	inc ra
  19  0018  1780     E  	sdz rb
  19  0019  2800     R  	jmp _L3
  19  001A  0003        	ret
  19  001B              _MemoryInit endp
  19  001B              #line 19 "C:\Users\houlinfeng\Desktop\TwoWireDevice_Hou\source\memory.c"
  19  001B              #pragma debug scope 1 1
  19  001B              public _MemoryRead
  19  001B              #pragma debug scope 3 1
  43  001B              #line 43 "C:\Users\houlinfeng\Desktop\TwoWireDevice_Hou\source\memory.c"
  43  0000              _MemoryRead .section 'code'
  43  0000              _MemoryRead proc
  43  0000  00              local _MemoryRead_2 db 1 dup(?)	; 0,1
  43  0000  0080     E  	mov ra,a
  43  0001  0080     R  	mov _MemoryRead_2[0],a
  43  0002              #pragma debug variable 8 3 _MemoryRead_2+0 "Index"
  46  0002              #line 46 "C:\Users\houlinfeng\Desktop\TwoWireDevice_Hou\source\memory.c"
  46  0002  0F2F        	mov a,47
  46  0003  0200     E  	sub a,ra
  46  0004  380A        	snz c
  46  0005  2800     R  	jmp _L13
  48  0006              #line 48 "C:\Users\houlinfeng\Desktop\TwoWireDevice_Hou\source\memory.c"
  48  0006  0700     E  	mov a,ra
  48  0007  0A00        	sub a,0
  48  0008  3D0A        	sz z
  48  0009  2800     R  	jmp _L8
  48  000A  0A05        	sub a,(5)-(0)
  48  000B  3D0A        	sz z
  48  000C  2800     R  	jmp _L9
  48  000D  0700     E  	mov a,ra
  48  000E  0A07        	sub a,7
  48  000F  3D0A        	sz z
  48  0010  2800     R  	jmp _L10
  48  0011  0A08        	sub a,(15)-(7)
  48  0012  3D0A        	sz z
  48  0013  2800     R  	jmp _L11
  48  0014  0700     E  	mov a,ra
  48  0015  0A10        	sub a,16
  48  0016  390A        	snz z
  48  0017  2800     R  	jmp _L15
  86  0018              #line 86 "C:\Users\houlinfeng\Desktop\TwoWireDevice_Hou\source\memory.c"
  86  0018  0F00     E  	mov a,low (offset _VerInfo+1)
  86  0019  0083        	mov mp,a
  86  001A  0F00     E  	mov a,high (offset _VerInfo+1)
  86  001B  0084        	mov sbp,a
  86  001C  2800     R  	jmp _L17
  86  001D              _L9:
  53  001D              #line 53 "C:\Users\houlinfeng\Desktop\TwoWireDevice_Hou\source\memory.c"
  53  001D  0700     E  	mov a,_MemData[9]
  53  001E  0080     E  	mov ra,a
  56  001F              #line 56 "C:\Users\houlinfeng\Desktop\TwoWireDevice_Hou\source\memory.c"
  56  001F  1700     E  	sdza _SysData[4]
  56  0020  2800     R  	jmp _L6
  58  0021              #line 58 "C:\Users\houlinfeng\Desktop\TwoWireDevice_Hou\source\memory.c"
文件：memory.c     编译器版本 HGASM 0202 页次4

  58  0021  0700     E  	mov a,_CommData[11]
  58  0022  0200     E  	sub a,_CommData[4]
  58  0023  390A        	snz z
  58  0024  2800     R  	jmp _L6
  60  0025              #line 60 "C:\Users\houlinfeng\Desktop\TwoWireDevice_Hou\source\memory.c"
  60  0025  0700     E  	mov a,_SysData[3]
  60  0026  0080     E  	mov ra,a
  60  0027  2800     R  	jmp _L6
  60  0028              _L8:
  71  0028              #line 71 "C:\Users\houlinfeng\Desktop\TwoWireDevice_Hou\source\memory.c"
  71  0028  0700     E  	mov a,_MemData[4]
  71  0029  0080     E  	mov ra,a
  73  002A              #line 73 "C:\Users\houlinfeng\Desktop\TwoWireDevice_Hou\source\memory.c"
  73  002A  1700     E  	sdza _SysData[4]
  73  002B  2800     R  	jmp _L6
  75  002C              #line 75 "C:\Users\houlinfeng\Desktop\TwoWireDevice_Hou\source\memory.c"
  75  002C  0700     E  	mov a,_CommData[4]
  75  002D  0080     E  	mov rb,a
  75  002E  0700     E  	mov a,_CommData[11]
  75  002F  0200     E  	sub a,rb
  75  0030  390A        	snz z
  75  0031  2800     R  	jmp _L6
  75  0032  0700     E  	mov a,rb
  75  0033  0080     E  	mov ra,a
  75  0034  2800     R  	jmp _L6
  75  0035              _L10:
  85  0035              #line 85 "C:\Users\houlinfeng\Desktop\TwoWireDevice_Hou\source\memory.c"
  85  0035  0F00     E  	mov a,low offset _VerInfo
  85  0036  0083        	mov mp,a
  85  0037  0F00     E  	mov a,high offset _VerInfo
  85  0038  0084        	mov sbp,a
  85  0039  2800     R  	jmp _L17
  85  003A              _L11:
  87  003A              #line 87 "C:\Users\houlinfeng\Desktop\TwoWireDevice_Hou\source\memory.c"
  87  003A  0F00     E  	mov a,low (offset _VerInfo+2)
  87  003B  0083        	mov mp,a
  87  003C  0F00     E  	mov a,high (offset _VerInfo+2)
  87  003D  0084        	mov sbp,a
  87  003E              _L17:
  86  003E              #line 86 "C:\Users\houlinfeng\Desktop\TwoWireDevice_Hou\source\memory.c"
  86  003E  2000     E  	call _Crom2Prom
  86  003F  0080     E  	mov ra,a
  86  0040  2800     R  	jmp _L6
  86  0041              _L15:
 101  0041              #line 101 "C:\Users\houlinfeng\Desktop\TwoWireDevice_Hou\source\memory.c"
 101  0041  0F00     E  	mov a,low (offset _MemData+4)
 101  0042  0300     R  	add a,_MemoryRead_2[0]
 101  0043  0083        	mov mp,a
 101  0044  0F00     E  	mov a,high (offset _MemData+4)
 101  0045  1F04        	clr sbp
 101  0046  1384        	adcm a,sbp
 101  0047  2800     R  	jmp _L17
 101  0048              _L13:
  45  0048              #line 45 "C:\Users\houlinfeng\Desktop\TwoWireDevice_Hou\source\memory.c"
  45  0048  1F00     E  	clr ra
  45  0049              _L6:
 107  0049              #line 107 "C:\Users\houlinfeng\Desktop\TwoWireDevice_Hou\source\memory.c"
 107  0049  0700     E  	mov a,ra
 107  004A  0003        	ret
 107  004B              _MemoryRead endp
文件：memory.c     编译器版本 HGASM 0202 页次5

 107  004B              #line 107 "C:\Users\houlinfeng\Desktop\TwoWireDevice_Hou\source\memory.c"
 107  004B              #pragma debug scope 1 1
 107  004B              public _MemoryWrite
 107  004B              #pragma debug scope 4 1
 112  004B              #line 112 "C:\Users\houlinfeng\Desktop\TwoWireDevice_Hou\source\memory.c"
 112  0000              _MemoryWrite .section 'code'
 112  0000              _MemoryWrite proc
 112  0000  00              local _MemoryWrite_2 db 1 dup(?)	; 0,1
 115  0001              #line 115 "C:\Users\houlinfeng\Desktop\TwoWireDevice_Hou\source\memory.c"
 115  0000  1080     E  	sz _MemData[0]
 115  0001  2800     R  	jmp _L21
 119  0002              #line 119 "C:\Users\houlinfeng\Desktop\TwoWireDevice_Hou\source\memory.c"
 119  0002  0700     E  	mov a,_MemData[55]
 119  0003  0080     E  	mov _MemData[2],a
 120  0004              #line 120 "C:\Users\houlinfeng\Desktop\TwoWireDevice_Hou\source\memory.c"
 120  0004  0700     E  	mov a,_MemData[52]
 120  0005  0080     E  	mov _MemData[1],a
 121  0006              #line 121 "C:\Users\houlinfeng\Desktop\TwoWireDevice_Hou\source\memory.c"
 121  0006  0F01        	mov a,1
 121  0007  0080     E  	mov _MemData[0],a
 124  0008              #line 124 "C:\Users\houlinfeng\Desktop\TwoWireDevice_Hou\source\memory.c"
 124  0008  0700     E  	mov a,_MemData[58]
 124  0009  0080     R  	mov _MemoryWrite_2[0],a
 124  000A  0F01        	mov a,1
 124  000B  0200     R  	sub a,_MemoryWrite_2[0]
 124  000C  3C0A        	sz c
 124  000D  2800     R  	jmp _L20
 126  000E              #line 126 "C:\Users\houlinfeng\Desktop\TwoWireDevice_Hou\source\memory.c"
 126  000E  0700     E  	mov a,_MemData[53]
 126  000F  0080     E  	mov _MemData[52],a
 127  0010              #line 127 "C:\Users\houlinfeng\Desktop\TwoWireDevice_Hou\source\memory.c"
 127  0010  0700     E  	mov a,_MemData[56]
 127  0011  0080     E  	mov _MemData[55],a
 124  0012              #line 124 "C:\Users\houlinfeng\Desktop\TwoWireDevice_Hou\source\memory.c"
 124  0012  0F02        	mov a,2
 124  0013  0200     R  	sub a,_MemoryWrite_2[0]
 124  0014  3C0A        	sz c
 124  0015  2800     R  	jmp _L20
 126  0016              #line 126 "C:\Users\houlinfeng\Desktop\TwoWireDevice_Hou\source\memory.c"
 126  0016  0700     E  	mov a,_MemData[54]
 126  0017  0080     E  	mov _MemData[53],a
 127  0018              #line 127 "C:\Users\houlinfeng\Desktop\TwoWireDevice_Hou\source\memory.c"
 127  0018  0700     E  	mov a,_MemData[57]
 127  0019  0080     E  	mov _MemData[56],a
 127  001A              _L20:
 131  001A              #line 131 "C:\Users\houlinfeng\Desktop\TwoWireDevice_Hou\source\memory.c"
 131  001A  1E00     R  	snz _MemoryWrite_2[0]
 131  001B  2800     R  	jmp _L22
 132  001C              #line 132 "C:\Users\houlinfeng\Desktop\TwoWireDevice_Hou\source\memory.c"
 132  001C  1500     R  	deca _MemoryWrite_2[0]
 132  001D  0080     E  	mov _MemData[58],a
 132  001E  2800     R  	jmp _L22
 132  001F              _L21:
 116  001F              #line 116 "C:\Users\houlinfeng\Desktop\TwoWireDevice_Hou\source\memory.c"
 116  001F  0F01        	mov a,1
 116  0020  0080     E  	mov ra,a
 116  0021  2800     R  	jmp _L19
 116  0022              _L22:
 134  0022              #line 134 "C:\Users\houlinfeng\Desktop\TwoWireDevice_Hou\source\memory.c"
 134  0022  1F00     E  	clr ra
文件：memory.c     编译器版本 HGASM 0202 页次6

 134  0023              _L19:
 135  0023              #line 135 "C:\Users\houlinfeng\Desktop\TwoWireDevice_Hou\source\memory.c"
 135  0023  0700     E  	mov a,ra
 135  0024  0003        	ret
 135  0025              _MemoryWrite endp
 135  0025              #line 135 "C:\Users\houlinfeng\Desktop\TwoWireDevice_Hou\source\memory.c"
 135  0025              #pragma debug scope 1 1
 135  0025              public _PutDataToWriteEEBuff
 135  0025              #pragma debug scope 5 1
 141  0025              #line 141 "C:\Users\houlinfeng\Desktop\TwoWireDevice_Hou\source\memory.c"
 141  0000              _PutDataToWriteEEBuff .section 'code'
 141  0000              _PutDataToWriteEEBuff proc
 141  0000              public _PutDataToWriteEEBuff_2
 141  0000  0002[           local _PutDataToWriteEEBuff_2 db 2 dup(?)	; 1,1
            00
            ]
 141  0000  0080     E  	mov ra,a
 141  0001  0080     R  	mov _PutDataToWriteEEBuff_2[1],a
 141  0002              #pragma debug variable 8 5 _PutDataToWriteEEBuff_2+1 "Index"
 141  0002              #pragma debug variable 8 5 _PutDataToWriteEEBuff_2+0 "Data"
 143  0002              #line 143 "C:\Users\houlinfeng\Desktop\TwoWireDevice_Hou\source\memory.c"
 143  0002  0F2F        	mov a,47
 143  0003  0200     E  	sub a,ra
 143  0004  380A        	snz c
 143  0005  2800     R  	jmp _L23
 148  0006              #line 148 "C:\Users\houlinfeng\Desktop\TwoWireDevice_Hou\source\memory.c"
 148  0006  0700     E  	mov a,_MemData[58]
 148  0007  0080     E  	mov ra,a
 148  0008  0F02        	mov a,2
 148  0009  0200     E  	sub a,ra
 148  000A  380A        	snz c
 148  000B  2800     R  	jmp _L23
 150  000C              #line 150 "C:\Users\houlinfeng\Desktop\TwoWireDevice_Hou\source\memory.c"
 150  000C  0700     E  	mov a,ra
 150  000D  0080     E  	mov rb,a
 150  000E  1F00     E  	clr rc
 150  000F  0F00     E  	mov a,low (offset _MemData+52)
 150  0010  0300     E  	add a,rb
 150  0011  0083        	mov mp,a
 150  0012  0F00     E  	mov a,high (offset _MemData+52)
 150  0013  1300     E  	adc a,rc
 150  0014  0084        	mov sbp,a
 150  0015  0700     R  	mov a,_PutDataToWriteEEBuff_2[1]
 150  0016  0082        	mov ir,a
 151  0017              #line 151 "C:\Users\houlinfeng\Desktop\TwoWireDevice_Hou\source\memory.c"
 151  0017  0F00     E  	mov a,low (offset _MemData+55)
 151  0018  0300     E  	add a,rb
 151  0019  0083        	mov mp,a
 151  001A  0F00     E  	mov a,high (offset _MemData+55)
 151  001B  1300     E  	adc a,rc
 151  001C  0084        	mov sbp,a
 151  001D  0700     R  	mov a,_PutDataToWriteEEBuff_2[0]
 151  001E  0082        	mov ir,a
 152  001F              #line 152 "C:\Users\houlinfeng\Desktop\TwoWireDevice_Hou\source\memory.c"
 152  001F  1400     E  	inca ra
 152  0020  0080     E  	mov _MemData[58],a
 152  0021              _L23:
 152  0021  0003        	ret
 152  0022              _PutDataToWriteEEBuff endp
 152  0022              #line 152 "C:\Users\houlinfeng\Desktop\TwoWireDevice_Hou\source\memory.c"
文件：memory.c     编译器版本 HGASM 0202 页次7

 152  0022              #pragma debug scope 1 1
 152  0022              public _MemoryProcess
 152  0022              #pragma debug scope 6 1
 160  0022              #line 160 "C:\Users\houlinfeng\Desktop\TwoWireDevice_Hou\source\memory.c"
 160  0000              _MemoryProcess .section 'code'
 160  0000              _MemoryProcess proc
 160  0000  00              local _MemoryProcess_2 db 1 dup(?)	; 0,1
 162  0001              #line 162 "C:\Users\houlinfeng\Desktop\TwoWireDevice_Hou\source\memory.c"
 162  0000  0700     E  	mov a,_MemData[0]
 162  0001  0080     R  	mov _MemoryProcess_2[0],a
 162  0002  1080     R  	sz _MemoryProcess_2[0]
 162  0003  2800     R  	jmp _L26
 164  0004              #line 164 "C:\Users\houlinfeng\Desktop\TwoWireDevice_Hou\source\memory.c"
 164  0004  3400     E  	clr _SysData[0].3
 165  0005              #line 165 "C:\Users\houlinfeng\Desktop\TwoWireDevice_Hou\source\memory.c"
 165  0005  2800     R  	jmp _L25
 165  0006              _L26:
 169  0006              #line 169 "C:\Users\houlinfeng\Desktop\TwoWireDevice_Hou\source\memory.c"
 169  0006  3000     E  	set _SysData[0].3
 172  0007              #line 172 "C:\Users\houlinfeng\Desktop\TwoWireDevice_Hou\source\memory.c"
 172  0007  1080     E  	sz _CommData[0]
 172  0008  2800     R  	jmp _L25
 177  0009              #line 177 "C:\Users\houlinfeng\Desktop\TwoWireDevice_Hou\source\memory.c"
 177  0009  0700     R  	mov a,_MemoryProcess_2[0]
 177  000A  0A01        	sub a,1
 177  000B  3D0A        	sz z
 177  000C  2800     R  	jmp _L29
 177  000D  0A01        	sub a,(2)-(1)
 177  000E  3D0A        	sz z
 177  000F  2800     R  	jmp _L29
 177  0010  0700     R  	mov a,_MemoryProcess_2[0]
 177  0011  0A03        	sub a,3
 177  0012  390A        	snz z
 177  0013  2800     R  	jmp _L41
 232  0014              #line 232 "C:\Users\houlinfeng\Desktop\TwoWireDevice_Hou\source\memory.c"
 232  0014  0700     E  	mov a,_MemData[1]
 232  0015  0080     E  	mov ra,a
 232  0016  0700     E  	mov a,ra
 232  0017  00BE        	mov [62],a
 233  0018              #line 233 "C:\Users\houlinfeng\Desktop\TwoWireDevice_Hou\source\memory.c"
 233  0018  0700     E  	mov a,_MemData[2]
 233  0019  00BF        	mov [63],a
 235  001A              #line 235 "C:\Users\houlinfeng\Desktop\TwoWireDevice_Hou\source\memory.c"
 235  001A  0F40        	mov a,64
 235  001B  0083        	mov [3],a
 236  001C              #line 236 "C:\Users\houlinfeng\Desktop\TwoWireDevice_Hou\source\memory.c"
 236  001C  0F01        	mov a,1
 236  001D  0084        	mov [4],a
 238  001E              #line 238 "C:\Users\houlinfeng\Desktop\TwoWireDevice_Hou\source\memory.c"
 238  001E              ;# 238 "C:\Users\houlinfeng\Desktop\TwoWireDevice_Hou\source\memory.c" 1
 238  001E              	WR:
 239  001E              #line 239 "C:\Users\houlinfeng\Desktop\TwoWireDevice_Hou\source\memory.c"
 239  001E              ;# 239 "C:\Users\houlinfeng\Desktop\TwoWireDevice_Hou\source\memory.c" 1
 239  001E  3182        	SET IAR1.3 
 240  001F              #line 240 "C:\Users\houlinfeng\Desktop\TwoWireDevice_Hou\source\memory.c"
 240  001F              ;# 240 "C:\Users\houlinfeng\Desktop\TwoWireDevice_Hou\source\memory.c" 1
 240  001F  3102        	SET IAR1.2 
 241  0020              #line 241 "C:\Users\houlinfeng\Desktop\TwoWireDevice_Hou\source\memory.c"
 241  0020              ;# 241 "C:\Users\houlinfeng\Desktop\TwoWireDevice_Hou\source\memory.c" 1
 241  0020              	WRWAIT:
文件：memory.c     编译器版本 HGASM 0202 页次8

 242  0020              #line 242 "C:\Users\houlinfeng\Desktop\TwoWireDevice_Hou\source\memory.c"
 242  0020              ;# 242 "C:\Users\houlinfeng\Desktop\TwoWireDevice_Hou\source\memory.c" 1
 242  0020  3D02        	SZ  IAR1.2 
 243  0021              #line 243 "C:\Users\houlinfeng\Desktop\TwoWireDevice_Hou\source\memory.c"
 243  0021              ;# 243 "C:\Users\houlinfeng\Desktop\TwoWireDevice_Hou\source\memory.c" 1
 243  0021  2800     R  	JMP WRWAIT
 244  0022              #line 244 "C:\Users\houlinfeng\Desktop\TwoWireDevice_Hou\source\memory.c"
 244  0022              ;# 244 "C:\Users\houlinfeng\Desktop\TwoWireDevice_Hou\source\memory.c" 1
 244  0022  3582        	CLR IAR1.3 
 245  0023              #line 245 "C:\Users\houlinfeng\Desktop\TwoWireDevice_Hou\source\memory.c"
 245  0023              ;# 245 "C:\Users\houlinfeng\Desktop\TwoWireDevice_Hou\source\memory.c" 1
 245  0023              	RD:
 246  0023              #line 246 "C:\Users\houlinfeng\Desktop\TwoWireDevice_Hou\source\memory.c"
 246  0023              ;# 246 "C:\Users\houlinfeng\Desktop\TwoWireDevice_Hou\source\memory.c" 1
 246  0023  3082        	SET IAR1.1 
 247  0024              #line 247 "C:\Users\houlinfeng\Desktop\TwoWireDevice_Hou\source\memory.c"
 247  0024              ;# 247 "C:\Users\houlinfeng\Desktop\TwoWireDevice_Hou\source\memory.c" 1
 247  0024  3002        	SET IAR1.0 
 248  0025              #line 248 "C:\Users\houlinfeng\Desktop\TwoWireDevice_Hou\source\memory.c"
 248  0025              ;# 248 "C:\Users\houlinfeng\Desktop\TwoWireDevice_Hou\source\memory.c" 1
 248  0025              	RDWAIT:
 249  0025              #line 249 "C:\Users\houlinfeng\Desktop\TwoWireDevice_Hou\source\memory.c"
 249  0025              ;# 249 "C:\Users\houlinfeng\Desktop\TwoWireDevice_Hou\source\memory.c" 1
 249  0025  3C02        	SZ  IAR1.0 
 250  0026              #line 250 "C:\Users\houlinfeng\Desktop\TwoWireDevice_Hou\source\memory.c"
 250  0026              ;# 250 "C:\Users\houlinfeng\Desktop\TwoWireDevice_Hou\source\memory.c" 1
 250  0026  2800     R  	JMP RDWAIT
 252  0027              #line 252 "C:\Users\houlinfeng\Desktop\TwoWireDevice_Hou\source\memory.c"
 252  0027  1F02        	clr [2]
 253  0028              #line 253 "C:\Users\houlinfeng\Desktop\TwoWireDevice_Hou\source\memory.c"
 253  0028  1F04        	clr [4]
 255  0029              #line 255 "C:\Users\houlinfeng\Desktop\TwoWireDevice_Hou\source\memory.c"
 255  0029  1F00     E  	clr _MemData[0]
 256  002A              #line 256 "C:\Users\houlinfeng\Desktop\TwoWireDevice_Hou\source\memory.c"
 256  002A  0F00     E  	mov a,low (offset _MemData+4)
 256  002B  0300     E  	add a,ra
 256  002C  0083        	mov mp,a
 256  002D  0F00     E  	mov a,high (offset _MemData+4)
 256  002E  1F04        	clr sbp
 256  002F  1384        	adcm a,sbp
 256  0030  073F        	mov a,[63]
 256  0031  0082        	mov ir,a
 258  0032              #line 258 "C:\Users\houlinfeng\Desktop\TwoWireDevice_Hou\source\memory.c"
 258  0032  2800     R  	jmp _L25
 258  0033              _L29:
 186  0033              #line 186 "C:\Users\houlinfeng\Desktop\TwoWireDevice_Hou\source\memory.c"
 186  0033  0700     E  	mov a,_MemData[1]
 186  0034  0080     E  	mov ra,a
 187  0035              #line 187 "C:\Users\houlinfeng\Desktop\TwoWireDevice_Hou\source\memory.c"
 187  0035  0700     E  	mov a,ra
 187  0036  0BFC        	add a,252
 187  0037  0080     E  	mov rb,a
 186  0038              #line 186 "C:\Users\houlinfeng\Desktop\TwoWireDevice_Hou\source\memory.c"
 186  0038  0F3A        	mov a,58
 186  0039  0200     E  	sub a,rb
 186  003A  380A        	snz c
 186  003B  2800     R  	jmp _L31
 190  003C              #line 190 "C:\Users\houlinfeng\Desktop\TwoWireDevice_Hou\source\memory.c"
 190  003C  1600     E  	siza _MemData[8]
 190  003D  2800     R  	jmp _LI1
文件：memory.c     编译器版本 HGASM 0202 页次9

 190  003E  2800     R  	jmp _L31
 190  003F              _LI1:
 190  003F  0700     R  	mov a,_MemoryProcess_2[0]
 190  0040  0A02        	sub a,2
 190  0041  390A        	snz z
 190  0042  2800     R  	jmp _L32
 190  0043              _L31:
 193  0043              #line 193 "C:\Users\houlinfeng\Desktop\TwoWireDevice_Hou\source\memory.c"
 193  0043  1F00     E  	clr _MemData[3]
 193  0044  2800     R  	jmp _L42
 193  0045              _L32:
 197  0045              #line 197 "C:\Users\houlinfeng\Desktop\TwoWireDevice_Hou\source\memory.c"
 197  0045  0700     E  	mov a,ra
 197  0046  0A04        	sub a,4
 197  0047  390A        	snz z
 197  0048  2800     R  	jmp _L33
 199  0049              #line 199 "C:\Users\houlinfeng\Desktop\TwoWireDevice_Hou\source\memory.c"
 199  0049  0700     E  	mov a,_MemData[3]
 199  004A  0A55        	sub a,85
 199  004B  390A        	snz z
 199  004C  2800     R  	jmp _L34
 199  004D  0700     E  	mov a,_MemData[2]
 199  004E  0A3A        	sub a,58
 199  004F  390A        	snz z
 199  0050  2800     R  	jmp _L34
 202  0051              #line 202 "C:\Users\houlinfeng\Desktop\TwoWireDevice_Hou\source\memory.c"
 202  0051  1F00     E  	clr _MemData[3]
 203  0052              #line 203 "C:\Users\houlinfeng\Desktop\TwoWireDevice_Hou\source\memory.c"
 203  0052  1F80     E  	set _MemData[2]
 203  0053              _L42:
 204  0053              #line 204 "C:\Users\houlinfeng\Desktop\TwoWireDevice_Hou\source\memory.c"
 204  0053  0F03        	mov a,3
 204  0054  0080     E  	mov _MemData[0],a
 204  0055  2800     R  	jmp _L25
 204  0056              _L34:
 208  0056              #line 208 "C:\Users\houlinfeng\Desktop\TwoWireDevice_Hou\source\memory.c"
 208  0056  0700     E  	mov a,_MemData[2]
 208  0057  0080     E  	mov _MemData[3],a
 208  0058  2800     R  	jmp _L43
 208  0059              _L33:
 216  0059              #line 216 "C:\Users\houlinfeng\Desktop\TwoWireDevice_Hou\source\memory.c"
 216  0059  1F00     E  	clr _MemData[3]
 216  005A              _L43:
 217  005A              #line 217 "C:\Users\houlinfeng\Desktop\TwoWireDevice_Hou\source\memory.c"
 217  005A  1F00     E  	clr _MemData[1]
 218  005B              #line 218 "C:\Users\houlinfeng\Desktop\TwoWireDevice_Hou\source\memory.c"
 218  005B  1F00     E  	clr _MemData[2]
 218  005C              _L41:
 259  005C              #line 259 "C:\Users\houlinfeng\Desktop\TwoWireDevice_Hou\source\memory.c"
 259  005C  1F00     E  	clr _MemData[0]
 259  005D              _L25:
 259  005D  0003        	ret
 259  005E              _MemoryProcess endp
 259  005E              #line 259 "C:\Users\houlinfeng\Desktop\TwoWireDevice_Hou\source\memory.c"
 259  005E              #pragma debug scope 1 1
 259  005E              #pragma debug variable 8 1 ___mp1l "__mp1l" 1
 259  005E              #pragma debug variable 8 1 ___mp1h "__mp1h" 1
 259  005E              #pragma debug struct_end
 259  005E              #pragma debug struct_end
 259  005E              #pragma debug union_end
文件：memory.c     编译器版本 HGASM 0202 页次10

 259  005E              #pragma debug union_end
 259  005E              #pragma debug variable 43 1 ___eea "__eea" 1
 259  005E              #pragma debug struct_end
 259  005E              #pragma debug struct_end
 259  005E              #pragma debug union_end
 259  005E              #pragma debug union_end
 259  005E              #pragma debug variable 45 1 ___eed "__eed" 1
 259  005E              #pragma debug variable 8 1 ___iar1 "__iar1" 1
 259  005E              
 259  005E              ; output external variables
 259  005E              extern _CommData:byte
 259  005E              extern _SysData:byte
 259  005E              extern _VerInfo:near
 259  005E              extern _MemData:byte
 259  005E              
 259  005E              ; 
 259  005E              ; Generated by holtek-gcc v3.19, Mon Nov 01 10:16:48 2021
 259  005E              ; Rebuild 718
 259  005E              ; end of file


        0 Errors, 0