"File: config.c      Assembler  Version HGASM0202      Page 1


   1  0000              ; Generated by holtek-gcc v3.19, Mon Oct 10 15:45:31 2022
   2  0000              ; 
   3  0000              ; Configuration:
   4  0000              ;       with long instruction
   5  0000              ;       Single ROM, Multi-RAM
   6  0000              ;       bits_per_rom_unit:16
   7  0000              ;       with mp1
   8  0000              ;       with tbhp, address(0x9)
   9  0000              ;          Use tabrd-const
  10  0000              ;       
  11  0000              ; SFR address of long-instruction arch:
  12  0000              ;    mp0 = -1,1,0
  13  0000              ;    mp1 = 4,3,2
  14  0000              ;    mp2 = 14,13,12
  15  0000              ;    tbp = 9,7,8
  16  0000              ;    acc = 5
  17  0000              ;    pcl = 6
  18  0000              ;    status = 10
  19  0000              ;    bp = 11
  20  0000              ;    intc = 72
  21  0000              ;       
  22  0000              ;       
  23  0000              ; use 'tabrdc' instead of 'tabrd'
  24  0000              ;       
  25  0000              
  26  0000              #pragma translator "holtek-gcc 4.6.4" "3.19" "build 20130711"
  27  0000              ; Rebuild 718
  28  0000              
  29  0000              ir equ [2]
  30  0000              mp equ [3]
  31  0000              sbp equ [4]
  32  0000              acc equ [5]
  33  0000              bp equ [11]
  34  0000              tblp equ [7]
  35  0000              tbhp equ [9]
  36  0000              status equ [10]
  37  0000              c equ [10].0
  38  0000              ac equ [10].1
  39  0000              z equ [10].2
  40  0000              ov equ [10].3
  41  0000              cz equ [10].6
  42  0000              sc equ [10].7
  43  0000              intc equ [72]
  44  0000              
  45  0000              extern ra:byte
  46  0000              extern rb:byte
  47  0000              extern rc:byte
  48  0000              extern rd:byte
  49  0000              extern re:byte
  50  0000              extern rf:byte
  51  0000              extern rg:byte
  52  0000              extern rh:byte
  53  0000              extern _Crom2Prom:near
  54  0000              extern _Crom2PromNext:near
  55  0000              
  56  0000              RAMBANK 0 @BITDATASEC, @BITDATASEC1
  57  0000              @HCCINIT	.section 'data'
  58  0000              @HCCINIT0	.section 'data'
  59  0000              @BITDATASEC	 .section 'data'
"File: config.ASM    Assembler  Version HGASM0202      Page 2

  60  0000              @BITDATASEC1	 .section 'data'
  61  0000              
  62  0000              #pragma debug scope 1 1
  63  0000              	extern __DELAY3:near
  64  0000              	extern __DELAYX3:near
  65  0000              	extern __DELAYX6:near
  66  0000              	extern __DELAYY5:near
  67  0000              	extern __DELAYY3:near
  68  0000              	extern _builtin_holtek_delay_2:byte
  69  0000              ___sda0c equ [35]
  70  0000              ___sda1c equ [37]
  71  0000              ___sdsw equ [32]
  72  0000              ___sdpgac0 equ [33]
  73  0000              ___sdpgac1 equ [34]
  74  0000              public _AfeInit
  75  0000              #pragma debug scope 2 1

 195  0000              #line 195 "c:\users\h469388\desktop\todo\projects\1_ngb\1_firmware\ngb_low_power_consumption_v3\source\config.c"
 195  0000              _AfeInit .section 'code'
 195  0000              _AfeInit proc
 195  0000              public _AfeInit_2
 195  0000  0004[           local _AfeInit_2 db 4 dup(?)	; 3,1
            00
            ]
 195  0000  0080     R  	mov _AfeInit_2[3],a
 195  0001              #pragma debug variable 8 2 _AfeInit_2+3 "ucR1Set"
 195  0001              #pragma debug variable 8 2 _AfeInit_2+0 "ucR3Set"
 195  0001              #pragma debug variable 8 2 _AfeInit_2+1 "ucR2Set"
 195  0001              #pragma debug variable 8 2 _AfeInit_2+2 "ucFlagInitOrChangAmp"
 197  0001              #line 197 "c:\users\h469388\desktop\todo\projects\1_ngb\1_firmware\ngb_low_power_consumption_v3\source\config.c"
 197  0001  1080     R  	sz _AfeInit_2[2]
 197  0002  2800     R  	jmp _L2
 200  0003              #line 200 "c:\users\h469388\desktop\todo\projects\1_ngb\1_firmware\ngb_low_power_consumption_v3\source\config.c"
 200  0003  0F03        	mov a,3
 200  0004  00A3        	mov [35],a
 201  0005              #line 201 "c:\users\h469388\desktop\todo\projects\1_ngb\1_firmware\ngb_low_power_consumption_v3\source\config.c"
 201  0005  0F03        	mov a,3
 201  0006  00A5        	mov [37],a
 201  0007              _L2:
 218  0007              #line 218 "c:\users\h469388\desktop\todo\projects\1_ngb\1_firmware\ngb_low_power_consumption_v3\source\config.c"
 218  0007  0F77        	mov a,119
 218  0008  00A0        	mov [32],a
 221  0009              #line 221 "c:\users\h469388\desktop\todo\projects\1_ngb\1_firmware\ngb_low_power_consumption_v3\source\config.c"
 221  0009  0700     R  	mov a,_AfeInit_2[3]
 221  000A  00A1        	mov [33],a
 222  000B              #line 222 "c:\users\h469388\desktop\todo\projects\1_ngb\1_firmware\ngb_low_power_consumption_v3\source\config.c"
 222  000B  0700     R  	mov a,_AfeInit_2[0]
 222  000C  0080     E  	mov ra,a
 222  000D  1900     E  	rra ra
 222  000E  1985        	rr acc
 222  000F  0EC0        	and a,0c0h
 222  0010  0080     E  	mov ra,a
 222  0011  0700     E  	mov a,ra
 222  0012  0500     R  	or a,_AfeInit_2[1]
 222  0013  00A2        	mov [34],a
 222  0014  0003        	ret
 222  0015              _AfeInit endp
 222  0015              #line 222 "c:\users\h469388\desktop\todo\projects\1_ngb\1_firmware\ngb_low_power_consumption_v3\source\config.c"
 222  0015              #pragma debug scope 1 1
 222  0015              ___pbs0 equ [78]
"File: config.c      Assembler  Version HGASM0202      Page 3

 222  0015              ___pltsw equ [49]
 222  0015              ___pltda0l equ [51]
 222  0015              ___pltda1l equ [52]
 222  0015              ___pltda2l equ [53]
 222  0015              ___pltdacc equ [50]
 222  0015              ___pltc0c equ [54]
 222  0015              ___pltc1c equ [56]
 222  0015              ___pltchyc equ [58]
 222  0015              ___pltac equ [59]
 222  0015              public _PltInit
 222  0015              #pragma debug scope 3 1
 231  0015              #line 231 "c:\users\h469388\desktop\todo\projects\1_ngb\1_firmware\ngb_low_power_consumption_v3\source\config.c"
 231  0000              _PltInit .section 'code'
 231  0000              _PltInit proc
 231  0000  00              local _PltInit_2 db 1 dup(?)	; 0,1
 231  0000  0080     R  	mov _PltInit_2[0],a
 231  0001              #pragma debug variable 8 3 _PltInit_2+0 "ucDacCode"
 233  0001              #line 233 "c:\users\h469388\desktop\todo\projects\1_ngb\1_firmware\ngb_low_power_consumption_v3\source\config.c"
 233  0001  0F03        	mov a,3
 233  0002  06CE        	andm a,[78]
 234  0003              #line 234 "c:\users\h469388\desktop\todo\projects\1_ngb\1_firmware\ngb_low_power_consumption_v3\source\config.c"
 234  0003  0F54        	mov a,84
 234  0004  05CE        	orm a,[78]
 235  0005              #line 235 "c:\users\h469388\desktop\todo\projects\1_ngb\1_firmware\ngb_low_power_consumption_v3\source\config.c"
 235  0005  1F31        	clr [49]
 240  0006              #line 240 "c:\users\h469388\desktop\todo\projects\1_ngb\1_firmware\ngb_low_power_consumption_v3\source\config.c"
 240  0006  0700     R  	mov a,_PltInit_2[0]
 240  0007  00B3        	mov [51],a
 251  0008              #line 251 "c:\users\h469388\desktop\todo\projects\1_ngb\1_firmware\ngb_low_power_consumption_v3\source\config.c"
 251  0008  0F03        	mov a,3
 251  0009  00B4        	mov [52],a
 252  000A              #line 252 "c:\users\h469388\desktop\todo\projects\1_ngb\1_firmware\ngb_low_power_consumption_v3\source\config.c"
 252  000A  1F35        	clr [53]
 262  000B              #line 262 "c:\users\h469388\desktop\todo\projects\1_ngb\1_firmware\ngb_low_power_consumption_v3\source\config.c"
 262  000B  0F03        	mov a,3
 262  000C  00B2        	mov [50],a
 268  000D              #line 268 "c:\users\h469388\desktop\todo\projects\1_ngb\1_firmware\ngb_low_power_consumption_v3\source\config.c"
 268  000D  0F45        	mov a,69
 268  000E  00B6        	mov [54],a
 273  000F              #line 273 "c:\users\h469388\desktop\todo\projects\1_ngb\1_firmware\ngb_low_power_consumption_v3\source\config.c"
 273  000F  0F45        	mov a,69
 273  0010  00B8        	mov [56],a
 275  0011              #line 275 "c:\users\h469388\desktop\todo\projects\1_ngb\1_firmware\ngb_low_power_consumption_v3\source\config.c"
 275  0011  0F15        	mov a,21
 275  0012  00BA        	mov [58],a
 280  0013              #line 280 "c:\users\h469388\desktop\todo\projects\1_ngb\1_firmware\ngb_low_power_consumption_v3\source\config.c"
 280  0013  0F01        	mov a,1
 280  0014  00BB        	mov [59],a
 282  0015              #line 282 "c:\users\h469388\desktop\todo\projects\1_ngb\1_firmware\ngb_low_power_consumption_v3\source\config.c"
 282  0015  3336        	set [54].6
 283  0016              #line 283 "c:\users\h469388\desktop\todo\projects\1_ngb\1_firmware\ngb_low_power_consumption_v3\source\config.c"
 283  0016  3338        	set [56].6
 287  0017              #line 287 "c:\users\h469388\desktop\todo\projects\1_ngb\1_firmware\ngb_low_power_consumption_v3\source\config.c"
 287  0017  363A        	clr [58].4
 288  0018              #line 288 "c:\users\h469388\desktop\todo\projects\1_ngb\1_firmware\ngb_low_power_consumption_v3\source\config.c"
 288  0018  36BA        	clr [58].5
 288  0019  0003        	ret
 288  001A              _PltInit endp
 288  001A              #line 288 "c:\users\h469388\desktop\todo\projects\1_ngb\1_firmware\ngb_low_power_consumption_v3\source\config.c"
 288  001A              #pragma debug scope 1 1
"File: config.c      Assembler  Version HGASM0202      Page 4

 288  001A              ___pltc0vos equ [55]
 288  001A              ___pltc1vos equ [57]
 288  001A              public _PltCaliCmp
 288  001A              #pragma debug scope 4 1
 358  001A              #line 358 "c:\users\h469388\desktop\todo\projects\1_ngb\1_firmware\ngb_low_power_consumption_v3\source\config.c"
 358  0000              _PltCaliCmp .section 'code'
 358  0000              _PltCaliCmp proc
 363  0000              #line 363 "c:\users\h469388\desktop\todo\projects\1_ngb\1_firmware\ngb_low_power_consumption_v3\source\config.c"
 363  0000  0F60        	mov a,96
 363  0001  00B7        	mov [55],a
 364  0002              #line 364 "c:\users\h469388\desktop\todo\projects\1_ngb\1_firmware\ngb_low_power_consumption_v3\source\config.c"
 364  0002              ;# 364 "c:\users\h469388\desktop\todo\projects\1_ngb\1_firmware\ngb_low_power_consumption_v3\source\config.c" 1
 364  0002              	IF 50>263690
 364  0002              ;# 364 "c:\users\h469388\desktop\todo\projects\1_ngb\1_firmware\ngb_low_power_consumption_v3\source\config.c" 1
 364  0002              	ERRMESSAGE 'the value 50of the argument exceeds the maxinum 263690'
 364  0002              	ENDIF
 364  0002              ;# 364 "c:\users\h469388\desktop\todo\projects\1_ngb\1_firmware\ngb_low_power_consumption_v3\source\config.c" 1
 364  0002              	IF 50<0
 364  0002              ;# 364 "c:\users\h469388\desktop\todo\projects\1_ngb\1_firmware\ngb_low_power_consumption_v3\source\config.c" 1
 364  0002              	ERRMESSAGE 'the value 50 of the argument exceeds the mininum 0'
 364  0002              	ENDIF
 364  0002              ;# 364 "c:\users\h469388\desktop\todo\projects\1_ngb\1_firmware\ngb_low_power_consumption_v3\source\config.c" 1
 364  0002              	IF 50==0
 364  0002              ;# 364 "c:\users\h469388\desktop\todo\projects\1_ngb\1_firmware\ngb_low_power_consumption_v3\source\config.c" 1
 364  0002              	JMP $
 364  0002              	ENDIF
 364  0002              ;# 364 "c:\users\h469388\desktop\todo\projects\1_ngb\1_firmware\ngb_low_power_consumption_v3\source\config.c" 1
 364  0002              	IF 50==1
 364  0002              ;# 364 "c:\users\h469388\desktop\todo\projects\1_ngb\1_firmware\ngb_low_power_consumption_v3\source\config.c" 1
 364  0002              	NOP
 364  0002              	ENDIF
 364  0002              ;# 364 "c:\users\h469388\desktop\todo\projects\1_ngb\1_firmware\ngb_low_power_consumption_v3\source\config.c" 1
 364  0002              	IF 50==2
 364  0002              ;# 364 "c:\users\h469388\desktop\todo\projects\1_ngb\1_firmware\ngb_low_power_consumption_v3\source\config.c" 1
 364  0002              	NOP
 364  0002              ;# 364 "c:\users\h469388\desktop\todo\projects\1_ngb\1_firmware\ngb_low_power_consumption_v3\source\config.c" 1
 364  0002              	NOP
 364  0002              	ENDIF
 364  0002              ;# 364 "c:\users\h469388\desktop\todo\projects\1_ngb\1_firmware\ngb_low_power_consumption_v3\source\config.c" 1
 364  0002              	IF 50==3
 364  0002              ;# 364 "c:\users\h469388\desktop\todo\projects\1_ngb\1_firmware\ngb_low_power_consumption_v3\source\config.c" 1
 364  0002              	NOP
 364  0002              ;# 364 "c:\users\h469388\desktop\todo\projects\1_ngb\1_firmware\ngb_low_power_consumption_v3\source\config.c" 1
 364  0002              	NOP
 364  0002              ;# 364 "c:\users\h469388\desktop\todo\projects\1_ngb\1_firmware\ngb_low_power_consumption_v3\source\config.c" 1
 364  0002              	NOP
 364  0002              	ENDIF
 364  0002              ;# 364 "c:\users\h469388\desktop\todo\projects\1_ngb\1_firmware\ngb_low_power_consumption_v3\source\config.c" 1
 364  0002              	IF (50<8) AND (50>3)
 364  0002              ;# 364 "c:\users\h469388\desktop\todo\projects\1_ngb\1_firmware\ngb_low_power_consumption_v3\source\config.c" 1
 364  0002              	CALL __DELAY3 + 7 -50
 364  0002              	ENDIF
 364  0002              ;# 364 "c:\users\h469388\desktop\todo\projects\1_ngb\1_firmware\ngb_low_power_consumption_v3\source\config.c" 1
 364  0002              	IF (50< 0404h) AND (50>7)
 364  0002              ;# 364 "c:\users\h469388\desktop\todo\projects\1_ngb\1_firmware\ngb_low_power_consumption_v3\source\config.c" 1
 364  0002  0F0B        	MOV A,50/4-1
 364  0003              ;# 364 "c:\users\h469388\desktop\todo\projects\1_ngb\1_firmware\ngb_low_power_consumption_v3\source\config.c" 1
 364  0003  2000     E  	CALL __DELAYX3 + 3 -(50 MOD 4)
 364  0004              	ENDIF
 364  0004              ;# 364 "c:\users\h469388\desktop\todo\projects\1_ngb\1_firmware\ngb_low_power_consumption_v3\source\config.c" 1
"File: config.c      Assembler  Version HGASM0202      Page 5

 364  0004              	IF (50< 0x40B) AND (50> 0403h)
 364  0004              ;# 364 "c:\users\h469388\desktop\todo\projects\1_ngb\1_firmware\ngb_low_power_consumption_v3\source\config.c" 1
 364  0004              	MOV A,0 
 364  0004              ;# 364 "c:\users\h469388\desktop\todo\projects\1_ngb\1_firmware\ngb_low_power_consumption_v3\source\config.c" 1
 364  0004              	CALL __DELAYX6 + 0x40a -50
 364  0004              	ENDIF
 364  0004              ;# 364 "c:\users\h469388\desktop\todo\projects\1_ngb\1_firmware\ngb_low_power_consumption_v3\source\config.c" 1
 364  0004              	IF (50 >= 0x40b) AND ((((50-9)%0402h)/4+1)>256)
 364  0004              ;# 364 "c:\users\h469388\desktop\todo\projects\1_ngb\1_firmware\ngb_low_power_consumption_v3\source\config.c" 1
 364  0004              	MOV A,(50-9)/0402h
 364  0004              ;# 364 "c:\users\h469388\desktop\todo\projects\1_ngb\1_firmware\ngb_low_power_consumption_v3\source\config.c" 1
 364  0004              	MOV _builtin_holtek_delay_2,A
 364  0004              ;# 364 "c:\users\h469388\desktop\todo\projects\1_ngb\1_firmware\ngb_low_power_consumption_v3\source\config.c" 1
 364  0004              	MOV A,0
 364  0004              ;# 364 "c:\users\h469388\desktop\todo\projects\1_ngb\1_firmware\ngb_low_power_consumption_v3\source\config.c" 1
 364  0004              	CALL __DELAYY5 +5- (((50-9)%0402h)%6)
 364  0004              	ENDIF
 364  0004              ;# 364 "c:\users\h469388\desktop\todo\projects\1_ngb\1_firmware\ngb_low_power_consumption_v3\source\config.c" 1
 364  0004              	IF (50 >= 0x40b) AND ((((50-9)%0402h)/4+1)<=256)
 364  0004              ;# 364 "c:\users\h469388\desktop\todo\projects\1_ngb\1_firmware\ngb_low_power_consumption_v3\source\config.c" 1
 364  0004              	MOV A,(50-9)/0402h
 364  0004              ;# 364 "c:\users\h469388\desktop\todo\projects\1_ngb\1_firmware\ngb_low_power_consumption_v3\source\config.c" 1
 364  0004              	MOV _builtin_holtek_delay_2,A
 364  0004              ;# 364 "c:\users\h469388\desktop\todo\projects\1_ngb\1_firmware\ngb_low_power_consumption_v3\source\config.c" 1
 364  0004              	MOV A,((50-9)%0402h)/4+1
 364  0004              ;# 364 "c:\users\h469388\desktop\todo\projects\1_ngb\1_firmware\ngb_low_power_consumption_v3\source\config.c" 1
 364  0004              	CALL __DELAYY3 +3-(((50-9)%0402h)%4)
 364  0004              	ENDIF
 359  0004              #line 359 "c:\users\h469388\desktop\todo\projects\1_ngb\1_firmware\ngb_low_power_consumption_v3\source\config.c"
 359  0004  1F00     E  	clr ra
 359  0005              _L7:
 367  0005              #line 367 "c:\users\h469388\desktop\todo\projects\1_ngb\1_firmware\ngb_low_power_consumption_v3\source\config.c"
 367  0005  1836        	rla [54]
 367  0006  0E01        	and a,1
 367  0007  0080     E  	mov rc,a
 368  0008              #line 368 "c:\users\h469388\desktop\todo\projects\1_ngb\1_firmware\ngb_low_power_consumption_v3\source\config.c"
 368  0008  14B7        	inc [55]
 369  0009              #line 369 "c:\users\h469388\desktop\todo\projects\1_ngb\1_firmware\ngb_low_power_consumption_v3\source\config.c"
 369  0009  1480     E  	inc ra
 370  000A              #line 370 "c:\users\h469388\desktop\todo\projects\1_ngb\1_firmware\ngb_low_power_consumption_v3\source\config.c"
 370  000A              ;# 370 "c:\users\h469388\desktop\todo\projects\1_ngb\1_firmware\ngb_low_power_consumption_v3\source\config.c" 1
 370  000A              	IF 50>263690
 370  000A              ;# 370 "c:\users\h469388\desktop\todo\projects\1_ngb\1_firmware\ngb_low_power_consumption_v3\source\config.c" 1
 370  000A              	ERRMESSAGE 'the value 50of the argument exceeds the maxinum 263690'
 370  000A              	ENDIF
 370  000A              ;# 370 "c:\users\h469388\desktop\todo\projects\1_ngb\1_firmware\ngb_low_power_consumption_v3\source\config.c" 1
 370  000A              	IF 50<0
 370  000A              ;# 370 "c:\users\h469388\desktop\todo\projects\1_ngb\1_firmware\ngb_low_power_consumption_v3\source\config.c" 1
 370  000A              	ERRMESSAGE 'the value 50 of the argument exceeds the mininum 0'
 370  000A              	ENDIF
 370  000A              ;# 370 "c:\users\h469388\desktop\todo\projects\1_ngb\1_firmware\ngb_low_power_consumption_v3\source\config.c" 1
 370  000A              	IF 50==0
 370  000A              ;# 370 "c:\users\h469388\desktop\todo\projects\1_ngb\1_firmware\ngb_low_power_consumption_v3\source\config.c" 1
 370  000A              	JMP $
 370  000A              	ENDIF
 370  000A              ;# 370 "c:\users\h469388\desktop\todo\projects\1_ngb\1_firmware\ngb_low_power_consumption_v3\source\config.c" 1
 370  000A              	IF 50==1
 370  000A              ;# 370 "c:\users\h469388\desktop\todo\projects\1_ngb\1_firmware\ngb_low_power_consumption_v3\source\config.c" 1
 370  000A              	NOP
 370  000A              	ENDIF
"File: config.c      Assembler  Version HGASM0202      Page 6

 370  000A              ;# 370 "c:\users\h469388\desktop\todo\projects\1_ngb\1_firmware\ngb_low_power_consumption_v3\source\config.c" 1
 370  000A              	IF 50==2
 370  000A              ;# 370 "c:\users\h469388\desktop\todo\projects\1_ngb\1_firmware\ngb_low_power_consumption_v3\source\config.c" 1
 370  000A              	NOP
 370  000A              ;# 370 "c:\users\h469388\desktop\todo\projects\1_ngb\1_firmware\ngb_low_power_consumption_v3\source\config.c" 1
 370  000A              	NOP
 370  000A              	ENDIF
 370  000A              ;# 370 "c:\users\h469388\desktop\todo\projects\1_ngb\1_firmware\ngb_low_power_consumption_v3\source\config.c" 1
 370  000A              	IF 50==3
 370  000A              ;# 370 "c:\users\h469388\desktop\todo\projects\1_ngb\1_firmware\ngb_low_power_consumption_v3\source\config.c" 1
 370  000A              	NOP
 370  000A              ;# 370 "c:\users\h469388\desktop\todo\projects\1_ngb\1_firmware\ngb_low_power_consumption_v3\source\config.c" 1
 370  000A              	NOP
 370  000A              ;# 370 "c:\users\h469388\desktop\todo\projects\1_ngb\1_firmware\ngb_low_power_consumption_v3\source\config.c" 1
 370  000A              	NOP
 370  000A              	ENDIF
 370  000A              ;# 370 "c:\users\h469388\desktop\todo\projects\1_ngb\1_firmware\ngb_low_power_consumption_v3\source\config.c" 1
 370  000A              	IF (50<8) AND (50>3)
 370  000A              ;# 370 "c:\users\h469388\desktop\todo\projects\1_ngb\1_firmware\ngb_low_power_consumption_v3\source\config.c" 1
 370  000A              	CALL __DELAY3 + 7 -50
 370  000A              	ENDIF
 370  000A              ;# 370 "c:\users\h469388\desktop\todo\projects\1_ngb\1_firmware\ngb_low_power_consumption_v3\source\config.c" 1
 370  000A              	IF (50< 0404h) AND (50>7)
 370  000A              ;# 370 "c:\users\h469388\desktop\todo\projects\1_ngb\1_firmware\ngb_low_power_consumption_v3\source\config.c" 1
 370  000A  0F0B        	MOV A,50/4-1
 370  000B              ;# 370 "c:\users\h469388\desktop\todo\projects\1_ngb\1_firmware\ngb_low_power_consumption_v3\source\config.c" 1
 370  000B  2000     E  	CALL __DELAYX3 + 3 -(50 MOD 4)
 370  000C              	ENDIF
 370  000C              ;# 370 "c:\users\h469388\desktop\todo\projects\1_ngb\1_firmware\ngb_low_power_consumption_v3\source\config.c" 1
 370  000C              	IF (50< 0x40B) AND (50> 0403h)
 370  000C              ;# 370 "c:\users\h469388\desktop\todo\projects\1_ngb\1_firmware\ngb_low_power_consumption_v3\source\config.c" 1
 370  000C              	MOV A,0 
 370  000C              ;# 370 "c:\users\h469388\desktop\todo\projects\1_ngb\1_firmware\ngb_low_power_consumption_v3\source\config.c" 1
 370  000C              	CALL __DELAYX6 + 0x40a -50
 370  000C              	ENDIF
 370  000C              ;# 370 "c:\users\h469388\desktop\todo\projects\1_ngb\1_firmware\ngb_low_power_consumption_v3\source\config.c" 1
 370  000C              	IF (50 >= 0x40b) AND ((((50-9)%0402h)/4+1)>256)
 370  000C              ;# 370 "c:\users\h469388\desktop\todo\projects\1_ngb\1_firmware\ngb_low_power_consumption_v3\source\config.c" 1
 370  000C              	MOV A,(50-9)/0402h
 370  000C              ;# 370 "c:\users\h469388\desktop\todo\projects\1_ngb\1_firmware\ngb_low_power_consumption_v3\source\config.c" 1
 370  000C              	MOV _builtin_holtek_delay_2,A
 370  000C              ;# 370 "c:\users\h469388\desktop\todo\projects\1_ngb\1_firmware\ngb_low_power_consumption_v3\source\config.c" 1
 370  000C              	MOV A,0
 370  000C              ;# 370 "c:\users\h469388\desktop\todo\projects\1_ngb\1_firmware\ngb_low_power_consumption_v3\source\config.c" 1
 370  000C              	CALL __DELAYY5 +5- (((50-9)%0402h)%6)
 370  000C              	ENDIF
 370  000C              ;# 370 "c:\users\h469388\desktop\todo\projects\1_ngb\1_firmware\ngb_low_power_consumption_v3\source\config.c" 1
 370  000C              	IF (50 >= 0x40b) AND ((((50-9)%0402h)/4+1)<=256)
 370  000C              ;# 370 "c:\users\h469388\desktop\todo\projects\1_ngb\1_firmware\ngb_low_power_consumption_v3\source\config.c" 1
 370  000C              	MOV A,(50-9)/0402h
 370  000C              ;# 370 "c:\users\h469388\desktop\todo\projects\1_ngb\1_firmware\ngb_low_power_consumption_v3\source\config.c" 1
 370  000C              	MOV _builtin_holtek_delay_2,A
 370  000C              ;# 370 "c:\users\h469388\desktop\todo\projects\1_ngb\1_firmware\ngb_low_power_consumption_v3\source\config.c" 1
 370  000C              	MOV A,((50-9)%0402h)/4+1
 370  000C              ;# 370 "c:\users\h469388\desktop\todo\projects\1_ngb\1_firmware\ngb_low_power_consumption_v3\source\config.c" 1
 370  000C              	CALL __DELAYY3 +3-(((50-9)%0402h)%4)
 370  000C              	ENDIF
 371  000C              #line 371 "c:\users\h469388\desktop\todo\projects\1_ngb\1_firmware\ngb_low_power_consumption_v3\source\config.c"
 371  000C  1836        	rla [54]
 371  000D  0E01        	and a,1
"File: config.c      Assembler  Version HGASM0202      Page 7

 371  000E  0080     E  	mov rb,a
 372  000F              #line 372 "c:\users\h469388\desktop\todo\projects\1_ngb\1_firmware\ngb_low_power_consumption_v3\source\config.c"
 372  000F  0700     E  	mov a,rc
 372  0010  0200     E  	sub a,rb
 372  0011  390A        	snz z
 372  0012  2800     R  	jmp _L6
 365  0013              #line 365 "c:\users\h469388\desktop\todo\projects\1_ngb\1_firmware\ngb_low_power_consumption_v3\source\config.c"
 365  0013  0700     E  	mov a,ra
 365  0014  0A1F        	sub a,31
 365  0015  390A        	snz z
 365  0016  2800     R  	jmp _L7
 365  0017              _L6:
 378  0017              #line 378 "c:\users\h469388\desktop\todo\projects\1_ngb\1_firmware\ngb_low_power_consumption_v3\source\config.c"
 378  0017  0F7F        	mov a,127
 378  0018  00B7        	mov [55],a
 379  0019              #line 379 "c:\users\h469388\desktop\todo\projects\1_ngb\1_firmware\ngb_low_power_consumption_v3\source\config.c"
 379  0019              ;# 379 "c:\users\h469388\desktop\todo\projects\1_ngb\1_firmware\ngb_low_power_consumption_v3\source\config.c" 1
 379  0019              	IF 50>263690
 379  0019              ;# 379 "c:\users\h469388\desktop\todo\projects\1_ngb\1_firmware\ngb_low_power_consumption_v3\source\config.c" 1
 379  0019              	ERRMESSAGE 'the value 50of the argument exceeds the maxinum 263690'
 379  0019              	ENDIF
 379  0019              ;# 379 "c:\users\h469388\desktop\todo\projects\1_ngb\1_firmware\ngb_low_power_consumption_v3\source\config.c" 1
 379  0019              	IF 50<0
 379  0019              ;# 379 "c:\users\h469388\desktop\todo\projects\1_ngb\1_firmware\ngb_low_power_consumption_v3\source\config.c" 1
 379  0019              	ERRMESSAGE 'the value 50 of the argument exceeds the mininum 0'
 379  0019              	ENDIF
 379  0019              ;# 379 "c:\users\h469388\desktop\todo\projects\1_ngb\1_firmware\ngb_low_power_consumption_v3\source\config.c" 1
 379  0019              	IF 50==0
 379  0019              ;# 379 "c:\users\h469388\desktop\todo\projects\1_ngb\1_firmware\ngb_low_power_consumption_v3\source\config.c" 1
 379  0019              	JMP $
 379  0019              	ENDIF
 379  0019              ;# 379 "c:\users\h469388\desktop\todo\projects\1_ngb\1_firmware\ngb_low_power_consumption_v3\source\config.c" 1
 379  0019              	IF 50==1
 379  0019              ;# 379 "c:\users\h469388\desktop\todo\projects\1_ngb\1_firmware\ngb_low_power_consumption_v3\source\config.c" 1
 379  0019              	NOP
 379  0019              	ENDIF
 379  0019              ;# 379 "c:\users\h469388\desktop\todo\projects\1_ngb\1_firmware\ngb_low_power_consumption_v3\source\config.c" 1
 379  0019              	IF 50==2
 379  0019              ;# 379 "c:\users\h469388\desktop\todo\projects\1_ngb\1_firmware\ngb_low_power_consumption_v3\source\config.c" 1
 379  0019              	NOP
 379  0019              ;# 379 "c:\users\h469388\desktop\todo\projects\1_ngb\1_firmware\ngb_low_power_consumption_v3\source\config.c" 1
 379  0019              	NOP
 379  0019              	ENDIF
 379  0019              ;# 379 "c:\users\h469388\desktop\todo\projects\1_ngb\1_firmware\ngb_low_power_consumption_v3\source\config.c" 1
 379  0019              	IF 50==3
 379  0019              ;# 379 "c:\users\h469388\desktop\todo\projects\1_ngb\1_firmware\ngb_low_power_consumption_v3\source\config.c" 1
 379  0019              	NOP
 379  0019              ;# 379 "c:\users\h469388\desktop\todo\projects\1_ngb\1_firmware\ngb_low_power_consumption_v3\source\config.c" 1
 379  0019              	NOP
 379  0019              ;# 379 "c:\users\h469388\desktop\todo\projects\1_ngb\1_firmware\ngb_low_power_consumption_v3\source\config.c" 1
 379  0019              	NOP
 379  0019              	ENDIF
 379  0019              ;# 379 "c:\users\h469388\desktop\todo\projects\1_ngb\1_firmware\ngb_low_power_consumption_v3\source\config.c" 1
 379  0019              	IF (50<8) AND (50>3)
 379  0019              ;# 379 "c:\users\h469388\desktop\todo\projects\1_ngb\1_firmware\ngb_low_power_consumption_v3\source\config.c" 1
 379  0019              	CALL __DELAY3 + 7 -50
 379  0019              	ENDIF
 379  0019              ;# 379 "c:\users\h469388\desktop\todo\projects\1_ngb\1_firmware\ngb_low_power_consumption_v3\source\config.c" 1
 379  0019              	IF (50< 0404h) AND (50>7)
 379  0019              ;# 379 "c:\users\h469388\desktop\todo\projects\1_ngb\1_firmware\ngb_low_power_consumption_v3\source\config.c" 1
"File: config.c      Assembler  Version HGASM0202      Page 8

 379  0019  0F0B        	MOV A,50/4-1
 379  001A              ;# 379 "c:\users\h469388\desktop\todo\projects\1_ngb\1_firmware\ngb_low_power_consumption_v3\source\config.c" 1
 379  001A  2000     E  	CALL __DELAYX3 + 3 -(50 MOD 4)
 379  001B              	ENDIF
 379  001B              ;# 379 "c:\users\h469388\desktop\todo\projects\1_ngb\1_firmware\ngb_low_power_consumption_v3\source\config.c" 1
 379  001B              	IF (50< 0x40B) AND (50> 0403h)
 379  001B              ;# 379 "c:\users\h469388\desktop\todo\projects\1_ngb\1_firmware\ngb_low_power_consumption_v3\source\config.c" 1
 379  001B              	MOV A,0 
 379  001B              ;# 379 "c:\users\h469388\desktop\todo\projects\1_ngb\1_firmware\ngb_low_power_consumption_v3\source\config.c" 1
 379  001B              	CALL __DELAYX6 + 0x40a -50
 379  001B              	ENDIF
 379  001B              ;# 379 "c:\users\h469388\desktop\todo\projects\1_ngb\1_firmware\ngb_low_power_consumption_v3\source\config.c" 1
 379  001B              	IF (50 >= 0x40b) AND ((((50-9)%0402h)/4+1)>256)
 379  001B              ;# 379 "c:\users\h469388\desktop\todo\projects\1_ngb\1_firmware\ngb_low_power_consumption_v3\source\config.c" 1
 379  001B              	MOV A,(50-9)/0402h
 379  001B              ;# 379 "c:\users\h469388\desktop\todo\projects\1_ngb\1_firmware\ngb_low_power_consumption_v3\source\config.c" 1
 379  001B              	MOV _builtin_holtek_delay_2,A
 379  001B              ;# 379 "c:\users\h469388\desktop\todo\projects\1_ngb\1_firmware\ngb_low_power_consumption_v3\source\config.c" 1
 379  001B              	MOV A,0
 379  001B              ;# 379 "c:\users\h469388\desktop\todo\projects\1_ngb\1_firmware\ngb_low_power_consumption_v3\source\config.c" 1
 379  001B              	CALL __DELAYY5 +5- (((50-9)%0402h)%6)
 379  001B              	ENDIF
 379  001B              ;# 379 "c:\users\h469388\desktop\todo\projects\1_ngb\1_firmware\ngb_low_power_consumption_v3\source\config.c" 1
 379  001B              	IF (50 >= 0x40b) AND ((((50-9)%0402h)/4+1)<=256)
 379  001B              ;# 379 "c:\users\h469388\desktop\todo\projects\1_ngb\1_firmware\ngb_low_power_consumption_v3\source\config.c" 1
 379  001B              	MOV A,(50-9)/0402h
 379  001B              ;# 379 "c:\users\h469388\desktop\todo\projects\1_ngb\1_firmware\ngb_low_power_consumption_v3\source\config.c" 1
 379  001B              	MOV _builtin_holtek_delay_2,A
 379  001B              ;# 379 "c:\users\h469388\desktop\todo\projects\1_ngb\1_firmware\ngb_low_power_consumption_v3\source\config.c" 1
 379  001B              	MOV A,((50-9)%0402h)/4+1
 379  001B              ;# 379 "c:\users\h469388\desktop\todo\projects\1_ngb\1_firmware\ngb_low_power_consumption_v3\source\config.c" 1
 379  001B              	CALL __DELAYY3 +3-(((50-9)%0402h)%4)
 379  001B              	ENDIF
 359  001B              #line 359 "c:\users\h469388\desktop\todo\projects\1_ngb\1_firmware\ngb_low_power_consumption_v3\source\config.c"
 359  001B  1F00     E  	clr rb
 359  001C              _L9:
 382  001C              #line 382 "c:\users\h469388\desktop\todo\projects\1_ngb\1_firmware\ngb_low_power_consumption_v3\source\config.c"
 382  001C  1836        	rla [54]
 382  001D  0E01        	and a,1
 382  001E  0080     E  	mov rd,a
 383  001F              #line 383 "c:\users\h469388\desktop\todo\projects\1_ngb\1_firmware\ngb_low_power_consumption_v3\source\config.c"
 383  001F  15B7        	dec [55]
 384  0020              #line 384 "c:\users\h469388\desktop\todo\projects\1_ngb\1_firmware\ngb_low_power_consumption_v3\source\config.c"
 384  0020  1480     E  	inc rb
 385  0021              #line 385 "c:\users\h469388\desktop\todo\projects\1_ngb\1_firmware\ngb_low_power_consumption_v3\source\config.c"
 385  0021              ;# 385 "c:\users\h469388\desktop\todo\projects\1_ngb\1_firmware\ngb_low_power_consumption_v3\source\config.c" 1
 385  0021              	IF 50>263690
 385  0021              ;# 385 "c:\users\h469388\desktop\todo\projects\1_ngb\1_firmware\ngb_low_power_consumption_v3\source\config.c" 1
 385  0021              	ERRMESSAGE 'the value 50of the argument exceeds the maxinum 263690'
 385  0021              	ENDIF
 385  0021              ;# 385 "c:\users\h469388\desktop\todo\projects\1_ngb\1_firmware\ngb_low_power_consumption_v3\source\config.c" 1
 385  0021              	IF 50<0
 385  0021              ;# 385 "c:\users\h469388\desktop\todo\projects\1_ngb\1_firmware\ngb_low_power_consumption_v3\source\config.c" 1
 385  0021              	ERRMESSAGE 'the value 50 of the argument exceeds the mininum 0'
 385  0021              	ENDIF
 385  0021              ;# 385 "c:\users\h469388\desktop\todo\projects\1_ngb\1_firmware\ngb_low_power_consumption_v3\source\config.c" 1
 385  0021              	IF 50==0
 385  0021              ;# 385 "c:\users\h469388\desktop\todo\projects\1_ngb\1_firmware\ngb_low_power_consumption_v3\source\config.c" 1
 385  0021              	JMP $
 385  0021              	ENDIF
"File: config.c      Assembler  Version HGASM0202      Page 9

 385  0021              ;# 385 "c:\users\h469388\desktop\todo\projects\1_ngb\1_firmware\ngb_low_power_consumption_v3\source\config.c" 1
 385  0021              	IF 50==1
 385  0021              ;# 385 "c:\users\h469388\desktop\todo\projects\1_ngb\1_firmware\ngb_low_power_consumption_v3\source\config.c" 1
 385  0021              	NOP
 385  0021              	ENDIF
 385  0021              ;# 385 "c:\users\h469388\desktop\todo\projects\1_ngb\1_firmware\ngb_low_power_consumption_v3\source\config.c" 1
 385  0021              	IF 50==2
 385  0021              ;# 385 "c:\users\h469388\desktop\todo\projects\1_ngb\1_firmware\ngb_low_power_consumption_v3\source\config.c" 1
 385  0021              	NOP
 385  0021              ;# 385 "c:\users\h469388\desktop\todo\projects\1_ngb\1_firmware\ngb_low_power_consumption_v3\source\config.c" 1
 385  0021              	NOP
 385  0021              	ENDIF
 385  0021              ;# 385 "c:\users\h469388\desktop\todo\projects\1_ngb\1_firmware\ngb_low_power_consumption_v3\source\config.c" 1
 385  0021              	IF 50==3
 385  0021              ;# 385 "c:\users\h469388\desktop\todo\projects\1_ngb\1_firmware\ngb_low_power_consumption_v3\source\config.c" 1
 385  0021              	NOP
 385  0021              ;# 385 "c:\users\h469388\desktop\todo\projects\1_ngb\1_firmware\ngb_low_power_consumption_v3\source\config.c" 1
 385  0021              	NOP
 385  0021              ;# 385 "c:\users\h469388\desktop\todo\projects\1_ngb\1_firmware\ngb_low_power_consumption_v3\source\config.c" 1
 385  0021              	NOP
 385  0021              	ENDIF
 385  0021              ;# 385 "c:\users\h469388\desktop\todo\projects\1_ngb\1_firmware\ngb_low_power_consumption_v3\source\config.c" 1
 385  0021              	IF (50<8) AND (50>3)
 385  0021              ;# 385 "c:\users\h469388\desktop\todo\projects\1_ngb\1_firmware\ngb_low_power_consumption_v3\source\config.c" 1
 385  0021              	CALL __DELAY3 + 7 -50
 385  0021              	ENDIF
 385  0021              ;# 385 "c:\users\h469388\desktop\todo\projects\1_ngb\1_firmware\ngb_low_power_consumption_v3\source\config.c" 1
 385  0021              	IF (50< 0404h) AND (50>7)
 385  0021              ;# 385 "c:\users\h469388\desktop\todo\projects\1_ngb\1_firmware\ngb_low_power_consumption_v3\source\config.c" 1
 385  0021  0F0B        	MOV A,50/4-1
 385  0022              ;# 385 "c:\users\h469388\desktop\todo\projects\1_ngb\1_firmware\ngb_low_power_consumption_v3\source\config.c" 1
 385  0022  2000     E  	CALL __DELAYX3 + 3 -(50 MOD 4)
 385  0023              	ENDIF
 385  0023              ;# 385 "c:\users\h469388\desktop\todo\projects\1_ngb\1_firmware\ngb_low_power_consumption_v3\source\config.c" 1
 385  0023              	IF (50< 0x40B) AND (50> 0403h)
 385  0023              ;# 385 "c:\users\h469388\desktop\todo\projects\1_ngb\1_firmware\ngb_low_power_consumption_v3\source\config.c" 1
 385  0023              	MOV A,0 
 385  0023              ;# 385 "c:\users\h469388\desktop\todo\projects\1_ngb\1_firmware\ngb_low_power_consumption_v3\source\config.c" 1
 385  0023              	CALL __DELAYX6 + 0x40a -50
 385  0023              	ENDIF
 385  0023              ;# 385 "c:\users\h469388\desktop\todo\projects\1_ngb\1_firmware\ngb_low_power_consumption_v3\source\config.c" 1
 385  0023              	IF (50 >= 0x40b) AND ((((50-9)%0402h)/4+1)>256)
 385  0023              ;# 385 "c:\users\h469388\desktop\todo\projects\1_ngb\1_firmware\ngb_low_power_consumption_v3\source\config.c" 1
 385  0023              	MOV A,(50-9)/0402h
 385  0023              ;# 385 "c:\users\h469388\desktop\todo\projects\1_ngb\1_firmware\ngb_low_power_consumption_v3\source\config.c" 1
 385  0023              	MOV _builtin_holtek_delay_2,A
 385  0023              ;# 385 "c:\users\h469388\desktop\todo\projects\1_ngb\1_firmware\ngb_low_power_consumption_v3\source\config.c" 1
 385  0023              	MOV A,0
 385  0023              ;# 385 "c:\users\h469388\desktop\todo\projects\1_ngb\1_firmware\ngb_low_power_consumption_v3\source\config.c" 1
 385  0023              	CALL __DELAYY5 +5- (((50-9)%0402h)%6)
 385  0023              	ENDIF
 385  0023              ;# 385 "c:\users\h469388\desktop\todo\projects\1_ngb\1_firmware\ngb_low_power_consumption_v3\source\config.c" 1
 385  0023              	IF (50 >= 0x40b) AND ((((50-9)%0402h)/4+1)<=256)
 385  0023              ;# 385 "c:\users\h469388\desktop\todo\projects\1_ngb\1_firmware\ngb_low_power_consumption_v3\source\config.c" 1
 385  0023              	MOV A,(50-9)/0402h
 385  0023              ;# 385 "c:\users\h469388\desktop\todo\projects\1_ngb\1_firmware\ngb_low_power_consumption_v3\source\config.c" 1
 385  0023              	MOV _builtin_holtek_delay_2,A
 385  0023              ;# 385 "c:\users\h469388\desktop\todo\projects\1_ngb\1_firmware\ngb_low_power_consumption_v3\source\config.c" 1
 385  0023              	MOV A,((50-9)%0402h)/4+1
 385  0023              ;# 385 "c:\users\h469388\desktop\todo\projects\1_ngb\1_firmware\ngb_low_power_consumption_v3\source\config.c" 1
"File: config.c      Assembler  Version HGASM0202      Page 10

 385  0023              	CALL __DELAYY3 +3-(((50-9)%0402h)%4)
 385  0023              	ENDIF
 386  0023              #line 386 "c:\users\h469388\desktop\todo\projects\1_ngb\1_firmware\ngb_low_power_consumption_v3\source\config.c"
 386  0023  1836        	rla [54]
 386  0024  0E01        	and a,1
 386  0025  0080     E  	mov rc,a
 387  0026              #line 387 "c:\users\h469388\desktop\todo\projects\1_ngb\1_firmware\ngb_low_power_consumption_v3\source\config.c"
 387  0026  0700     E  	mov a,rd
 387  0027  0200     E  	sub a,rc
 387  0028  390A        	snz z
 387  0029  2800     R  	jmp _L8
 380  002A              #line 380 "c:\users\h469388\desktop\todo\projects\1_ngb\1_firmware\ngb_low_power_consumption_v3\source\config.c"
 380  002A  0700     E  	mov a,rb
 380  002B  0A1F        	sub a,31
 380  002C  390A        	snz z
 380  002D  2800     R  	jmp _L9
 380  002E              _L8:
 392  002E              #line 392 "c:\users\h469388\desktop\todo\projects\1_ngb\1_firmware\ngb_low_power_consumption_v3\source\config.c"
 392  002E  0F1F        	mov a,31
 392  002F  0280     E  	subm a,rb
 394  0030              #line 394 "c:\users\h469388\desktop\todo\projects\1_ngb\1_firmware\ngb_low_power_consumption_v3\source\config.c"
 394  0030  0700     E  	mov a,rb
 394  0031  0380     E  	addm a,ra
 394  0032  1B80     E  	rrc ra
 395  0033              #line 395 "c:\users\h469388\desktop\todo\projects\1_ngb\1_firmware\ngb_low_power_consumption_v3\source\config.c"
 395  0033  0700     E  	mov a,ra
 395  0034  00B7        	mov [55],a
 403  0035              #line 403 "c:\users\h469388\desktop\todo\projects\1_ngb\1_firmware\ngb_low_power_consumption_v3\source\config.c"
 403  0035  0F60        	mov a,96
 403  0036  00B9        	mov [57],a
 404  0037              #line 404 "c:\users\h469388\desktop\todo\projects\1_ngb\1_firmware\ngb_low_power_consumption_v3\source\config.c"
 404  0037              ;# 404 "c:\users\h469388\desktop\todo\projects\1_ngb\1_firmware\ngb_low_power_consumption_v3\source\config.c" 1
 404  0037              	IF 50>263690
 404  0037              ;# 404 "c:\users\h469388\desktop\todo\projects\1_ngb\1_firmware\ngb_low_power_consumption_v3\source\config.c" 1
 404  0037              	ERRMESSAGE 'the value 50of the argument exceeds the maxinum 263690'
 404  0037              	ENDIF
 404  0037              ;# 404 "c:\users\h469388\desktop\todo\projects\1_ngb\1_firmware\ngb_low_power_consumption_v3\source\config.c" 1
 404  0037              	IF 50<0
 404  0037              ;# 404 "c:\users\h469388\desktop\todo\projects\1_ngb\1_firmware\ngb_low_power_consumption_v3\source\config.c" 1
 404  0037              	ERRMESSAGE 'the value 50 of the argument exceeds the mininum 0'
 404  0037              	ENDIF
 404  0037              ;# 404 "c:\users\h469388\desktop\todo\projects\1_ngb\1_firmware\ngb_low_power_consumption_v3\source\config.c" 1
 404  0037              	IF 50==0
 404  0037              ;# 404 "c:\users\h469388\desktop\todo\projects\1_ngb\1_firmware\ngb_low_power_consumption_v3\source\config.c" 1
 404  0037              	JMP $
 404  0037              	ENDIF
 404  0037              ;# 404 "c:\users\h469388\desktop\todo\projects\1_ngb\1_firmware\ngb_low_power_consumption_v3\source\config.c" 1
 404  0037              	IF 50==1
 404  0037              ;# 404 "c:\users\h469388\desktop\todo\projects\1_ngb\1_firmware\ngb_low_power_consumption_v3\source\config.c" 1
 404  0037              	NOP
 404  0037              	ENDIF
 404  0037              ;# 404 "c:\users\h469388\desktop\todo\projects\1_ngb\1_firmware\ngb_low_power_consumption_v3\source\config.c" 1
 404  0037              	IF 50==2
 404  0037              ;# 404 "c:\users\h469388\desktop\todo\projects\1_ngb\1_firmware\ngb_low_power_consumption_v3\source\config.c" 1
 404  0037              	NOP
 404  0037              ;# 404 "c:\users\h469388\desktop\todo\projects\1_ngb\1_firmware\ngb_low_power_consumption_v3\source\config.c" 1
 404  0037              	NOP
 404  0037              	ENDIF
 404  0037              ;# 404 "c:\users\h469388\desktop\todo\projects\1_ngb\1_firmware\ngb_low_power_consumption_v3\source\config.c" 1
 404  0037              	IF 50==3
"File: config.c      Assembler  Version HGASM0202      Page 11

 404  0037              ;# 404 "c:\users\h469388\desktop\todo\projects\1_ngb\1_firmware\ngb_low_power_consumption_v3\source\config.c" 1
 404  0037              	NOP
 404  0037              ;# 404 "c:\users\h469388\desktop\todo\projects\1_ngb\1_firmware\ngb_low_power_consumption_v3\source\config.c" 1
 404  0037              	NOP
 404  0037              ;# 404 "c:\users\h469388\desktop\todo\projects\1_ngb\1_firmware\ngb_low_power_consumption_v3\source\config.c" 1
 404  0037              	NOP
 404  0037              	ENDIF
 404  0037              ;# 404 "c:\users\h469388\desktop\todo\projects\1_ngb\1_firmware\ngb_low_power_consumption_v3\source\config.c" 1
 404  0037              	IF (50<8) AND (50>3)
 404  0037              ;# 404 "c:\users\h469388\desktop\todo\projects\1_ngb\1_firmware\ngb_low_power_consumption_v3\source\config.c" 1
 404  0037              	CALL __DELAY3 + 7 -50
 404  0037              	ENDIF
 404  0037              ;# 404 "c:\users\h469388\desktop\todo\projects\1_ngb\1_firmware\ngb_low_power_consumption_v3\source\config.c" 1
 404  0037              	IF (50< 0404h) AND (50>7)
 404  0037              ;# 404 "c:\users\h469388\desktop\todo\projects\1_ngb\1_firmware\ngb_low_power_consumption_v3\source\config.c" 1
 404  0037  0F0B        	MOV A,50/4-1
 404  0038              ;# 404 "c:\users\h469388\desktop\todo\projects\1_ngb\1_firmware\ngb_low_power_consumption_v3\source\config.c" 1
 404  0038  2000     E  	CALL __DELAYX3 + 3 -(50 MOD 4)
 404  0039              	ENDIF
 404  0039              ;# 404 "c:\users\h469388\desktop\todo\projects\1_ngb\1_firmware\ngb_low_power_consumption_v3\source\config.c" 1
 404  0039              	IF (50< 0x40B) AND (50> 0403h)
 404  0039              ;# 404 "c:\users\h469388\desktop\todo\projects\1_ngb\1_firmware\ngb_low_power_consumption_v3\source\config.c" 1
 404  0039              	MOV A,0 
 404  0039              ;# 404 "c:\users\h469388\desktop\todo\projects\1_ngb\1_firmware\ngb_low_power_consumption_v3\source\config.c" 1
 404  0039              	CALL __DELAYX6 + 0x40a -50
 404  0039              	ENDIF
 404  0039              ;# 404 "c:\users\h469388\desktop\todo\projects\1_ngb\1_firmware\ngb_low_power_consumption_v3\source\config.c" 1
 404  0039              	IF (50 >= 0x40b) AND ((((50-9)%0402h)/4+1)>256)
 404  0039              ;# 404 "c:\users\h469388\desktop\todo\projects\1_ngb\1_firmware\ngb_low_power_consumption_v3\source\config.c" 1
 404  0039              	MOV A,(50-9)/0402h
 404  0039              ;# 404 "c:\users\h469388\desktop\todo\projects\1_ngb\1_firmware\ngb_low_power_consumption_v3\source\config.c" 1
 404  0039              	MOV _builtin_holtek_delay_2,A
 404  0039              ;# 404 "c:\users\h469388\desktop\todo\projects\1_ngb\1_firmware\ngb_low_power_consumption_v3\source\config.c" 1
 404  0039              	MOV A,0
 404  0039              ;# 404 "c:\users\h469388\desktop\todo\projects\1_ngb\1_firmware\ngb_low_power_consumption_v3\source\config.c" 1
 404  0039              	CALL __DELAYY5 +5- (((50-9)%0402h)%6)
 404  0039              	ENDIF
 404  0039              ;# 404 "c:\users\h469388\desktop\todo\projects\1_ngb\1_firmware\ngb_low_power_consumption_v3\source\config.c" 1
 404  0039              	IF (50 >= 0x40b) AND ((((50-9)%0402h)/4+1)<=256)
 404  0039              ;# 404 "c:\users\h469388\desktop\todo\projects\1_ngb\1_firmware\ngb_low_power_consumption_v3\source\config.c" 1
 404  0039              	MOV A,(50-9)/0402h
 404  0039              ;# 404 "c:\users\h469388\desktop\todo\projects\1_ngb\1_firmware\ngb_low_power_consumption_v3\source\config.c" 1
 404  0039              	MOV _builtin_holtek_delay_2,A
 404  0039              ;# 404 "c:\users\h469388\desktop\todo\projects\1_ngb\1_firmware\ngb_low_power_consumption_v3\source\config.c" 1
 404  0039              	MOV A,((50-9)%0402h)/4+1
 404  0039              ;# 404 "c:\users\h469388\desktop\todo\projects\1_ngb\1_firmware\ngb_low_power_consumption_v3\source\config.c" 1
 404  0039              	CALL __DELAYY3 +3-(((50-9)%0402h)%4)
 404  0039              	ENDIF
 398  0039              #line 398 "c:\users\h469388\desktop\todo\projects\1_ngb\1_firmware\ngb_low_power_consumption_v3\source\config.c"
 398  0039  1F00     E  	clr ra
 398  003A              _L11:
 407  003A              #line 407 "c:\users\h469388\desktop\todo\projects\1_ngb\1_firmware\ngb_low_power_consumption_v3\source\config.c"
 407  003A  1838        	rla [56]
 407  003B  0E01        	and a,1
 407  003C  0080     E  	mov rc,a
 408  003D              #line 408 "c:\users\h469388\desktop\todo\projects\1_ngb\1_firmware\ngb_low_power_consumption_v3\source\config.c"
 408  003D  14B9        	inc [57]
 409  003E              #line 409 "c:\users\h469388\desktop\todo\projects\1_ngb\1_firmware\ngb_low_power_consumption_v3\source\config.c"
 409  003E  1480     E  	inc ra
 410  003F              #line 410 "c:\users\h469388\desktop\todo\projects\1_ngb\1_firmware\ngb_low_power_consumption_v3\source\config.c"
"File: config.c      Assembler  Version HGASM0202      Page 12

 410  003F              ;# 410 "c:\users\h469388\desktop\todo\projects\1_ngb\1_firmware\ngb_low_power_consumption_v3\source\config.c" 1
 410  003F              	IF 50>263690
 410  003F              ;# 410 "c:\users\h469388\desktop\todo\projects\1_ngb\1_firmware\ngb_low_power_consumption_v3\source\config.c" 1
 410  003F              	ERRMESSAGE 'the value 50of the argument exceeds the maxinum 263690'
 410  003F              	ENDIF
 410  003F              ;# 410 "c:\users\h469388\desktop\todo\projects\1_ngb\1_firmware\ngb_low_power_consumption_v3\source\config.c" 1
 410  003F              	IF 50<0
 410  003F              ;# 410 "c:\users\h469388\desktop\todo\projects\1_ngb\1_firmware\ngb_low_power_consumption_v3\source\config.c" 1
 410  003F              	ERRMESSAGE 'the value 50 of the argument exceeds the mininum 0'
 410  003F              	ENDIF
 410  003F              ;# 410 "c:\users\h469388\desktop\todo\projects\1_ngb\1_firmware\ngb_low_power_consumption_v3\source\config.c" 1
 410  003F              	IF 50==0
 410  003F              ;# 410 "c:\users\h469388\desktop\todo\projects\1_ngb\1_firmware\ngb_low_power_consumption_v3\source\config.c" 1
 410  003F              	JMP $
 410  003F              	ENDIF
 410  003F              ;# 410 "c:\users\h469388\desktop\todo\projects\1_ngb\1_firmware\ngb_low_power_consumption_v3\source\config.c" 1
 410  003F              	IF 50==1
 410  003F              ;# 410 "c:\users\h469388\desktop\todo\projects\1_ngb\1_firmware\ngb_low_power_consumption_v3\source\config.c" 1
 410  003F              	NOP
 410  003F              	ENDIF
 410  003F              ;# 410 "c:\users\h469388\desktop\todo\projects\1_ngb\1_firmware\ngb_low_power_consumption_v3\source\config.c" 1
 410  003F              	IF 50==2
 410  003F              ;# 410 "c:\users\h469388\desktop\todo\projects\1_ngb\1_firmware\ngb_low_power_consumption_v3\source\config.c" 1
 410  003F              	NOP
 410  003F              ;# 410 "c:\users\h469388\desktop\todo\projects\1_ngb\1_firmware\ngb_low_power_consumption_v3\source\config.c" 1
 410  003F              	NOP
 410  003F              	ENDIF
 410  003F              ;# 410 "c:\users\h469388\desktop\todo\projects\1_ngb\1_firmware\ngb_low_power_consumption_v3\source\config.c" 1
 410  003F              	IF 50==3
 410  003F              ;# 410 "c:\users\h469388\desktop\todo\projects\1_ngb\1_firmware\ngb_low_power_consumption_v3\source\config.c" 1
 410  003F              	NOP
 410  003F              ;# 410 "c:\users\h469388\desktop\todo\projects\1_ngb\1_firmware\ngb_low_power_consumption_v3\source\config.c" 1
 410  003F              	NOP
 410  003F              ;# 410 "c:\users\h469388\desktop\todo\projects\1_ngb\1_firmware\ngb_low_power_consumption_v3\source\config.c" 1
 410  003F              	NOP
 410  003F              	ENDIF
 410  003F              ;# 410 "c:\users\h469388\desktop\todo\projects\1_ngb\1_firmware\ngb_low_power_consumption_v3\source\config.c" 1
 410  003F              	IF (50<8) AND (50>3)
 410  003F              ;# 410 "c:\users\h469388\desktop\todo\projects\1_ngb\1_firmware\ngb_low_power_consumption_v3\source\config.c" 1
 410  003F              	CALL __DELAY3 + 7 -50
 410  003F              	ENDIF
 410  003F              ;# 410 "c:\users\h469388\desktop\todo\projects\1_ngb\1_firmware\ngb_low_power_consumption_v3\source\config.c" 1
 410  003F              	IF (50< 0404h) AND (50>7)
 410  003F              ;# 410 "c:\users\h469388\desktop\todo\projects\1_ngb\1_firmware\ngb_low_power_consumption_v3\source\config.c" 1
 410  003F  0F0B        	MOV A,50/4-1
 410  0040              ;# 410 "c:\users\h469388\desktop\todo\projects\1_ngb\1_firmware\ngb_low_power_consumption_v3\source\config.c" 1
 410  0040  2000     E  	CALL __DELAYX3 + 3 -(50 MOD 4)
 410  0041              	ENDIF
 410  0041              ;# 410 "c:\users\h469388\desktop\todo\projects\1_ngb\1_firmware\ngb_low_power_consumption_v3\source\config.c" 1
 410  0041              	IF (50< 0x40B) AND (50> 0403h)
 410  0041              ;# 410 "c:\users\h469388\desktop\todo\projects\1_ngb\1_firmware\ngb_low_power_consumption_v3\source\config.c" 1
 410  0041              	MOV A,0 
 410  0041              ;# 410 "c:\users\h469388\desktop\todo\projects\1_ngb\1_firmware\ngb_low_power_consumption_v3\source\config.c" 1
 410  0041              	CALL __DELAYX6 + 0x40a -50
 410  0041              	ENDIF
 410  0041              ;# 410 "c:\users\h469388\desktop\todo\projects\1_ngb\1_firmware\ngb_low_power_consumption_v3\source\config.c" 1
 410  0041              	IF (50 >= 0x40b) AND ((((50-9)%0402h)/4+1)>256)
 410  0041              ;# 410 "c:\users\h469388\desktop\todo\projects\1_ngb\1_firmware\ngb_low_power_consumption_v3\source\config.c" 1
 410  0041              	MOV A,(50-9)/0402h
 410  0041              ;# 410 "c:\users\h469388\desktop\todo\projects\1_ngb\1_firmware\ngb_low_power_consumption_v3\source\config.c" 1
"File: config.c      Assembler  Version HGASM0202      Page 13

 410  0041              	MOV _builtin_holtek_delay_2,A
 410  0041              ;# 410 "c:\users\h469388\desktop\todo\projects\1_ngb\1_firmware\ngb_low_power_consumption_v3\source\config.c" 1
 410  0041              	MOV A,0
 410  0041              ;# 410 "c:\users\h469388\desktop\todo\projects\1_ngb\1_firmware\ngb_low_power_consumption_v3\source\config.c" 1
 410  0041              	CALL __DELAYY5 +5- (((50-9)%0402h)%6)
 410  0041              	ENDIF
 410  0041              ;# 410 "c:\users\h469388\desktop\todo\projects\1_ngb\1_firmware\ngb_low_power_consumption_v3\source\config.c" 1
 410  0041              	IF (50 >= 0x40b) AND ((((50-9)%0402h)/4+1)<=256)
 410  0041              ;# 410 "c:\users\h469388\desktop\todo\projects\1_ngb\1_firmware\ngb_low_power_consumption_v3\source\config.c" 1
 410  0041              	MOV A,(50-9)/0402h
 410  0041              ;# 410 "c:\users\h469388\desktop\todo\projects\1_ngb\1_firmware\ngb_low_power_consumption_v3\source\config.c" 1
 410  0041              	MOV _builtin_holtek_delay_2,A
 410  0041              ;# 410 "c:\users\h469388\desktop\todo\projects\1_ngb\1_firmware\ngb_low_power_consumption_v3\source\config.c" 1
 410  0041              	MOV A,((50-9)%0402h)/4+1
 410  0041              ;# 410 "c:\users\h469388\desktop\todo\projects\1_ngb\1_firmware\ngb_low_power_consumption_v3\source\config.c" 1
 410  0041              	CALL __DELAYY3 +3-(((50-9)%0402h)%4)
 410  0041              	ENDIF
 411  0041              #line 411 "c:\users\h469388\desktop\todo\projects\1_ngb\1_firmware\ngb_low_power_consumption_v3\source\config.c"
 411  0041  1838        	rla [56]
 411  0042  0E01        	and a,1
 411  0043  0080     E  	mov rb,a
 412  0044              #line 412 "c:\users\h469388\desktop\todo\projects\1_ngb\1_firmware\ngb_low_power_consumption_v3\source\config.c"
 412  0044  0700     E  	mov a,rc
 412  0045  0200     E  	sub a,rb
 412  0046  390A        	snz z
 412  0047  2800     R  	jmp _L10
 405  0048              #line 405 "c:\users\h469388\desktop\todo\projects\1_ngb\1_firmware\ngb_low_power_consumption_v3\source\config.c"
 405  0048  0700     E  	mov a,ra
 405  0049  0A1F        	sub a,31
 405  004A  390A        	snz z
 405  004B  2800     R  	jmp _L11
 405  004C              _L10:
 418  004C              #line 418 "c:\users\h469388\desktop\todo\projects\1_ngb\1_firmware\ngb_low_power_consumption_v3\source\config.c"
 418  004C  0F7F        	mov a,127
 418  004D  00B9        	mov [57],a
 419  004E              #line 419 "c:\users\h469388\desktop\todo\projects\1_ngb\1_firmware\ngb_low_power_consumption_v3\source\config.c"
 419  004E              ;# 419 "c:\users\h469388\desktop\todo\projects\1_ngb\1_firmware\ngb_low_power_consumption_v3\source\config.c" 1
 419  004E              	IF 50>263690
 419  004E              ;# 419 "c:\users\h469388\desktop\todo\projects\1_ngb\1_firmware\ngb_low_power_consumption_v3\source\config.c" 1
 419  004E              	ERRMESSAGE 'the value 50of the argument exceeds the maxinum 263690'
 419  004E              	ENDIF
 419  004E              ;# 419 "c:\users\h469388\desktop\todo\projects\1_ngb\1_firmware\ngb_low_power_consumption_v3\source\config.c" 1
 419  004E              	IF 50<0
 419  004E              ;# 419 "c:\users\h469388\desktop\todo\projects\1_ngb\1_firmware\ngb_low_power_consumption_v3\source\config.c" 1
 419  004E              	ERRMESSAGE 'the value 50 of the argument exceeds the mininum 0'
 419  004E              	ENDIF
 419  004E              ;# 419 "c:\users\h469388\desktop\todo\projects\1_ngb\1_firmware\ngb_low_power_consumption_v3\source\config.c" 1
 419  004E              	IF 50==0
 419  004E              ;# 419 "c:\users\h469388\desktop\todo\projects\1_ngb\1_firmware\ngb_low_power_consumption_v3\source\config.c" 1
 419  004E              	JMP $
 419  004E              	ENDIF
 419  004E              ;# 419 "c:\users\h469388\desktop\todo\projects\1_ngb\1_firmware\ngb_low_power_consumption_v3\source\config.c" 1
 419  004E              	IF 50==1
 419  004E              ;# 419 "c:\users\h469388\desktop\todo\projects\1_ngb\1_firmware\ngb_low_power_consumption_v3\source\config.c" 1
 419  004E              	NOP
 419  004E              	ENDIF
 419  004E              ;# 419 "c:\users\h469388\desktop\todo\projects\1_ngb\1_firmware\ngb_low_power_consumption_v3\source\config.c" 1
 419  004E              	IF 50==2
 419  004E              ;# 419 "c:\users\h469388\desktop\todo\projects\1_ngb\1_firmware\ngb_low_power_consumption_v3\source\config.c" 1
 419  004E              	NOP
"File: config.c      Assembler  Version HGASM0202      Page 14

 419  004E              ;# 419 "c:\users\h469388\desktop\todo\projects\1_ngb\1_firmware\ngb_low_power_consumption_v3\source\config.c" 1
 419  004E              	NOP
 419  004E              	ENDIF
 419  004E              ;# 419 "c:\users\h469388\desktop\todo\projects\1_ngb\1_firmware\ngb_low_power_consumption_v3\source\config.c" 1
 419  004E              	IF 50==3
 419  004E              ;# 419 "c:\users\h469388\desktop\todo\projects\1_ngb\1_firmware\ngb_low_power_consumption_v3\source\config.c" 1
 419  004E              	NOP
 419  004E              ;# 419 "c:\users\h469388\desktop\todo\projects\1_ngb\1_firmware\ngb_low_power_consumption_v3\source\config.c" 1
 419  004E              	NOP
 419  004E              ;# 419 "c:\users\h469388\desktop\todo\projects\1_ngb\1_firmware\ngb_low_power_consumption_v3\source\config.c" 1
 419  004E              	NOP
 419  004E              	ENDIF
 419  004E              ;# 419 "c:\users\h469388\desktop\todo\projects\1_ngb\1_firmware\ngb_low_power_consumption_v3\source\config.c" 1
 419  004E              	IF (50<8) AND (50>3)
 419  004E              ;# 419 "c:\users\h469388\desktop\todo\projects\1_ngb\1_firmware\ngb_low_power_consumption_v3\source\config.c" 1
 419  004E              	CALL __DELAY3 + 7 -50
 419  004E              	ENDIF
 419  004E              ;# 419 "c:\users\h469388\desktop\todo\projects\1_ngb\1_firmware\ngb_low_power_consumption_v3\source\config.c" 1
 419  004E              	IF (50< 0404h) AND (50>7)
 419  004E              ;# 419 "c:\users\h469388\desktop\todo\projects\1_ngb\1_firmware\ngb_low_power_consumption_v3\source\config.c" 1
 419  004E  0F0B        	MOV A,50/4-1
 419  004F              ;# 419 "c:\users\h469388\desktop\todo\projects\1_ngb\1_firmware\ngb_low_power_consumption_v3\source\config.c" 1
 419  004F  2000     E  	CALL __DELAYX3 + 3 -(50 MOD 4)
 419  0050              	ENDIF
 419  0050              ;# 419 "c:\users\h469388\desktop\todo\projects\1_ngb\1_firmware\ngb_low_power_consumption_v3\source\config.c" 1
 419  0050              	IF (50< 0x40B) AND (50> 0403h)
 419  0050              ;# 419 "c:\users\h469388\desktop\todo\projects\1_ngb\1_firmware\ngb_low_power_consumption_v3\source\config.c" 1
 419  0050              	MOV A,0 
 419  0050              ;# 419 "c:\users\h469388\desktop\todo\projects\1_ngb\1_firmware\ngb_low_power_consumption_v3\source\config.c" 1
 419  0050              	CALL __DELAYX6 + 0x40a -50
 419  0050              	ENDIF
 419  0050              ;# 419 "c:\users\h469388\desktop\todo\projects\1_ngb\1_firmware\ngb_low_power_consumption_v3\source\config.c" 1
 419  0050              	IF (50 >= 0x40b) AND ((((50-9)%0402h)/4+1)>256)
 419  0050              ;# 419 "c:\users\h469388\desktop\todo\projects\1_ngb\1_firmware\ngb_low_power_consumption_v3\source\config.c" 1
 419  0050              	MOV A,(50-9)/0402h
 419  0050              ;# 419 "c:\users\h469388\desktop\todo\projects\1_ngb\1_firmware\ngb_low_power_consumption_v3\source\config.c" 1
 419  0050              	MOV _builtin_holtek_delay_2,A
 419  0050              ;# 419 "c:\users\h469388\desktop\todo\projects\1_ngb\1_firmware\ngb_low_power_consumption_v3\source\config.c" 1
 419  0050              	MOV A,0
 419  0050              ;# 419 "c:\users\h469388\desktop\todo\projects\1_ngb\1_firmware\ngb_low_power_consumption_v3\source\config.c" 1
 419  0050              	CALL __DELAYY5 +5- (((50-9)%0402h)%6)
 419  0050              	ENDIF
 419  0050              ;# 419 "c:\users\h469388\desktop\todo\projects\1_ngb\1_firmware\ngb_low_power_consumption_v3\source\config.c" 1
 419  0050              	IF (50 >= 0x40b) AND ((((50-9)%0402h)/4+1)<=256)
 419  0050              ;# 419 "c:\users\h469388\desktop\todo\projects\1_ngb\1_firmware\ngb_low_power_consumption_v3\source\config.c" 1
 419  0050              	MOV A,(50-9)/0402h
 419  0050              ;# 419 "c:\users\h469388\desktop\todo\projects\1_ngb\1_firmware\ngb_low_power_consumption_v3\source\config.c" 1
 419  0050              	MOV _builtin_holtek_delay_2,A
 419  0050              ;# 419 "c:\users\h469388\desktop\todo\projects\1_ngb\1_firmware\ngb_low_power_consumption_v3\source\config.c" 1
 419  0050              	MOV A,((50-9)%0402h)/4+1
 419  0050              ;# 419 "c:\users\h469388\desktop\todo\projects\1_ngb\1_firmware\ngb_low_power_consumption_v3\source\config.c" 1
 419  0050              	CALL __DELAYY3 +3-(((50-9)%0402h)%4)
 419  0050              	ENDIF
 399  0050              #line 399 "c:\users\h469388\desktop\todo\projects\1_ngb\1_firmware\ngb_low_power_consumption_v3\source\config.c"
 399  0050  1F00     E  	clr rb
 399  0051              _L13:
 422  0051              #line 422 "c:\users\h469388\desktop\todo\projects\1_ngb\1_firmware\ngb_low_power_consumption_v3\source\config.c"
 422  0051  1838        	rla [56]
 422  0052  0E01        	and a,1
 422  0053  0080     E  	mov rd,a
"File: config.c      Assembler  Version HGASM0202      Page 15

 423  0054              #line 423 "c:\users\h469388\desktop\todo\projects\1_ngb\1_firmware\ngb_low_power_consumption_v3\source\config.c"
 423  0054  15B9        	dec [57]
 424  0055              #line 424 "c:\users\h469388\desktop\todo\projects\1_ngb\1_firmware\ngb_low_power_consumption_v3\source\config.c"
 424  0055  1480     E  	inc rb
 425  0056              #line 425 "c:\users\h469388\desktop\todo\projects\1_ngb\1_firmware\ngb_low_power_consumption_v3\source\config.c"
 425  0056              ;# 425 "c:\users\h469388\desktop\todo\projects\1_ngb\1_firmware\ngb_low_power_consumption_v3\source\config.c" 1
 425  0056              	IF 50>263690
 425  0056              ;# 425 "c:\users\h469388\desktop\todo\projects\1_ngb\1_firmware\ngb_low_power_consumption_v3\source\config.c" 1
 425  0056              	ERRMESSAGE 'the value 50of the argument exceeds the maxinum 263690'
 425  0056              	ENDIF
 425  0056              ;# 425 "c:\users\h469388\desktop\todo\projects\1_ngb\1_firmware\ngb_low_power_consumption_v3\source\config.c" 1
 425  0056              	IF 50<0
 425  0056              ;# 425 "c:\users\h469388\desktop\todo\projects\1_ngb\1_firmware\ngb_low_power_consumption_v3\source\config.c" 1
 425  0056              	ERRMESSAGE 'the value 50 of the argument exceeds the mininum 0'
 425  0056              	ENDIF
 425  0056              ;# 425 "c:\users\h469388\desktop\todo\projects\1_ngb\1_firmware\ngb_low_power_consumption_v3\source\config.c" 1
 425  0056              	IF 50==0
 425  0056              ;# 425 "c:\users\h469388\desktop\todo\projects\1_ngb\1_firmware\ngb_low_power_consumption_v3\source\config.c" 1
 425  0056              	JMP $
 425  0056              	ENDIF
 425  0056              ;# 425 "c:\users\h469388\desktop\todo\projects\1_ngb\1_firmware\ngb_low_power_consumption_v3\source\config.c" 1
 425  0056              	IF 50==1
 425  0056              ;# 425 "c:\users\h469388\desktop\todo\projects\1_ngb\1_firmware\ngb_low_power_consumption_v3\source\config.c" 1
 425  0056              	NOP
 425  0056              	ENDIF
 425  0056              ;# 425 "c:\users\h469388\desktop\todo\projects\1_ngb\1_firmware\ngb_low_power_consumption_v3\source\config.c" 1
 425  0056              	IF 50==2
 425  0056              ;# 425 "c:\users\h469388\desktop\todo\projects\1_ngb\1_firmware\ngb_low_power_consumption_v3\source\config.c" 1
 425  0056              	NOP
 425  0056              ;# 425 "c:\users\h469388\desktop\todo\projects\1_ngb\1_firmware\ngb_low_power_consumption_v3\source\config.c" 1
 425  0056              	NOP
 425  0056              	ENDIF
 425  0056              ;# 425 "c:\users\h469388\desktop\todo\projects\1_ngb\1_firmware\ngb_low_power_consumption_v3\source\config.c" 1
 425  0056              	IF 50==3
 425  0056              ;# 425 "c:\users\h469388\desktop\todo\projects\1_ngb\1_firmware\ngb_low_power_consumption_v3\source\config.c" 1
 425  0056              	NOP
 425  0056              ;# 425 "c:\users\h469388\desktop\todo\projects\1_ngb\1_firmware\ngb_low_power_consumption_v3\source\config.c" 1
 425  0056              	NOP
 425  0056              ;# 425 "c:\users\h469388\desktop\todo\projects\1_ngb\1_firmware\ngb_low_power_consumption_v3\source\config.c" 1
 425  0056              	NOP
 425  0056              	ENDIF
 425  0056              ;# 425 "c:\users\h469388\desktop\todo\projects\1_ngb\1_firmware\ngb_low_power_consumption_v3\source\config.c" 1
 425  0056              	IF (50<8) AND (50>3)
 425  0056              ;# 425 "c:\users\h469388\desktop\todo\projects\1_ngb\1_firmware\ngb_low_power_consumption_v3\source\config.c" 1
 425  0056              	CALL __DELAY3 + 7 -50
 425  0056              	ENDIF
 425  0056              ;# 425 "c:\users\h469388\desktop\todo\projects\1_ngb\1_firmware\ngb_low_power_consumption_v3\source\config.c" 1
 425  0056              	IF (50< 0404h) AND (50>7)
 425  0056              ;# 425 "c:\users\h469388\desktop\todo\projects\1_ngb\1_firmware\ngb_low_power_consumption_v3\source\config.c" 1
 425  0056  0F0B        	MOV A,50/4-1
 425  0057              ;# 425 "c:\users\h469388\desktop\todo\projects\1_ngb\1_firmware\ngb_low_power_consumption_v3\source\config.c" 1
 425  0057  2000     E  	CALL __DELAYX3 + 3 -(50 MOD 4)
 425  0058              	ENDIF
 425  0058              ;# 425 "c:\users\h469388\desktop\todo\projects\1_ngb\1_firmware\ngb_low_power_consumption_v3\source\config.c" 1
 425  0058              	IF (50< 0x40B) AND (50> 0403h)
 425  0058              ;# 425 "c:\users\h469388\desktop\todo\projects\1_ngb\1_firmware\ngb_low_power_consumption_v3\source\config.c" 1
 425  0058              	MOV A,0 
 425  0058              ;# 425 "c:\users\h469388\desktop\todo\projects\1_ngb\1_firmware\ngb_low_power_consumption_v3\source\config.c" 1
 425  0058              	CALL __DELAYX6 + 0x40a -50
 425  0058              	ENDIF
"File: config.c      Assembler  Version HGASM0202      Page 16

 425  0058              ;# 425 "c:\users\h469388\desktop\todo\projects\1_ngb\1_firmware\ngb_low_power_consumption_v3\source\config.c" 1
 425  0058              	IF (50 >= 0x40b) AND ((((50-9)%0402h)/4+1)>256)
 425  0058              ;# 425 "c:\users\h469388\desktop\todo\projects\1_ngb\1_firmware\ngb_low_power_consumption_v3\source\config.c" 1
 425  0058              	MOV A,(50-9)/0402h
 425  0058              ;# 425 "c:\users\h469388\desktop\todo\projects\1_ngb\1_firmware\ngb_low_power_consumption_v3\source\config.c" 1
 425  0058              	MOV _builtin_holtek_delay_2,A
 425  0058              ;# 425 "c:\users\h469388\desktop\todo\projects\1_ngb\1_firmware\ngb_low_power_consumption_v3\source\config.c" 1
 425  0058              	MOV A,0
 425  0058              ;# 425 "c:\users\h469388\desktop\todo\projects\1_ngb\1_firmware\ngb_low_power_consumption_v3\source\config.c" 1
 425  0058              	CALL __DELAYY5 +5- (((50-9)%0402h)%6)
 425  0058              	ENDIF
 425  0058              ;# 425 "c:\users\h469388\desktop\todo\projects\1_ngb\1_firmware\ngb_low_power_consumption_v3\source\config.c" 1
 425  0058              	IF (50 >= 0x40b) AND ((((50-9)%0402h)/4+1)<=256)
 425  0058              ;# 425 "c:\users\h469388\desktop\todo\projects\1_ngb\1_firmware\ngb_low_power_consumption_v3\source\config.c" 1
 425  0058              	MOV A,(50-9)/0402h
 425  0058              ;# 425 "c:\users\h469388\desktop\todo\projects\1_ngb\1_firmware\ngb_low_power_consumption_v3\source\config.c" 1
 425  0058              	MOV _builtin_holtek_delay_2,A
 425  0058              ;# 425 "c:\users\h469388\desktop\todo\projects\1_ngb\1_firmware\ngb_low_power_consumption_v3\source\config.c" 1
 425  0058              	MOV A,((50-9)%0402h)/4+1
 425  0058              ;# 425 "c:\users\h469388\desktop\todo\projects\1_ngb\1_firmware\ngb_low_power_consumption_v3\source\config.c" 1
 425  0058              	CALL __DELAYY3 +3-(((50-9)%0402h)%4)
 425  0058              	ENDIF
 426  0058              #line 426 "c:\users\h469388\desktop\todo\projects\1_ngb\1_firmware\ngb_low_power_consumption_v3\source\config.c"
 426  0058  1838        	rla [56]
 426  0059  0E01        	and a,1
 426  005A  0080     E  	mov rc,a
 427  005B              #line 427 "c:\users\h469388\desktop\todo\projects\1_ngb\1_firmware\ngb_low_power_consumption_v3\source\config.c"
 427  005B  0700     E  	mov a,rd
 427  005C  0200     E  	sub a,rc
 427  005D  390A        	snz z
 427  005E  2800     R  	jmp _L12
 420  005F              #line 420 "c:\users\h469388\desktop\todo\projects\1_ngb\1_firmware\ngb_low_power_consumption_v3\source\config.c"
 420  005F  0700     E  	mov a,rb
 420  0060  0A1F        	sub a,31
 420  0061  390A        	snz z
 420  0062  2800     R  	jmp _L13
 420  0063              _L12:
 432  0063              #line 432 "c:\users\h469388\desktop\todo\projects\1_ngb\1_firmware\ngb_low_power_consumption_v3\source\config.c"
 432  0063  0F1F        	mov a,31
 432  0064  0280     E  	subm a,rb
 434  0065              #line 434 "c:\users\h469388\desktop\todo\projects\1_ngb\1_firmware\ngb_low_power_consumption_v3\source\config.c"
 434  0065  0700     E  	mov a,rb
 434  0066  0380     E  	addm a,ra
 434  0067  1B80     E  	rrc ra
 435  0068              #line 435 "c:\users\h469388\desktop\todo\projects\1_ngb\1_firmware\ngb_low_power_consumption_v3\source\config.c"
 435  0068  0700     E  	mov a,ra
 435  0069  00B9        	mov [57],a
 435  006A  0003        	ret
 435  006B              _PltCaliCmp endp
 435  006B              #line 435 "c:\users\h469388\desktop\todo\projects\1_ngb\1_firmware\ngb_low_power_consumption_v3\source\config.c"
 435  006B              #pragma debug scope 1 1
 435  006B              ___ifs0 equ [80]
 435  006B              ___ptmc0 equ [82]
 435  006B              ___ptmc1 equ [83]
 435  006B              ___ptmc2 equ [84]
 435  006B              ___intc2 equ [74]
 435  006B              public _PtmInit
 435  006B              #pragma debug scope 5 1
 443  006B              #line 443 "c:\users\h469388\desktop\todo\projects\1_ngb\1_firmware\ngb_low_power_consumption_v3\source\config.c"
 443  0000              _PtmInit .section 'code'
"File: config.c      Assembler  Version HGASM0202      Page 17

 443  0000              _PtmInit proc
 445  0000              #line 445 "c:\users\h469388\desktop\todo\projects\1_ngb\1_firmware\ngb_low_power_consumption_v3\source\config.c"
 445  0000  0F3F        	mov a,63
 445  0001  06D0        	andm a,[80]
 447  0002              #line 447 "c:\users\h469388\desktop\todo\projects\1_ngb\1_firmware\ngb_low_power_consumption_v3\source\config.c"
 447  0002  0F20        	mov a,32
 447  0003  00D2        	mov [82],a
 448  0004              #line 448 "c:\users\h469388\desktop\todo\projects\1_ngb\1_firmware\ngb_low_power_consumption_v3\source\config.c"
 448  0004  0F60        	mov a,96
 448  0005  00D3        	mov [83],a
 449  0006              #line 449 "c:\users\h469388\desktop\todo\projects\1_ngb\1_firmware\ngb_low_power_consumption_v3\source\config.c"
 449  0006  0F06        	mov a,6
 449  0007  00D4        	mov [84],a
 453  0008              #line 453 "c:\users\h469388\desktop\todo\projects\1_ngb\1_firmware\ngb_low_power_consumption_v3\source\config.c"
 453  0008  304A        	set [74].0
 454  0009              #line 454 "c:\users\h469388\desktop\todo\projects\1_ngb\1_firmware\ngb_low_power_consumption_v3\source\config.c"
 454  0009  30CA        	set [74].1
 455  000A              #line 455 "c:\users\h469388\desktop\todo\projects\1_ngb\1_firmware\ngb_low_power_consumption_v3\source\config.c"
 455  000A  31D2        	set [82].3
 455  000B  0003        	ret
 455  000C              _PtmInit endp
 455  000C              #line 455 "c:\users\h469388\desktop\todo\projects\1_ngb\1_firmware\ngb_low_power_consumption_v3\source\config.c"
 455  000C              #pragma debug scope 1 1
 455  000C              ___pltavos equ [60]
 455  000C              public _PltCaliOpa
 455  000C              #pragma debug scope 6 1
 499  000C              #line 499 "c:\users\h469388\desktop\todo\projects\1_ngb\1_firmware\ngb_low_power_consumption_v3\source\config.c"
 499  0000              _PltCaliOpa .section 'code'
 499  0000              _PltCaliOpa proc
 503  0000              #line 503 "c:\users\h469388\desktop\todo\projects\1_ngb\1_firmware\ngb_low_power_consumption_v3\source\config.c"
 503  0000  0FC0        	mov a,192
 503  0001  00BC        	mov [60],a
 504  0002              #line 504 "c:\users\h469388\desktop\todo\projects\1_ngb\1_firmware\ngb_low_power_consumption_v3\source\config.c"
 504  0002              ;# 504 "c:\users\h469388\desktop\todo\projects\1_ngb\1_firmware\ngb_low_power_consumption_v3\source\config.c" 1
 504  0002              	IF 25>263690
 504  0002              ;# 504 "c:\users\h469388\desktop\todo\projects\1_ngb\1_firmware\ngb_low_power_consumption_v3\source\config.c" 1
 504  0002              	ERRMESSAGE 'the value 25of the argument exceeds the maxinum 263690'
 504  0002              	ENDIF
 504  0002              ;# 504 "c:\users\h469388\desktop\todo\projects\1_ngb\1_firmware\ngb_low_power_consumption_v3\source\config.c" 1
 504  0002              	IF 25<0
 504  0002              ;# 504 "c:\users\h469388\desktop\todo\projects\1_ngb\1_firmware\ngb_low_power_consumption_v3\source\config.c" 1
 504  0002              	ERRMESSAGE 'the value 25 of the argument exceeds the mininum 0'
 504  0002              	ENDIF
 504  0002              ;# 504 "c:\users\h469388\desktop\todo\projects\1_ngb\1_firmware\ngb_low_power_consumption_v3\source\config.c" 1
 504  0002              	IF 25==0
 504  0002              ;# 504 "c:\users\h469388\desktop\todo\projects\1_ngb\1_firmware\ngb_low_power_consumption_v3\source\config.c" 1
 504  0002              	JMP $
 504  0002              	ENDIF
 504  0002              ;# 504 "c:\users\h469388\desktop\todo\projects\1_ngb\1_firmware\ngb_low_power_consumption_v3\source\config.c" 1
 504  0002              	IF 25==1
 504  0002              ;# 504 "c:\users\h469388\desktop\todo\projects\1_ngb\1_firmware\ngb_low_power_consumption_v3\source\config.c" 1
 504  0002              	NOP
 504  0002              	ENDIF
 504  0002              ;# 504 "c:\users\h469388\desktop\todo\projects\1_ngb\1_firmware\ngb_low_power_consumption_v3\source\config.c" 1
 504  0002              	IF 25==2
 504  0002              ;# 504 "c:\users\h469388\desktop\todo\projects\1_ngb\1_firmware\ngb_low_power_consumption_v3\source\config.c" 1
 504  0002              	NOP
 504  0002              ;# 504 "c:\users\h469388\desktop\todo\projects\1_ngb\1_firmware\ngb_low_power_consumption_v3\source\config.c" 1
 504  0002              	NOP
 504  0002              	ENDIF
"File: config.c      Assembler  Version HGASM0202      Page 18

 504  0002              ;# 504 "c:\users\h469388\desktop\todo\projects\1_ngb\1_firmware\ngb_low_power_consumption_v3\source\config.c" 1
 504  0002              	IF 25==3
 504  0002              ;# 504 "c:\users\h469388\desktop\todo\projects\1_ngb\1_firmware\ngb_low_power_consumption_v3\source\config.c" 1
 504  0002              	NOP
 504  0002              ;# 504 "c:\users\h469388\desktop\todo\projects\1_ngb\1_firmware\ngb_low_power_consumption_v3\source\config.c" 1
 504  0002              	NOP
 504  0002              ;# 504 "c:\users\h469388\desktop\todo\projects\1_ngb\1_firmware\ngb_low_power_consumption_v3\source\config.c" 1
 504  0002              	NOP
 504  0002              	ENDIF
 504  0002              ;# 504 "c:\users\h469388\desktop\todo\projects\1_ngb\1_firmware\ngb_low_power_consumption_v3\source\config.c" 1
 504  0002              	IF (25<8) AND (25>3)
 504  0002              ;# 504 "c:\users\h469388\desktop\todo\projects\1_ngb\1_firmware\ngb_low_power_consumption_v3\source\config.c" 1
 504  0002              	CALL __DELAY3 + 7 -25
 504  0002              	ENDIF
 504  0002              ;# 504 "c:\users\h469388\desktop\todo\projects\1_ngb\1_firmware\ngb_low_power_consumption_v3\source\config.c" 1
 504  0002              	IF (25< 0404h) AND (25>7)
 504  0002              ;# 504 "c:\users\h469388\desktop\todo\projects\1_ngb\1_firmware\ngb_low_power_consumption_v3\source\config.c" 1
 504  0002  0F05        	MOV A,25/4-1
 504  0003              ;# 504 "c:\users\h469388\desktop\todo\projects\1_ngb\1_firmware\ngb_low_power_consumption_v3\source\config.c" 1
 504  0003  2000     E  	CALL __DELAYX3 + 3 -(25 MOD 4)
 504  0004              	ENDIF
 504  0004              ;# 504 "c:\users\h469388\desktop\todo\projects\1_ngb\1_firmware\ngb_low_power_consumption_v3\source\config.c" 1
 504  0004              	IF (25< 0x40B) AND (25> 0403h)
 504  0004              ;# 504 "c:\users\h469388\desktop\todo\projects\1_ngb\1_firmware\ngb_low_power_consumption_v3\source\config.c" 1
 504  0004              	MOV A,0 
 504  0004              ;# 504 "c:\users\h469388\desktop\todo\projects\1_ngb\1_firmware\ngb_low_power_consumption_v3\source\config.c" 1
 504  0004              	CALL __DELAYX6 + 0x40a -25
 504  0004              	ENDIF
 504  0004              ;# 504 "c:\users\h469388\desktop\todo\projects\1_ngb\1_firmware\ngb_low_power_consumption_v3\source\config.c" 1
 504  0004              	IF (25 >= 0x40b) AND ((((25-9)%0402h)/4+1)>256)
 504  0004              ;# 504 "c:\users\h469388\desktop\todo\projects\1_ngb\1_firmware\ngb_low_power_consumption_v3\source\config.c" 1
 504  0004              	MOV A,(25-9)/0402h
 504  0004              ;# 504 "c:\users\h469388\desktop\todo\projects\1_ngb\1_firmware\ngb_low_power_consumption_v3\source\config.c" 1
 504  0004              	MOV _builtin_holtek_delay_2,A
 504  0004              ;# 504 "c:\users\h469388\desktop\todo\projects\1_ngb\1_firmware\ngb_low_power_consumption_v3\source\config.c" 1
 504  0004              	MOV A,0
 504  0004              ;# 504 "c:\users\h469388\desktop\todo\projects\1_ngb\1_firmware\ngb_low_power_consumption_v3\source\config.c" 1
 504  0004              	CALL __DELAYY5 +5- (((25-9)%0402h)%6)
 504  0004              	ENDIF
 504  0004              ;# 504 "c:\users\h469388\desktop\todo\projects\1_ngb\1_firmware\ngb_low_power_consumption_v3\source\config.c" 1
 504  0004              	IF (25 >= 0x40b) AND ((((25-9)%0402h)/4+1)<=256)
 504  0004              ;# 504 "c:\users\h469388\desktop\todo\projects\1_ngb\1_firmware\ngb_low_power_consumption_v3\source\config.c" 1
 504  0004              	MOV A,(25-9)/0402h
 504  0004              ;# 504 "c:\users\h469388\desktop\todo\projects\1_ngb\1_firmware\ngb_low_power_consumption_v3\source\config.c" 1
 504  0004              	MOV _builtin_holtek_delay_2,A
 504  0004              ;# 504 "c:\users\h469388\desktop\todo\projects\1_ngb\1_firmware\ngb_low_power_consumption_v3\source\config.c" 1
 504  0004              	MOV A,((25-9)%0402h)/4+1
 504  0004              ;# 504 "c:\users\h469388\desktop\todo\projects\1_ngb\1_firmware\ngb_low_power_consumption_v3\source\config.c" 1
 504  0004              	CALL __DELAYY3 +3-(((25-9)%0402h)%4)
 504  0004              	ENDIF
 500  0004              #line 500 "c:\users\h469388\desktop\todo\projects\1_ngb\1_firmware\ngb_low_power_consumption_v3\source\config.c"
 500  0004  1F00     E  	clr ra
 500  0005              _L29:
 507  0005              #line 507 "c:\users\h469388\desktop\todo\projects\1_ngb\1_firmware\ngb_low_power_consumption_v3\source\config.c"
 507  0005  1F00     E  	clr rc
 507  0006  3EBB        	sz [59].5
 507  0007  1480     E  	inc rc
 508  0008              #line 508 "c:\users\h469388\desktop\todo\projects\1_ngb\1_firmware\ngb_low_power_consumption_v3\source\config.c"
 508  0008  14BC        	inc [60]
 509  0009              #line 509 "c:\users\h469388\desktop\todo\projects\1_ngb\1_firmware\ngb_low_power_consumption_v3\source\config.c"
"File: config.c      Assembler  Version HGASM0202      Page 19

 509  0009  1480     E  	inc ra
 510  000A              #line 510 "c:\users\h469388\desktop\todo\projects\1_ngb\1_firmware\ngb_low_power_consumption_v3\source\config.c"
 510  000A              ;# 510 "c:\users\h469388\desktop\todo\projects\1_ngb\1_firmware\ngb_low_power_consumption_v3\source\config.c" 1
 510  000A              	IF 25>263690
 510  000A              ;# 510 "c:\users\h469388\desktop\todo\projects\1_ngb\1_firmware\ngb_low_power_consumption_v3\source\config.c" 1
 510  000A              	ERRMESSAGE 'the value 25of the argument exceeds the maxinum 263690'
 510  000A              	ENDIF
 510  000A              ;# 510 "c:\users\h469388\desktop\todo\projects\1_ngb\1_firmware\ngb_low_power_consumption_v3\source\config.c" 1
 510  000A              	IF 25<0
 510  000A              ;# 510 "c:\users\h469388\desktop\todo\projects\1_ngb\1_firmware\ngb_low_power_consumption_v3\source\config.c" 1
 510  000A              	ERRMESSAGE 'the value 25 of the argument exceeds the mininum 0'
 510  000A              	ENDIF
 510  000A              ;# 510 "c:\users\h469388\desktop\todo\projects\1_ngb\1_firmware\ngb_low_power_consumption_v3\source\config.c" 1
 510  000A              	IF 25==0
 510  000A              ;# 510 "c:\users\h469388\desktop\todo\projects\1_ngb\1_firmware\ngb_low_power_consumption_v3\source\config.c" 1
 510  000A              	JMP $
 510  000A              	ENDIF
 510  000A              ;# 510 "c:\users\h469388\desktop\todo\projects\1_ngb\1_firmware\ngb_low_power_consumption_v3\source\config.c" 1
 510  000A              	IF 25==1
 510  000A              ;# 510 "c:\users\h469388\desktop\todo\projects\1_ngb\1_firmware\ngb_low_power_consumption_v3\source\config.c" 1
 510  000A              	NOP
 510  000A              	ENDIF
 510  000A              ;# 510 "c:\users\h469388\desktop\todo\projects\1_ngb\1_firmware\ngb_low_power_consumption_v3\source\config.c" 1
 510  000A              	IF 25==2
 510  000A              ;# 510 "c:\users\h469388\desktop\todo\projects\1_ngb\1_firmware\ngb_low_power_consumption_v3\source\config.c" 1
 510  000A              	NOP
 510  000A              ;# 510 "c:\users\h469388\desktop\todo\projects\1_ngb\1_firmware\ngb_low_power_consumption_v3\source\config.c" 1
 510  000A              	NOP
 510  000A              	ENDIF
 510  000A              ;# 510 "c:\users\h469388\desktop\todo\projects\1_ngb\1_firmware\ngb_low_power_consumption_v3\source\config.c" 1
 510  000A              	IF 25==3
 510  000A              ;# 510 "c:\users\h469388\desktop\todo\projects\1_ngb\1_firmware\ngb_low_power_consumption_v3\source\config.c" 1
 510  000A              	NOP
 510  000A              ;# 510 "c:\users\h469388\desktop\todo\projects\1_ngb\1_firmware\ngb_low_power_consumption_v3\source\config.c" 1
 510  000A              	NOP
 510  000A              ;# 510 "c:\users\h469388\desktop\todo\projects\1_ngb\1_firmware\ngb_low_power_consumption_v3\source\config.c" 1
 510  000A              	NOP
 510  000A              	ENDIF
 510  000A              ;# 510 "c:\users\h469388\desktop\todo\projects\1_ngb\1_firmware\ngb_low_power_consumption_v3\source\config.c" 1
 510  000A              	IF (25<8) AND (25>3)
 510  000A              ;# 510 "c:\users\h469388\desktop\todo\projects\1_ngb\1_firmware\ngb_low_power_consumption_v3\source\config.c" 1
 510  000A              	CALL __DELAY3 + 7 -25
 510  000A              	ENDIF
 510  000A              ;# 510 "c:\users\h469388\desktop\todo\projects\1_ngb\1_firmware\ngb_low_power_consumption_v3\source\config.c" 1
 510  000A              	IF (25< 0404h) AND (25>7)
 510  000A              ;# 510 "c:\users\h469388\desktop\todo\projects\1_ngb\1_firmware\ngb_low_power_consumption_v3\source\config.c" 1
 510  000A  0F05        	MOV A,25/4-1
 510  000B              ;# 510 "c:\users\h469388\desktop\todo\projects\1_ngb\1_firmware\ngb_low_power_consumption_v3\source\config.c" 1
 510  000B  2000     E  	CALL __DELAYX3 + 3 -(25 MOD 4)
 510  000C              	ENDIF
 510  000C              ;# 510 "c:\users\h469388\desktop\todo\projects\1_ngb\1_firmware\ngb_low_power_consumption_v3\source\config.c" 1
 510  000C              	IF (25< 0x40B) AND (25> 0403h)
 510  000C              ;# 510 "c:\users\h469388\desktop\todo\projects\1_ngb\1_firmware\ngb_low_power_consumption_v3\source\config.c" 1
 510  000C              	MOV A,0 
 510  000C              ;# 510 "c:\users\h469388\desktop\todo\projects\1_ngb\1_firmware\ngb_low_power_consumption_v3\source\config.c" 1
 510  000C              	CALL __DELAYX6 + 0x40a -25
 510  000C              	ENDIF
 510  000C              ;# 510 "c:\users\h469388\desktop\todo\projects\1_ngb\1_firmware\ngb_low_power_consumption_v3\source\config.c" 1
 510  000C              	IF (25 >= 0x40b) AND ((((25-9)%0402h)/4+1)>256)
 510  000C              ;# 510 "c:\users\h469388\desktop\todo\projects\1_ngb\1_firmware\ngb_low_power_consumption_v3\source\config.c" 1
"File: config.c      Assembler  Version HGASM0202      Page 20

 510  000C              	MOV A,(25-9)/0402h
 510  000C              ;# 510 "c:\users\h469388\desktop\todo\projects\1_ngb\1_firmware\ngb_low_power_consumption_v3\source\config.c" 1
 510  000C              	MOV _builtin_holtek_delay_2,A
 510  000C              ;# 510 "c:\users\h469388\desktop\todo\projects\1_ngb\1_firmware\ngb_low_power_consumption_v3\source\config.c" 1
 510  000C              	MOV A,0
 510  000C              ;# 510 "c:\users\h469388\desktop\todo\projects\1_ngb\1_firmware\ngb_low_power_consumption_v3\source\config.c" 1
 510  000C              	CALL __DELAYY5 +5- (((25-9)%0402h)%6)
 510  000C              	ENDIF
 510  000C              ;# 510 "c:\users\h469388\desktop\todo\projects\1_ngb\1_firmware\ngb_low_power_consumption_v3\source\config.c" 1
 510  000C              	IF (25 >= 0x40b) AND ((((25-9)%0402h)/4+1)<=256)
 510  000C              ;# 510 "c:\users\h469388\desktop\todo\projects\1_ngb\1_firmware\ngb_low_power_consumption_v3\source\config.c" 1
 510  000C              	MOV A,(25-9)/0402h
 510  000C              ;# 510 "c:\users\h469388\desktop\todo\projects\1_ngb\1_firmware\ngb_low_power_consumption_v3\source\config.c" 1
 510  000C              	MOV _builtin_holtek_delay_2,A
 510  000C              ;# 510 "c:\users\h469388\desktop\todo\projects\1_ngb\1_firmware\ngb_low_power_consumption_v3\source\config.c" 1
 510  000C              	MOV A,((25-9)%0402h)/4+1
 510  000C              ;# 510 "c:\users\h469388\desktop\todo\projects\1_ngb\1_firmware\ngb_low_power_consumption_v3\source\config.c" 1
 510  000C              	CALL __DELAYY3 +3-(((25-9)%0402h)%4)
 510  000C              	ENDIF
 511  000C              #line 511 "c:\users\h469388\desktop\todo\projects\1_ngb\1_firmware\ngb_low_power_consumption_v3\source\config.c"
 511  000C  1F00     E  	clr rb
 511  000D  3EBB        	sz [59].5
 511  000E  1480     E  	inc rb
 512  000F              #line 512 "c:\users\h469388\desktop\todo\projects\1_ngb\1_firmware\ngb_low_power_consumption_v3\source\config.c"
 512  000F  0700     E  	mov a,rc
 512  0010  0200     E  	sub a,rb
 512  0011  390A        	snz z
 512  0012  2800     R  	jmp _L28
 505  0013              #line 505 "c:\users\h469388\desktop\todo\projects\1_ngb\1_firmware\ngb_low_power_consumption_v3\source\config.c"
 505  0013  0700     E  	mov a,ra
 505  0014  0A3F        	sub a,63
 505  0015  390A        	snz z
 505  0016  2800     R  	jmp _L29
 505  0017              _L28:
 518  0017              #line 518 "c:\users\h469388\desktop\todo\projects\1_ngb\1_firmware\ngb_low_power_consumption_v3\source\config.c"
 518  0017  1FBC        	set [60]
 519  0018              #line 519 "c:\users\h469388\desktop\todo\projects\1_ngb\1_firmware\ngb_low_power_consumption_v3\source\config.c"
 519  0018              ;# 519 "c:\users\h469388\desktop\todo\projects\1_ngb\1_firmware\ngb_low_power_consumption_v3\source\config.c" 1
 519  0018              	IF 25>263690
 519  0018              ;# 519 "c:\users\h469388\desktop\todo\projects\1_ngb\1_firmware\ngb_low_power_consumption_v3\source\config.c" 1
 519  0018              	ERRMESSAGE 'the value 25of the argument exceeds the maxinum 263690'
 519  0018              	ENDIF
 519  0018              ;# 519 "c:\users\h469388\desktop\todo\projects\1_ngb\1_firmware\ngb_low_power_consumption_v3\source\config.c" 1
 519  0018              	IF 25<0
 519  0018              ;# 519 "c:\users\h469388\desktop\todo\projects\1_ngb\1_firmware\ngb_low_power_consumption_v3\source\config.c" 1
 519  0018              	ERRMESSAGE 'the value 25 of the argument exceeds the mininum 0'
 519  0018              	ENDIF
 519  0018              ;# 519 "c:\users\h469388\desktop\todo\projects\1_ngb\1_firmware\ngb_low_power_consumption_v3\source\config.c" 1
 519  0018              	IF 25==0
 519  0018              ;# 519 "c:\users\h469388\desktop\todo\projects\1_ngb\1_firmware\ngb_low_power_consumption_v3\source\config.c" 1
 519  0018              	JMP $
 519  0018              	ENDIF
 519  0018              ;# 519 "c:\users\h469388\desktop\todo\projects\1_ngb\1_firmware\ngb_low_power_consumption_v3\source\config.c" 1
 519  0018              	IF 25==1
 519  0018              ;# 519 "c:\users\h469388\desktop\todo\projects\1_ngb\1_firmware\ngb_low_power_consumption_v3\source\config.c" 1
 519  0018              	NOP
 519  0018              	ENDIF
 519  0018              ;# 519 "c:\users\h469388\desktop\todo\projects\1_ngb\1_firmware\ngb_low_power_consumption_v3\source\config.c" 1
 519  0018              	IF 25==2
 519  0018              ;# 519 "c:\users\h469388\desktop\todo\projects\1_ngb\1_firmware\ngb_low_power_consumption_v3\source\config.c" 1
"File: config.c      Assembler  Version HGASM0202      Page 21

 519  0018              	NOP
 519  0018              ;# 519 "c:\users\h469388\desktop\todo\projects\1_ngb\1_firmware\ngb_low_power_consumption_v3\source\config.c" 1
 519  0018              	NOP
 519  0018              	ENDIF
 519  0018              ;# 519 "c:\users\h469388\desktop\todo\projects\1_ngb\1_firmware\ngb_low_power_consumption_v3\source\config.c" 1
 519  0018              	IF 25==3
 519  0018              ;# 519 "c:\users\h469388\desktop\todo\projects\1_ngb\1_firmware\ngb_low_power_consumption_v3\source\config.c" 1
 519  0018              	NOP
 519  0018              ;# 519 "c:\users\h469388\desktop\todo\projects\1_ngb\1_firmware\ngb_low_power_consumption_v3\source\config.c" 1
 519  0018              	NOP
 519  0018              ;# 519 "c:\users\h469388\desktop\todo\projects\1_ngb\1_firmware\ngb_low_power_consumption_v3\source\config.c" 1
 519  0018              	NOP
 519  0018              	ENDIF
 519  0018              ;# 519 "c:\users\h469388\desktop\todo\projects\1_ngb\1_firmware\ngb_low_power_consumption_v3\source\config.c" 1
 519  0018              	IF (25<8) AND (25>3)
 519  0018              ;# 519 "c:\users\h469388\desktop\todo\projects\1_ngb\1_firmware\ngb_low_power_consumption_v3\source\config.c" 1
 519  0018              	CALL __DELAY3 + 7 -25
 519  0018              	ENDIF
 519  0018              ;# 519 "c:\users\h469388\desktop\todo\projects\1_ngb\1_firmware\ngb_low_power_consumption_v3\source\config.c" 1
 519  0018              	IF (25< 0404h) AND (25>7)
 519  0018              ;# 519 "c:\users\h469388\desktop\todo\projects\1_ngb\1_firmware\ngb_low_power_consumption_v3\source\config.c" 1
 519  0018  0F05        	MOV A,25/4-1
 519  0019              ;# 519 "c:\users\h469388\desktop\todo\projects\1_ngb\1_firmware\ngb_low_power_consumption_v3\source\config.c" 1
 519  0019  2000     E  	CALL __DELAYX3 + 3 -(25 MOD 4)
 519  001A              	ENDIF
 519  001A              ;# 519 "c:\users\h469388\desktop\todo\projects\1_ngb\1_firmware\ngb_low_power_consumption_v3\source\config.c" 1
 519  001A              	IF (25< 0x40B) AND (25> 0403h)
 519  001A              ;# 519 "c:\users\h469388\desktop\todo\projects\1_ngb\1_firmware\ngb_low_power_consumption_v3\source\config.c" 1
 519  001A              	MOV A,0 
 519  001A              ;# 519 "c:\users\h469388\desktop\todo\projects\1_ngb\1_firmware\ngb_low_power_consumption_v3\source\config.c" 1
 519  001A              	CALL __DELAYX6 + 0x40a -25
 519  001A              	ENDIF
 519  001A              ;# 519 "c:\users\h469388\desktop\todo\projects\1_ngb\1_firmware\ngb_low_power_consumption_v3\source\config.c" 1
 519  001A              	IF (25 >= 0x40b) AND ((((25-9)%0402h)/4+1)>256)
 519  001A              ;# 519 "c:\users\h469388\desktop\todo\projects\1_ngb\1_firmware\ngb_low_power_consumption_v3\source\config.c" 1
 519  001A              	MOV A,(25-9)/0402h
 519  001A              ;# 519 "c:\users\h469388\desktop\todo\projects\1_ngb\1_firmware\ngb_low_power_consumption_v3\source\config.c" 1
 519  001A              	MOV _builtin_holtek_delay_2,A
 519  001A              ;# 519 "c:\users\h469388\desktop\todo\projects\1_ngb\1_firmware\ngb_low_power_consumption_v3\source\config.c" 1
 519  001A              	MOV A,0
 519  001A              ;# 519 "c:\users\h469388\desktop\todo\projects\1_ngb\1_firmware\ngb_low_power_consumption_v3\source\config.c" 1
 519  001A              	CALL __DELAYY5 +5- (((25-9)%0402h)%6)
 519  001A              	ENDIF
 519  001A              ;# 519 "c:\users\h469388\desktop\todo\projects\1_ngb\1_firmware\ngb_low_power_consumption_v3\source\config.c" 1
 519  001A              	IF (25 >= 0x40b) AND ((((25-9)%0402h)/4+1)<=256)
 519  001A              ;# 519 "c:\users\h469388\desktop\todo\projects\1_ngb\1_firmware\ngb_low_power_consumption_v3\source\config.c" 1
 519  001A              	MOV A,(25-9)/0402h
 519  001A              ;# 519 "c:\users\h469388\desktop\todo\projects\1_ngb\1_firmware\ngb_low_power_consumption_v3\source\config.c" 1
 519  001A              	MOV _builtin_holtek_delay_2,A
 519  001A              ;# 519 "c:\users\h469388\desktop\todo\projects\1_ngb\1_firmware\ngb_low_power_consumption_v3\source\config.c" 1
 519  001A              	MOV A,((25-9)%0402h)/4+1
 519  001A              ;# 519 "c:\users\h469388\desktop\todo\projects\1_ngb\1_firmware\ngb_low_power_consumption_v3\source\config.c" 1
 519  001A              	CALL __DELAYY3 +3-(((25-9)%0402h)%4)
 519  001A              	ENDIF
 500  001A              #line 500 "c:\users\h469388\desktop\todo\projects\1_ngb\1_firmware\ngb_low_power_consumption_v3\source\config.c"
 500  001A  1F00     E  	clr rb
 500  001B              _L31:
 522  001B              #line 522 "c:\users\h469388\desktop\todo\projects\1_ngb\1_firmware\ngb_low_power_consumption_v3\source\config.c"
 522  001B  1F00     E  	clr rd
 522  001C  3EBB        	sz [59].5
"File: config.c      Assembler  Version HGASM0202      Page 22

 522  001D  1480     E  	inc rd
 523  001E              #line 523 "c:\users\h469388\desktop\todo\projects\1_ngb\1_firmware\ngb_low_power_consumption_v3\source\config.c"
 523  001E  15BC        	dec [60]
 524  001F              #line 524 "c:\users\h469388\desktop\todo\projects\1_ngb\1_firmware\ngb_low_power_consumption_v3\source\config.c"
 524  001F  1480     E  	inc rb
 525  0020              #line 525 "c:\users\h469388\desktop\todo\projects\1_ngb\1_firmware\ngb_low_power_consumption_v3\source\config.c"
 525  0020              ;# 525 "c:\users\h469388\desktop\todo\projects\1_ngb\1_firmware\ngb_low_power_consumption_v3\source\config.c" 1
 525  0020              	IF 25>263690
 525  0020              ;# 525 "c:\users\h469388\desktop\todo\projects\1_ngb\1_firmware\ngb_low_power_consumption_v3\source\config.c" 1
 525  0020              	ERRMESSAGE 'the value 25of the argument exceeds the maxinum 263690'
 525  0020              	ENDIF
 525  0020              ;# 525 "c:\users\h469388\desktop\todo\projects\1_ngb\1_firmware\ngb_low_power_consumption_v3\source\config.c" 1
 525  0020              	IF 25<0
 525  0020              ;# 525 "c:\users\h469388\desktop\todo\projects\1_ngb\1_firmware\ngb_low_power_consumption_v3\source\config.c" 1
 525  0020              	ERRMESSAGE 'the value 25 of the argument exceeds the mininum 0'
 525  0020              	ENDIF
 525  0020              ;# 525 "c:\users\h469388\desktop\todo\projects\1_ngb\1_firmware\ngb_low_power_consumption_v3\source\config.c" 1
 525  0020              	IF 25==0
 525  0020              ;# 525 "c:\users\h469388\desktop\todo\projects\1_ngb\1_firmware\ngb_low_power_consumption_v3\source\config.c" 1
 525  0020              	JMP $
 525  0020              	ENDIF
 525  0020              ;# 525 "c:\users\h469388\desktop\todo\projects\1_ngb\1_firmware\ngb_low_power_consumption_v3\source\config.c" 1
 525  0020              	IF 25==1
 525  0020              ;# 525 "c:\users\h469388\desktop\todo\projects\1_ngb\1_firmware\ngb_low_power_consumption_v3\source\config.c" 1
 525  0020              	NOP
 525  0020              	ENDIF
 525  0020              ;# 525 "c:\users\h469388\desktop\todo\projects\1_ngb\1_firmware\ngb_low_power_consumption_v3\source\config.c" 1
 525  0020              	IF 25==2
 525  0020              ;# 525 "c:\users\h469388\desktop\todo\projects\1_ngb\1_firmware\ngb_low_power_consumption_v3\source\config.c" 1
 525  0020              	NOP
 525  0020              ;# 525 "c:\users\h469388\desktop\todo\projects\1_ngb\1_firmware\ngb_low_power_consumption_v3\source\config.c" 1
 525  0020              	NOP
 525  0020              	ENDIF
 525  0020              ;# 525 "c:\users\h469388\desktop\todo\projects\1_ngb\1_firmware\ngb_low_power_consumption_v3\source\config.c" 1
 525  0020              	IF 25==3
 525  0020              ;# 525 "c:\users\h469388\desktop\todo\projects\1_ngb\1_firmware\ngb_low_power_consumption_v3\source\config.c" 1
 525  0020              	NOP
 525  0020              ;# 525 "c:\users\h469388\desktop\todo\projects\1_ngb\1_firmware\ngb_low_power_consumption_v3\source\config.c" 1
 525  0020              	NOP
 525  0020              ;# 525 "c:\users\h469388\desktop\todo\projects\1_ngb\1_firmware\ngb_low_power_consumption_v3\source\config.c" 1
 525  0020              	NOP
 525  0020              	ENDIF
 525  0020              ;# 525 "c:\users\h469388\desktop\todo\projects\1_ngb\1_firmware\ngb_low_power_consumption_v3\source\config.c" 1
 525  0020              	IF (25<8) AND (25>3)
 525  0020              ;# 525 "c:\users\h469388\desktop\todo\projects\1_ngb\1_firmware\ngb_low_power_consumption_v3\source\config.c" 1
 525  0020              	CALL __DELAY3 + 7 -25
 525  0020              	ENDIF
 525  0020              ;# 525 "c:\users\h469388\desktop\todo\projects\1_ngb\1_firmware\ngb_low_power_consumption_v3\source\config.c" 1
 525  0020              	IF (25< 0404h) AND (25>7)
 525  0020              ;# 525 "c:\users\h469388\desktop\todo\projects\1_ngb\1_firmware\ngb_low_power_consumption_v3\source\config.c" 1
 525  0020  0F05        	MOV A,25/4-1
 525  0021              ;# 525 "c:\users\h469388\desktop\todo\projects\1_ngb\1_firmware\ngb_low_power_consumption_v3\source\config.c" 1
 525  0021  2000     E  	CALL __DELAYX3 + 3 -(25 MOD 4)
 525  0022              	ENDIF
 525  0022              ;# 525 "c:\users\h469388\desktop\todo\projects\1_ngb\1_firmware\ngb_low_power_consumption_v3\source\config.c" 1
 525  0022              	IF (25< 0x40B) AND (25> 0403h)
 525  0022              ;# 525 "c:\users\h469388\desktop\todo\projects\1_ngb\1_firmware\ngb_low_power_consumption_v3\source\config.c" 1
 525  0022              	MOV A,0 
 525  0022              ;# 525 "c:\users\h469388\desktop\todo\projects\1_ngb\1_firmware\ngb_low_power_consumption_v3\source\config.c" 1
 525  0022              	CALL __DELAYX6 + 0x40a -25
"File: config.c      Assembler  Version HGASM0202      Page 23

 525  0022              	ENDIF
 525  0022              ;# 525 "c:\users\h469388\desktop\todo\projects\1_ngb\1_firmware\ngb_low_power_consumption_v3\source\config.c" 1
 525  0022              	IF (25 >= 0x40b) AND ((((25-9)%0402h)/4+1)>256)
 525  0022              ;# 525 "c:\users\h469388\desktop\todo\projects\1_ngb\1_firmware\ngb_low_power_consumption_v3\source\config.c" 1
 525  0022              	MOV A,(25-9)/0402h
 525  0022              ;# 525 "c:\users\h469388\desktop\todo\projects\1_ngb\1_firmware\ngb_low_power_consumption_v3\source\config.c" 1
 525  0022              	MOV _builtin_holtek_delay_2,A
 525  0022              ;# 525 "c:\users\h469388\desktop\todo\projects\1_ngb\1_firmware\ngb_low_power_consumption_v3\source\config.c" 1
 525  0022              	MOV A,0
 525  0022              ;# 525 "c:\users\h469388\desktop\todo\projects\1_ngb\1_firmware\ngb_low_power_consumption_v3\source\config.c" 1
 525  0022              	CALL __DELAYY5 +5- (((25-9)%0402h)%6)
 525  0022              	ENDIF
 525  0022              ;# 525 "c:\users\h469388\desktop\todo\projects\1_ngb\1_firmware\ngb_low_power_consumption_v3\source\config.c" 1
 525  0022              	IF (25 >= 0x40b) AND ((((25-9)%0402h)/4+1)<=256)
 525  0022              ;# 525 "c:\users\h469388\desktop\todo\projects\1_ngb\1_firmware\ngb_low_power_consumption_v3\source\config.c" 1
 525  0022              	MOV A,(25-9)/0402h
 525  0022              ;# 525 "c:\users\h469388\desktop\todo\projects\1_ngb\1_firmware\ngb_low_power_consumption_v3\source\config.c" 1
 525  0022              	MOV _builtin_holtek_delay_2,A
 525  0022              ;# 525 "c:\users\h469388\desktop\todo\projects\1_ngb\1_firmware\ngb_low_power_consumption_v3\source\config.c" 1
 525  0022              	MOV A,((25-9)%0402h)/4+1
 525  0022              ;# 525 "c:\users\h469388\desktop\todo\projects\1_ngb\1_firmware\ngb_low_power_consumption_v3\source\config.c" 1
 525  0022              	CALL __DELAYY3 +3-(((25-9)%0402h)%4)
 525  0022              	ENDIF
 526  0022              #line 526 "c:\users\h469388\desktop\todo\projects\1_ngb\1_firmware\ngb_low_power_consumption_v3\source\config.c"
 526  0022  1F00     E  	clr rc
 526  0023  3EBB        	sz [59].5
 526  0024  1480     E  	inc rc
 527  0025              #line 527 "c:\users\h469388\desktop\todo\projects\1_ngb\1_firmware\ngb_low_power_consumption_v3\source\config.c"
 527  0025  0700     E  	mov a,rd
 527  0026  0200     E  	sub a,rc
 527  0027  390A        	snz z
 527  0028  2800     R  	jmp _L30
 520  0029              #line 520 "c:\users\h469388\desktop\todo\projects\1_ngb\1_firmware\ngb_low_power_consumption_v3\source\config.c"
 520  0029  0700     E  	mov a,rb
 520  002A  0A3F        	sub a,63
 520  002B  390A        	snz z
 520  002C  2800     R  	jmp _L31
 520  002D              _L30:
 532  002D              #line 532 "c:\users\h469388\desktop\todo\projects\1_ngb\1_firmware\ngb_low_power_consumption_v3\source\config.c"
 532  002D  0F3F        	mov a,63
 532  002E  0280     E  	subm a,rb
 534  002F              #line 534 "c:\users\h469388\desktop\todo\projects\1_ngb\1_firmware\ngb_low_power_consumption_v3\source\config.c"
 534  002F  0700     E  	mov a,rb
 534  0030  0380     E  	addm a,ra
 534  0031  1B80     E  	rrc ra
 535  0032              #line 535 "c:\users\h469388\desktop\todo\projects\1_ngb\1_firmware\ngb_low_power_consumption_v3\source\config.c"
 535  0032  0700     E  	mov a,ra
 535  0033  00BC        	mov [60],a
 535  0034  0003        	ret
 535  0035              _PltCaliOpa endp
 535  0035              #line 535 "c:\users\h469388\desktop\todo\projects\1_ngb\1_firmware\ngb_low_power_consumption_v3\source\config.c"
 535  0035              #pragma debug scope 1 1
 535  0035              public _PltOpaSwitchOff
 535  0035              #pragma debug scope 7 1
 551  0035              #line 551 "c:\users\h469388\desktop\todo\projects\1_ngb\1_firmware\ngb_low_power_consumption_v3\source\config.c"
 551  0000              _PltOpaSwitchOff .section 'code'
 551  0000              _PltOpaSwitchOff proc
 553  0000              #line 553 "c:\users\h469388\desktop\todo\projects\1_ngb\1_firmware\ngb_low_power_consumption_v3\source\config.c"
 553  0000  1F35        	clr [53]
 555  0001              #line 555 "c:\users\h469388\desktop\todo\projects\1_ngb\1_firmware\ngb_low_power_consumption_v3\source\config.c"
"File: config.c      Assembler  Version HGASM0202      Page 24

 555  0001  3431        	clr [49].0
 556  0002              #line 556 "c:\users\h469388\desktop\todo\projects\1_ngb\1_firmware\ngb_low_power_consumption_v3\source\config.c"
 556  0002  3532        	clr [50].2
 557  0003              #line 557 "c:\users\h469388\desktop\todo\projects\1_ngb\1_firmware\ngb_low_power_consumption_v3\source\config.c"
 557  0003  373B        	clr [59].6
 557  0004  0003        	ret
 557  0005              _PltOpaSwitchOff endp
 557  0005              #line 557 "c:\users\h469388\desktop\todo\projects\1_ngb\1_firmware\ngb_low_power_consumption_v3\source\config.c"
 557  0005              #pragma debug scope 1 1
 557  0005              public _SdOpaSwitch
 557  0005              #pragma debug scope 8 1
 732  0005              #line 732 "c:\users\h469388\desktop\todo\projects\1_ngb\1_firmware\ngb_low_power_consumption_v3\source\config.c"
 732  0000              _SdOpaSwitch .section 'code'
 732  0000              _SdOpaSwitch proc
 732  0000  00              local _SdOpaSwitch_2 db 1 dup(?)	; 0,1
 732  0000  0080     E  	mov ra,a
 732  0001  0080     R  	mov _SdOpaSwitch_2[0],a
 732  0002              #pragma debug variable 8 8 _SdOpaSwitch_2+0 "Flag"
 733  0002              #line 733 "c:\users\h469388\desktop\todo\projects\1_ngb\1_firmware\ngb_low_power_consumption_v3\source\config.c"
 733  0002  1080     E  	sz ra
 733  0003  2800     R  	jmp _L40
 736  0004              #line 736 "c:\users\h469388\desktop\todo\projects\1_ngb\1_firmware\ngb_low_power_consumption_v3\source\config.c"
 736  0004  3420        	clr [32].0
 737  0005              #line 737 "c:\users\h469388\desktop\todo\projects\1_ngb\1_firmware\ngb_low_power_consumption_v3\source\config.c"
 737  0005  3723        	clr [35].6
 738  0006              #line 738 "c:\users\h469388\desktop\todo\projects\1_ngb\1_firmware\ngb_low_power_consumption_v3\source\config.c"
 738  0006  3725        	clr [37].6
 738  0007  2800     R  	jmp _L39
 738  0008              _L40:
 738  0008              #pragma debug scope 9 8
 738  0008              ;begin block, line: 738.-1
 738  0008              #pragma debug scope 10 9
 738  0008              ;begin block, line: 738.-1
 743  0008              #line 743 "c:\users\h469388\desktop\todo\projects\1_ngb\1_firmware\ngb_low_power_consumption_v3\source\config.c"
 743  0008  3020        	set [32].0
 744  0009              #line 744 "c:\users\h469388\desktop\todo\projects\1_ngb\1_firmware\ngb_low_power_consumption_v3\source\config.c"
 744  0009  3323        	set [35].6
 745  000A              #line 745 "c:\users\h469388\desktop\todo\projects\1_ngb\1_firmware\ngb_low_power_consumption_v3\source\config.c"
 745  000A              ;# 745 "c:\users\h469388\desktop\todo\projects\1_ngb\1_firmware\ngb_low_power_consumption_v3\source\config.c" 1
 745  000A              	IF 2000>263690
 745  000A              ;# 745 "c:\users\h469388\desktop\todo\projects\1_ngb\1_firmware\ngb_low_power_consumption_v3\source\config.c" 1
 745  000A              	ERRMESSAGE 'the value 2000of the argument exceeds the maxinum 263690'
 745  000A              	ENDIF
 745  000A              ;# 745 "c:\users\h469388\desktop\todo\projects\1_ngb\1_firmware\ngb_low_power_consumption_v3\source\config.c" 1
 745  000A              	IF 2000<0
 745  000A              ;# 745 "c:\users\h469388\desktop\todo\projects\1_ngb\1_firmware\ngb_low_power_consumption_v3\source\config.c" 1
 745  000A              	ERRMESSAGE 'the value 2000 of the argument exceeds the mininum 0'
 745  000A              	ENDIF
 745  000A              ;# 745 "c:\users\h469388\desktop\todo\projects\1_ngb\1_firmware\ngb_low_power_consumption_v3\source\config.c" 1
 745  000A              	IF 2000==0
 745  000A              ;# 745 "c:\users\h469388\desktop\todo\projects\1_ngb\1_firmware\ngb_low_power_consumption_v3\source\config.c" 1
 745  000A              	JMP $
 745  000A              	ENDIF
 745  000A              ;# 745 "c:\users\h469388\desktop\todo\projects\1_ngb\1_firmware\ngb_low_power_consumption_v3\source\config.c" 1
 745  000A              	IF 2000==1
 745  000A              ;# 745 "c:\users\h469388\desktop\todo\projects\1_ngb\1_firmware\ngb_low_power_consumption_v3\source\config.c" 1
 745  000A              	NOP
 745  000A              	ENDIF
 745  000A              ;# 745 "c:\users\h469388\desktop\todo\projects\1_ngb\1_firmware\ngb_low_power_consumption_v3\source\config.c" 1
 745  000A              	IF 2000==2
"File: config.c      Assembler  Version HGASM0202      Page 25

 745  000A              ;# 745 "c:\users\h469388\desktop\todo\projects\1_ngb\1_firmware\ngb_low_power_consumption_v3\source\config.c" 1
 745  000A              	NOP
 745  000A              ;# 745 "c:\users\h469388\desktop\todo\projects\1_ngb\1_firmware\ngb_low_power_consumption_v3\source\config.c" 1
 745  000A              	NOP
 745  000A              	ENDIF
 745  000A              ;# 745 "c:\users\h469388\desktop\todo\projects\1_ngb\1_firmware\ngb_low_power_consumption_v3\source\config.c" 1
 745  000A              	IF 2000==3
 745  000A              ;# 745 "c:\users\h469388\desktop\todo\projects\1_ngb\1_firmware\ngb_low_power_consumption_v3\source\config.c" 1
 745  000A              	NOP
 745  000A              ;# 745 "c:\users\h469388\desktop\todo\projects\1_ngb\1_firmware\ngb_low_power_consumption_v3\source\config.c" 1
 745  000A              	NOP
 745  000A              ;# 745 "c:\users\h469388\desktop\todo\projects\1_ngb\1_firmware\ngb_low_power_consumption_v3\source\config.c" 1
 745  000A              	NOP
 745  000A              	ENDIF
 745  000A              ;# 745 "c:\users\h469388\desktop\todo\projects\1_ngb\1_firmware\ngb_low_power_consumption_v3\source\config.c" 1
 745  000A              	IF (2000<8) AND (2000>3)
 745  000A              ;# 745 "c:\users\h469388\desktop\todo\projects\1_ngb\1_firmware\ngb_low_power_consumption_v3\source\config.c" 1
 745  000A              	CALL __DELAY3 + 7 -2000
 745  000A              	ENDIF
 745  000A              ;# 745 "c:\users\h469388\desktop\todo\projects\1_ngb\1_firmware\ngb_low_power_consumption_v3\source\config.c" 1
 745  000A              	IF (2000< 0404h) AND (2000>7)
 745  000A              ;# 745 "c:\users\h469388\desktop\todo\projects\1_ngb\1_firmware\ngb_low_power_consumption_v3\source\config.c" 1
 745  000A              	MOV A,2000/4-1
 745  000A              ;# 745 "c:\users\h469388\desktop\todo\projects\1_ngb\1_firmware\ngb_low_power_consumption_v3\source\config.c" 1
 745  000A              	CALL __DELAYX3 + 3 -(2000 MOD 4)
 745  000A              	ENDIF
 745  000A              ;# 745 "c:\users\h469388\desktop\todo\projects\1_ngb\1_firmware\ngb_low_power_consumption_v3\source\config.c" 1
 745  000A              	IF (2000< 0x40B) AND (2000> 0403h)
 745  000A              ;# 745 "c:\users\h469388\desktop\todo\projects\1_ngb\1_firmware\ngb_low_power_consumption_v3\source\config.c" 1
 745  000A              	MOV A,0 
 745  000A              ;# 745 "c:\users\h469388\desktop\todo\projects\1_ngb\1_firmware\ngb_low_power_consumption_v3\source\config.c" 1
 745  000A              	CALL __DELAYX6 + 0x40a -2000
 745  000A              	ENDIF
 745  000A              ;# 745 "c:\users\h469388\desktop\todo\projects\1_ngb\1_firmware\ngb_low_power_consumption_v3\source\config.c" 1
 745  000A              	IF (2000 >= 0x40b) AND ((((2000-9)%0402h)/4+1)>256)
 745  000A              ;# 745 "c:\users\h469388\desktop\todo\projects\1_ngb\1_firmware\ngb_low_power_consumption_v3\source\config.c" 1
 745  000A              	MOV A,(2000-9)/0402h
 745  000A              ;# 745 "c:\users\h469388\desktop\todo\projects\1_ngb\1_firmware\ngb_low_power_consumption_v3\source\config.c" 1
 745  000A              	MOV _builtin_holtek_delay_2,A
 745  000A              ;# 745 "c:\users\h469388\desktop\todo\projects\1_ngb\1_firmware\ngb_low_power_consumption_v3\source\config.c" 1
 745  000A              	MOV A,0
 745  000A              ;# 745 "c:\users\h469388\desktop\todo\projects\1_ngb\1_firmware\ngb_low_power_consumption_v3\source\config.c" 1
 745  000A              	CALL __DELAYY5 +5- (((2000-9)%0402h)%6)
 745  000A              	ENDIF
 745  000A              ;# 745 "c:\users\h469388\desktop\todo\projects\1_ngb\1_firmware\ngb_low_power_consumption_v3\source\config.c" 1
 745  000A              	IF (2000 >= 0x40b) AND ((((2000-9)%0402h)/4+1)<=256)
 745  000A              ;# 745 "c:\users\h469388\desktop\todo\projects\1_ngb\1_firmware\ngb_low_power_consumption_v3\source\config.c" 1
 745  000A  0F01        	MOV A,(2000-9)/0402h
 745  000B              ;# 745 "c:\users\h469388\desktop\todo\projects\1_ngb\1_firmware\ngb_low_power_consumption_v3\source\config.c" 1
 745  000B  0080     E  	MOV _builtin_holtek_delay_2,A
 745  000C              ;# 745 "c:\users\h469388\desktop\todo\projects\1_ngb\1_firmware\ngb_low_power_consumption_v3\source\config.c" 1
 745  000C  0FF2        	MOV A,((2000-9)%0402h)/4+1
 745  000D              ;# 745 "c:\users\h469388\desktop\todo\projects\1_ngb\1_firmware\ngb_low_power_consumption_v3\source\config.c" 1
 745  000D  2000     E  	CALL __DELAYY3 +3-(((2000-9)%0402h)%4)
 745  000E              	ENDIF
 746  000E              #line 746 "c:\users\h469388\desktop\todo\projects\1_ngb\1_firmware\ngb_low_power_consumption_v3\source\config.c"
 746  000E  3325        	set [37].6
 747  000F              #line 747 "c:\users\h469388\desktop\todo\projects\1_ngb\1_firmware\ngb_low_power_consumption_v3\source\config.c"
 747  000F              ;# 747 "c:\users\h469388\desktop\todo\projects\1_ngb\1_firmware\ngb_low_power_consumption_v3\source\config.c" 1
 747  000F              	IF 2000>263690
"File: config.c      Assembler  Version HGASM0202      Page 26

 747  000F              ;# 747 "c:\users\h469388\desktop\todo\projects\1_ngb\1_firmware\ngb_low_power_consumption_v3\source\config.c" 1
 747  000F              	ERRMESSAGE 'the value 2000of the argument exceeds the maxinum 263690'
 747  000F              	ENDIF
 747  000F              ;# 747 "c:\users\h469388\desktop\todo\projects\1_ngb\1_firmware\ngb_low_power_consumption_v3\source\config.c" 1
 747  000F              	IF 2000<0
 747  000F              ;# 747 "c:\users\h469388\desktop\todo\projects\1_ngb\1_firmware\ngb_low_power_consumption_v3\source\config.c" 1
 747  000F              	ERRMESSAGE 'the value 2000 of the argument exceeds the mininum 0'
 747  000F              	ENDIF
 747  000F              ;# 747 "c:\users\h469388\desktop\todo\projects\1_ngb\1_firmware\ngb_low_power_consumption_v3\source\config.c" 1
 747  000F              	IF 2000==0
 747  000F              ;# 747 "c:\users\h469388\desktop\todo\projects\1_ngb\1_firmware\ngb_low_power_consumption_v3\source\config.c" 1
 747  000F              	JMP $
 747  000F              	ENDIF
 747  000F              ;# 747 "c:\users\h469388\desktop\todo\projects\1_ngb\1_firmware\ngb_low_power_consumption_v3\source\config.c" 1
 747  000F              	IF 2000==1
 747  000F              ;# 747 "c:\users\h469388\desktop\todo\projects\1_ngb\1_firmware\ngb_low_power_consumption_v3\source\config.c" 1
 747  000F              	NOP
 747  000F              	ENDIF
 747  000F              ;# 747 "c:\users\h469388\desktop\todo\projects\1_ngb\1_firmware\ngb_low_power_consumption_v3\source\config.c" 1
 747  000F              	IF 2000==2
 747  000F              ;# 747 "c:\users\h469388\desktop\todo\projects\1_ngb\1_firmware\ngb_low_power_consumption_v3\source\config.c" 1
 747  000F              	NOP
 747  000F              ;# 747 "c:\users\h469388\desktop\todo\projects\1_ngb\1_firmware\ngb_low_power_consumption_v3\source\config.c" 1
 747  000F              	NOP
 747  000F              	ENDIF
 747  000F              ;# 747 "c:\users\h469388\desktop\todo\projects\1_ngb\1_firmware\ngb_low_power_consumption_v3\source\config.c" 1
 747  000F              	IF 2000==3
 747  000F              ;# 747 "c:\users\h469388\desktop\todo\projects\1_ngb\1_firmware\ngb_low_power_consumption_v3\source\config.c" 1
 747  000F              	NOP
 747  000F              ;# 747 "c:\users\h469388\desktop\todo\projects\1_ngb\1_firmware\ngb_low_power_consumption_v3\source\config.c" 1
 747  000F              	NOP
 747  000F              ;# 747 "c:\users\h469388\desktop\todo\projects\1_ngb\1_firmware\ngb_low_power_consumption_v3\source\config.c" 1
 747  000F              	NOP
 747  000F              	ENDIF
 747  000F              ;# 747 "c:\users\h469388\desktop\todo\projects\1_ngb\1_firmware\ngb_low_power_consumption_v3\source\config.c" 1
 747  000F              	IF (2000<8) AND (2000>3)
 747  000F              ;# 747 "c:\users\h469388\desktop\todo\projects\1_ngb\1_firmware\ngb_low_power_consumption_v3\source\config.c" 1
 747  000F              	CALL __DELAY3 + 7 -2000
 747  000F              	ENDIF
 747  000F              ;# 747 "c:\users\h469388\desktop\todo\projects\1_ngb\1_firmware\ngb_low_power_consumption_v3\source\config.c" 1
 747  000F              	IF (2000< 0404h) AND (2000>7)
 747  000F              ;# 747 "c:\users\h469388\desktop\todo\projects\1_ngb\1_firmware\ngb_low_power_consumption_v3\source\config.c" 1
 747  000F              	MOV A,2000/4-1
 747  000F              ;# 747 "c:\users\h469388\desktop\todo\projects\1_ngb\1_firmware\ngb_low_power_consumption_v3\source\config.c" 1
 747  000F              	CALL __DELAYX3 + 3 -(2000 MOD 4)
 747  000F              	ENDIF
 747  000F              ;# 747 "c:\users\h469388\desktop\todo\projects\1_ngb\1_firmware\ngb_low_power_consumption_v3\source\config.c" 1
 747  000F              	IF (2000< 0x40B) AND (2000> 0403h)
 747  000F              ;# 747 "c:\users\h469388\desktop\todo\projects\1_ngb\1_firmware\ngb_low_power_consumption_v3\source\config.c" 1
 747  000F              	MOV A,0 
 747  000F              ;# 747 "c:\users\h469388\desktop\todo\projects\1_ngb\1_firmware\ngb_low_power_consumption_v3\source\config.c" 1
 747  000F              	CALL __DELAYX6 + 0x40a -2000
 747  000F              	ENDIF
 747  000F              ;# 747 "c:\users\h469388\desktop\todo\projects\1_ngb\1_firmware\ngb_low_power_consumption_v3\source\config.c" 1
 747  000F              	IF (2000 >= 0x40b) AND ((((2000-9)%0402h)/4+1)>256)
 747  000F              ;# 747 "c:\users\h469388\desktop\todo\projects\1_ngb\1_firmware\ngb_low_power_consumption_v3\source\config.c" 1
 747  000F              	MOV A,(2000-9)/0402h
 747  000F              ;# 747 "c:\users\h469388\desktop\todo\projects\1_ngb\1_firmware\ngb_low_power_consumption_v3\source\config.c" 1
 747  000F              	MOV _builtin_holtek_delay_2,A
 747  000F              ;# 747 "c:\users\h469388\desktop\todo\projects\1_ngb\1_firmware\ngb_low_power_consumption_v3\source\config.c" 1
"File: config.c      Assembler  Version HGASM0202      Page 27

 747  000F              	MOV A,0
 747  000F              ;# 747 "c:\users\h469388\desktop\todo\projects\1_ngb\1_firmware\ngb_low_power_consumption_v3\source\config.c" 1
 747  000F              	CALL __DELAYY5 +5- (((2000-9)%0402h)%6)
 747  000F              	ENDIF
 747  000F              ;# 747 "c:\users\h469388\desktop\todo\projects\1_ngb\1_firmware\ngb_low_power_consumption_v3\source\config.c" 1
 747  000F              	IF (2000 >= 0x40b) AND ((((2000-9)%0402h)/4+1)<=256)
 747  000F              ;# 747 "c:\users\h469388\desktop\todo\projects\1_ngb\1_firmware\ngb_low_power_consumption_v3\source\config.c" 1
 747  000F  0F01        	MOV A,(2000-9)/0402h
 747  0010              ;# 747 "c:\users\h469388\desktop\todo\projects\1_ngb\1_firmware\ngb_low_power_consumption_v3\source\config.c" 1
 747  0010  0080     E  	MOV _builtin_holtek_delay_2,A
 747  0011              ;# 747 "c:\users\h469388\desktop\todo\projects\1_ngb\1_firmware\ngb_low_power_consumption_v3\source\config.c" 1
 747  0011  0FF2        	MOV A,((2000-9)%0402h)/4+1
 747  0012              ;# 747 "c:\users\h469388\desktop\todo\projects\1_ngb\1_firmware\ngb_low_power_consumption_v3\source\config.c" 1
 747  0012  2000     E  	CALL __DELAYY3 +3-(((2000-9)%0402h)%4)
 747  0013              	ENDIF
 747  0013              _L39:
 747  0013              #pragma debug scope 9 8
 747  0013              #pragma debug scope 8 1
 747  0013  0003        	ret
 747  0014              _SdOpaSwitch endp
 747  0014              #line 747 "c:\users\h469388\desktop\todo\projects\1_ngb\1_firmware\ngb_low_power_consumption_v3\source\config.c"
 747  0014              #pragma debug scope 1 1
 747  0014              ___intc0 equ [72]
 747  0014              ___status equ [10]
 747  0014              ___wdtc equ [61]
 747  0014              ___hircc equ [19]
 747  0014              ___scc equ [18]
 747  0014              ___pa equ [20]
 747  0014              ___pac equ [21]
 747  0014              ___papu equ [22]
 747  0014              ___pawu equ [23]
 747  0014              ___pas0 equ [76]
 747  0014              ___pas1 equ [77]
 747  0014              ___pb equ [24]
 747  0014              ___pbc equ [25]
 747  0014              ___pbpu equ [26]
 747  0014              ___sledc equ [27]
 747  0014              ___isgenc equ [93]
 747  0014              ___isgdata0 equ [94]
 747  0014              ___isgdata1 equ [95]
 747  0014              ___sda0vos equ [36]
 747  0014              ___sda1vos equ [38]
 747  0014              ___pscr equ [29]
 747  0014              ___tb0c equ [16]
 747  0014              ___tb1c equ [17]
 747  0014              ___intc3 equ [75]
 747  0014              public _SystemInit
 747  0014              #pragma debug scope 11 1
  25  0014              #line 25 "c:\users\h469388\desktop\todo\projects\1_ngb\1_firmware\ngb_low_power_consumption_v3\source\config.c"
  25  0000              _SystemInit .section 'code'
  25  0000              _SystemInit proc
  27  0000              #line 27 "c:\users\h469388\desktop\todo\projects\1_ngb\1_firmware\ngb_low_power_consumption_v3\source\config.c"
  27  0000  3448        	clr [72].0
  31  0001              #line 31 "c:\users\h469388\desktop\todo\projects\1_ngb\1_firmware\ngb_low_power_consumption_v3\source\config.c"
  31  0001  3E0A        	sz [10].4
  31  0002  2800     R  	jmp _L43
  31  0003              #line 31 "c:\users\h469388\desktop\todo\projects\1_ngb\1_firmware\ngb_low_power_consumption_v3\source\config.c"
  31  0003  3E8A        	sz [10].5
  31  0004  2800     R  	jmp _L43
  34  0005              #line 34 "c:\users\h469388\desktop\todo\projects\1_ngb\1_firmware\ngb_low_power_consumption_v3\source\config.c"
"File: config.c      Assembler  Version HGASM0202      Page 28

  34  0005  0F56        	mov a,86
  34  0006  00BD        	mov [61],a
  34  0007              _L43:
  41  0007              #line 41 "c:\users\h469388\desktop\todo\projects\1_ngb\1_firmware\ngb_low_power_consumption_v3\source\config.c"
  41  0007  0F05        	mov a,5
  41  0008  0093        	mov [19],a
  41  0009              _L45:
  45  0009              #line 45 "c:\users\h469388\desktop\todo\projects\1_ngb\1_firmware\ngb_low_power_consumption_v3\source\config.c"
  45  0009  3893        	snz [19].1
  45  000A  2800     R  	jmp _L45
  48  000B              #line 48 "c:\users\h469388\desktop\todo\projects\1_ngb\1_firmware\ngb_low_power_consumption_v3\source\config.c"
  48  000B  0F01        	mov a,1
  48  000C  0092        	mov [18],a
  61  000D              #line 61 "c:\users\h469388\desktop\todo\projects\1_ngb\1_firmware\ngb_low_power_consumption_v3\source\config.c"
  61  000D  1F14        	clr [20]
  62  000E              #line 62 "c:\users\h469388\desktop\todo\projects\1_ngb\1_firmware\ngb_low_power_consumption_v3\source\config.c"
  62  000E  1F15        	clr [21]
  63  000F              #line 63 "c:\users\h469388\desktop\todo\projects\1_ngb\1_firmware\ngb_low_power_consumption_v3\source\config.c"
  63  000F  1F16        	clr [22]
  64  0010              #line 64 "c:\users\h469388\desktop\todo\projects\1_ngb\1_firmware\ngb_low_power_consumption_v3\source\config.c"
  64  0010  1F17        	clr [23]
  65  0011              #line 65 "c:\users\h469388\desktop\todo\projects\1_ngb\1_firmware\ngb_low_power_consumption_v3\source\config.c"
  65  0011  1F4C        	clr [76]
  66  0012              #line 66 "c:\users\h469388\desktop\todo\projects\1_ngb\1_firmware\ngb_low_power_consumption_v3\source\config.c"
  66  0012  1F4D        	clr [77]
  73  0013              #line 73 "c:\users\h469388\desktop\todo\projects\1_ngb\1_firmware\ngb_low_power_consumption_v3\source\config.c"
  73  0013  1F18        	clr [24]
  74  0014              #line 74 "c:\users\h469388\desktop\todo\projects\1_ngb\1_firmware\ngb_low_power_consumption_v3\source\config.c"
  74  0014  1F19        	clr [25]
  75  0015              #line 75 "c:\users\h469388\desktop\todo\projects\1_ngb\1_firmware\ngb_low_power_consumption_v3\source\config.c"
  75  0015  1F1A        	clr [26]
  76  0016              #line 76 "c:\users\h469388\desktop\todo\projects\1_ngb\1_firmware\ngb_low_power_consumption_v3\source\config.c"
  76  0016  0F54        	mov a,84
  76  0017  00CE        	mov [78],a
  79  0018              #line 79 "c:\users\h469388\desktop\todo\projects\1_ngb\1_firmware\ngb_low_power_consumption_v3\source\config.c"
  79  0018  1F1B        	clr [27]
  82  0019              #line 82 "c:\users\h469388\desktop\todo\projects\1_ngb\1_firmware\ngb_low_power_consumption_v3\source\config.c"
  82  0019  1F5D        	clr [93]
  85  001A              #line 85 "c:\users\h469388\desktop\todo\projects\1_ngb\1_firmware\ngb_low_power_consumption_v3\source\config.c"
  85  001A  0F0B        	mov a,11
  85  001B  00DE        	mov [94],a
  86  001C              #line 86 "c:\users\h469388\desktop\todo\projects\1_ngb\1_firmware\ngb_low_power_consumption_v3\source\config.c"
  86  001C  0F07        	mov a,7
  86  001D  00DF        	mov [95],a
  89  001E              #line 89 "c:\users\h469388\desktop\todo\projects\1_ngb\1_firmware\ngb_low_power_consumption_v3\source\config.c"
  89  001E  1F50        	clr [80]
  95  001F              #line 95 "c:\users\h469388\desktop\todo\projects\1_ngb\1_firmware\ngb_low_power_consumption_v3\source\config.c"
  95  001F  0F22        	mov a,34
  95  0020  00A4        	mov [36],a
  96  0021              #line 96 "c:\users\h469388\desktop\todo\projects\1_ngb\1_firmware\ngb_low_power_consumption_v3\source\config.c"
  96  0021  0F22        	mov a,34
  96  0022  00A6        	mov [38],a
  98  0023              #line 98 "c:\users\h469388\desktop\todo\projects\1_ngb\1_firmware\ngb_low_power_consumption_v3\source\config.c"
  98  0023  1F00     R  	clr _AfeInit_2[2]
  98  0024  0F02        	mov a,2
  98  0025  0080     R  	mov _AfeInit_2[1],a
  98  0026  1F00     R  	clr _AfeInit_2[0]
  98  0027  0F09        	mov a,9
  98  0028  2000     R  	call _AfeInit
 100  0029              #line 100 "c:\users\h469388\desktop\todo\projects\1_ngb\1_firmware\ngb_low_power_consumption_v3\source\config.c"
"File: config.c      Assembler  Version HGASM0202      Page 29

 100  0029  0F00        	mov a,0
 100  002A  2000     R  	call _SdOpaSwitch
 106  002B              #line 106 "c:\users\h469388\desktop\todo\projects\1_ngb\1_firmware\ngb_low_power_consumption_v3\source\config.c"
 106  002B  0F02        	mov a,2
 106  002C  009D        	mov [29],a
 108  002D              #line 108 "c:\users\h469388\desktop\todo\projects\1_ngb\1_firmware\ngb_low_power_consumption_v3\source\config.c"
 108  002D  0F82        	mov a,130
 108  002E  0090        	mov [16],a
 110  002F              #line 110 "c:\users\h469388\desktop\todo\projects\1_ngb\1_firmware\ngb_low_power_consumption_v3\source\config.c"
 110  002F  1F11        	clr [17]
 111  0030              #line 111 "c:\users\h469388\desktop\todo\projects\1_ngb\1_firmware\ngb_low_power_consumption_v3\source\config.c"
 111  0030  304B        	set [75].0
 166  0031              #line 166 "c:\users\h469388\desktop\todo\projects\1_ngb\1_firmware\ngb_low_power_consumption_v3\source\config.c"
 166  0031  2000     R  	call _PltCaliCmp
 167  0032              #line 167 "c:\users\h469388\desktop\todo\projects\1_ngb\1_firmware\ngb_low_power_consumption_v3\source\config.c"
 167  0032  2000     R  	call _PltCaliOpa
 169  0033              #line 169 "c:\users\h469388\desktop\todo\projects\1_ngb\1_firmware\ngb_low_power_consumption_v3\source\config.c"
 169  0033  0F09        	mov a,9
 169  0034  2000     R  	call _PltInit
 171  0035              #line 171 "c:\users\h469388\desktop\todo\projects\1_ngb\1_firmware\ngb_low_power_consumption_v3\source\config.c"
 171  0035  2000     R  	call _PtmInit
 177  0036              #line 177 "c:\users\h469388\desktop\todo\projects\1_ngb\1_firmware\ngb_low_power_consumption_v3\source\config.c"
 177  0036  3648        	clr [72].4
 179  0037              #line 179 "c:\users\h469388\desktop\todo\projects\1_ngb\1_firmware\ngb_low_power_consumption_v3\source\config.c"
 179  0037  31CA        	set [74].3
 179  0038  0003        	ret
 179  0039              _SystemInit endp
 179  0039              #line 179 "c:\users\h469388\desktop\todo\projects\1_ngb\1_firmware\ngb_low_power_consumption_v3\source\config.c"
 179  0039              #pragma debug scope 1 1
 179  0039              public _SdCaliOpa
 179  0039              #pragma debug scope 12 1
 626  0039              #line 626 "c:\users\h469388\desktop\todo\projects\1_ngb\1_firmware\ngb_low_power_consumption_v3\source\config.c"
 626  0000              _SdCaliOpa .section 'code'
 626  0000              _SdCaliOpa proc
 631  0000              #line 631 "c:\users\h469388\desktop\todo\projects\1_ngb\1_firmware\ngb_low_power_consumption_v3\source\config.c"
 631  0000  1F00     E  	clr _FuncData[3]
 633  0001              #line 633 "c:\users\h469388\desktop\todo\projects\1_ngb\1_firmware\ngb_low_power_consumption_v3\source\config.c"
 633  0001  0F03        	mov a,3
 633  0002  00A0        	mov [32],a
 634  0003              #line 634 "c:\users\h469388\desktop\todo\projects\1_ngb\1_firmware\ngb_low_power_consumption_v3\source\config.c"
 634  0003  0F43        	mov a,67
 634  0004  00A3        	mov [35],a
 635  0005              #line 635 "c:\users\h469388\desktop\todo\projects\1_ngb\1_firmware\ngb_low_power_consumption_v3\source\config.c"
 635  0005  0FC0        	mov a,192
 635  0006  00A4        	mov [36],a
 636  0007              #line 636 "c:\users\h469388\desktop\todo\projects\1_ngb\1_firmware\ngb_low_power_consumption_v3\source\config.c"
 636  0007              ;# 636 "c:\users\h469388\desktop\todo\projects\1_ngb\1_firmware\ngb_low_power_consumption_v3\source\config.c" 1
 636  0007              	IF 8>263690
 636  0007              ;# 636 "c:\users\h469388\desktop\todo\projects\1_ngb\1_firmware\ngb_low_power_consumption_v3\source\config.c" 1
 636  0007              	ERRMESSAGE 'the value 8of the argument exceeds the maxinum 263690'
 636  0007              	ENDIF
 636  0007              ;# 636 "c:\users\h469388\desktop\todo\projects\1_ngb\1_firmware\ngb_low_power_consumption_v3\source\config.c" 1
 636  0007              	IF 8<0
 636  0007              ;# 636 "c:\users\h469388\desktop\todo\projects\1_ngb\1_firmware\ngb_low_power_consumption_v3\source\config.c" 1
 636  0007              	ERRMESSAGE 'the value 8 of the argument exceeds the mininum 0'
 636  0007              	ENDIF
 636  0007              ;# 636 "c:\users\h469388\desktop\todo\projects\1_ngb\1_firmware\ngb_low_power_consumption_v3\source\config.c" 1
 636  0007              	IF 8==0
 636  0007              ;# 636 "c:\users\h469388\desktop\todo\projects\1_ngb\1_firmware\ngb_low_power_consumption_v3\source\config.c" 1
 636  0007              	JMP $
"File: config.c      Assembler  Version HGASM0202      Page 30

 636  0007              	ENDIF
 636  0007              ;# 636 "c:\users\h469388\desktop\todo\projects\1_ngb\1_firmware\ngb_low_power_consumption_v3\source\config.c" 1
 636  0007              	IF 8==1
 636  0007              ;# 636 "c:\users\h469388\desktop\todo\projects\1_ngb\1_firmware\ngb_low_power_consumption_v3\source\config.c" 1
 636  0007              	NOP
 636  0007              	ENDIF
 636  0007              ;# 636 "c:\users\h469388\desktop\todo\projects\1_ngb\1_firmware\ngb_low_power_consumption_v3\source\config.c" 1
 636  0007              	IF 8==2
 636  0007              ;# 636 "c:\users\h469388\desktop\todo\projects\1_ngb\1_firmware\ngb_low_power_consumption_v3\source\config.c" 1
 636  0007              	NOP
 636  0007              ;# 636 "c:\users\h469388\desktop\todo\projects\1_ngb\1_firmware\ngb_low_power_consumption_v3\source\config.c" 1
 636  0007              	NOP
 636  0007              	ENDIF
 636  0007              ;# 636 "c:\users\h469388\desktop\todo\projects\1_ngb\1_firmware\ngb_low_power_consumption_v3\source\config.c" 1
 636  0007              	IF 8==3
 636  0007              ;# 636 "c:\users\h469388\desktop\todo\projects\1_ngb\1_firmware\ngb_low_power_consumption_v3\source\config.c" 1
 636  0007              	NOP
 636  0007              ;# 636 "c:\users\h469388\desktop\todo\projects\1_ngb\1_firmware\ngb_low_power_consumption_v3\source\config.c" 1
 636  0007              	NOP
 636  0007              ;# 636 "c:\users\h469388\desktop\todo\projects\1_ngb\1_firmware\ngb_low_power_consumption_v3\source\config.c" 1
 636  0007              	NOP
 636  0007              	ENDIF
 636  0007              ;# 636 "c:\users\h469388\desktop\todo\projects\1_ngb\1_firmware\ngb_low_power_consumption_v3\source\config.c" 1
 636  0007              	IF (8<8) AND (8>3)
 636  0007              ;# 636 "c:\users\h469388\desktop\todo\projects\1_ngb\1_firmware\ngb_low_power_consumption_v3\source\config.c" 1
 636  0007              	CALL __DELAY3 + 7 -8
 636  0007              	ENDIF
 636  0007              ;# 636 "c:\users\h469388\desktop\todo\projects\1_ngb\1_firmware\ngb_low_power_consumption_v3\source\config.c" 1
 636  0007              	IF (8< 0404h) AND (8>7)
 636  0007              ;# 636 "c:\users\h469388\desktop\todo\projects\1_ngb\1_firmware\ngb_low_power_consumption_v3\source\config.c" 1
 636  0007  0F01        	MOV A,8/4-1
 636  0008              ;# 636 "c:\users\h469388\desktop\todo\projects\1_ngb\1_firmware\ngb_low_power_consumption_v3\source\config.c" 1
 636  0008  2000     E  	CALL __DELAYX3 + 3 -(8 MOD 4)
 636  0009              	ENDIF
 636  0009              ;# 636 "c:\users\h469388\desktop\todo\projects\1_ngb\1_firmware\ngb_low_power_consumption_v3\source\config.c" 1
 636  0009              	IF (8< 0x40B) AND (8> 0403h)
 636  0009              ;# 636 "c:\users\h469388\desktop\todo\projects\1_ngb\1_firmware\ngb_low_power_consumption_v3\source\config.c" 1
 636  0009              	MOV A,0 
 636  0009              ;# 636 "c:\users\h469388\desktop\todo\projects\1_ngb\1_firmware\ngb_low_power_consumption_v3\source\config.c" 1
 636  0009              	CALL __DELAYX6 + 0x40a -8
 636  0009              	ENDIF
 636  0009              ;# 636 "c:\users\h469388\desktop\todo\projects\1_ngb\1_firmware\ngb_low_power_consumption_v3\source\config.c" 1
 636  0009              	IF (8 >= 0x40b) AND ((((8-9)%0402h)/4+1)>256)
 636  0009              ;# 636 "c:\users\h469388\desktop\todo\projects\1_ngb\1_firmware\ngb_low_power_consumption_v3\source\config.c" 1
 636  0009              	MOV A,(8-9)/0402h
 636  0009              ;# 636 "c:\users\h469388\desktop\todo\projects\1_ngb\1_firmware\ngb_low_power_consumption_v3\source\config.c" 1
 636  0009              	MOV _builtin_holtek_delay_2,A
 636  0009              ;# 636 "c:\users\h469388\desktop\todo\projects\1_ngb\1_firmware\ngb_low_power_consumption_v3\source\config.c" 1
 636  0009              	MOV A,0
 636  0009              ;# 636 "c:\users\h469388\desktop\todo\projects\1_ngb\1_firmware\ngb_low_power_consumption_v3\source\config.c" 1
 636  0009              	CALL __DELAYY5 +5- (((8-9)%0402h)%6)
 636  0009              	ENDIF
 636  0009              ;# 636 "c:\users\h469388\desktop\todo\projects\1_ngb\1_firmware\ngb_low_power_consumption_v3\source\config.c" 1
 636  0009              	IF (8 >= 0x40b) AND ((((8-9)%0402h)/4+1)<=256)
 636  0009              ;# 636 "c:\users\h469388\desktop\todo\projects\1_ngb\1_firmware\ngb_low_power_consumption_v3\source\config.c" 1
 636  0009              	MOV A,(8-9)/0402h
 636  0009              ;# 636 "c:\users\h469388\desktop\todo\projects\1_ngb\1_firmware\ngb_low_power_consumption_v3\source\config.c" 1
 636  0009              	MOV _builtin_holtek_delay_2,A
 636  0009              ;# 636 "c:\users\h469388\desktop\todo\projects\1_ngb\1_firmware\ngb_low_power_consumption_v3\source\config.c" 1
 636  0009              	MOV A,((8-9)%0402h)/4+1
"File: config.c      Assembler  Version HGASM0202      Page 31

 636  0009              ;# 636 "c:\users\h469388\desktop\todo\projects\1_ngb\1_firmware\ngb_low_power_consumption_v3\source\config.c" 1
 636  0009              	CALL __DELAYY3 +3-(((8-9)%0402h)%4)
 636  0009              	ENDIF
 637  0009              #line 637 "c:\users\h469388\desktop\todo\projects\1_ngb\1_firmware\ngb_low_power_consumption_v3\source\config.c"
 637  0009  1F00     E  	clr rb
 637  000A  3EA3        	sz [35].5
 637  000B  1480     E  	inc rb
 638  000C              #line 638 "c:\users\h469388\desktop\todo\projects\1_ngb\1_firmware\ngb_low_power_consumption_v3\source\config.c"
 638  000C  1F00     E  	clr ra
 638  000D  3EA3        	sz [35].5
 638  000E  1480     E  	inc ra
 638  000F              _L47:
 639  000F              #line 639 "c:\users\h469388\desktop\todo\projects\1_ngb\1_firmware\ngb_low_power_consumption_v3\source\config.c"
 639  000F  0700     E  	mov a,rb
 639  0010  0200     E  	sub a,ra
 639  0011  390A        	snz z
 639  0012  2800     R  	jmp _L51
 641  0013              #line 641 "c:\users\h469388\desktop\todo\projects\1_ngb\1_firmware\ngb_low_power_consumption_v3\source\config.c"
 641  0013  14A4        	inc [36]
 642  0014              #line 642 "c:\users\h469388\desktop\todo\projects\1_ngb\1_firmware\ngb_low_power_consumption_v3\source\config.c"
 642  0014              ;# 642 "c:\users\h469388\desktop\todo\projects\1_ngb\1_firmware\ngb_low_power_consumption_v3\source\config.c" 1
 642  0014  0001        	clr wdt
 643  0015              #line 643 "c:\users\h469388\desktop\todo\projects\1_ngb\1_firmware\ngb_low_power_consumption_v3\source\config.c"
 643  0015              ;# 643 "c:\users\h469388\desktop\todo\projects\1_ngb\1_firmware\ngb_low_power_consumption_v3\source\config.c" 1
 643  0015              	IF 52>263690
 643  0015              ;# 643 "c:\users\h469388\desktop\todo\projects\1_ngb\1_firmware\ngb_low_power_consumption_v3\source\config.c" 1
 643  0015              	ERRMESSAGE 'the value 52of the argument exceeds the maxinum 263690'
 643  0015              	ENDIF
 643  0015              ;# 643 "c:\users\h469388\desktop\todo\projects\1_ngb\1_firmware\ngb_low_power_consumption_v3\source\config.c" 1
 643  0015              	IF 52<0
 643  0015              ;# 643 "c:\users\h469388\desktop\todo\projects\1_ngb\1_firmware\ngb_low_power_consumption_v3\source\config.c" 1
 643  0015              	ERRMESSAGE 'the value 52 of the argument exceeds the mininum 0'
 643  0015              	ENDIF
 643  0015              ;# 643 "c:\users\h469388\desktop\todo\projects\1_ngb\1_firmware\ngb_low_power_consumption_v3\source\config.c" 1
 643  0015              	IF 52==0
 643  0015              ;# 643 "c:\users\h469388\desktop\todo\projects\1_ngb\1_firmware\ngb_low_power_consumption_v3\source\config.c" 1
 643  0015              	JMP $
 643  0015              	ENDIF
 643  0015              ;# 643 "c:\users\h469388\desktop\todo\projects\1_ngb\1_firmware\ngb_low_power_consumption_v3\source\config.c" 1
 643  0015              	IF 52==1
 643  0015              ;# 643 "c:\users\h469388\desktop\todo\projects\1_ngb\1_firmware\ngb_low_power_consumption_v3\source\config.c" 1
 643  0015              	NOP
 643  0015              	ENDIF
 643  0015              ;# 643 "c:\users\h469388\desktop\todo\projects\1_ngb\1_firmware\ngb_low_power_consumption_v3\source\config.c" 1
 643  0015              	IF 52==2
 643  0015              ;# 643 "c:\users\h469388\desktop\todo\projects\1_ngb\1_firmware\ngb_low_power_consumption_v3\source\config.c" 1
 643  0015              	NOP
 643  0015              ;# 643 "c:\users\h469388\desktop\todo\projects\1_ngb\1_firmware\ngb_low_power_consumption_v3\source\config.c" 1
 643  0015              	NOP
 643  0015              	ENDIF
 643  0015              ;# 643 "c:\users\h469388\desktop\todo\projects\1_ngb\1_firmware\ngb_low_power_consumption_v3\source\config.c" 1
 643  0015              	IF 52==3
 643  0015              ;# 643 "c:\users\h469388\desktop\todo\projects\1_ngb\1_firmware\ngb_low_power_consumption_v3\source\config.c" 1
 643  0015              	NOP
 643  0015              ;# 643 "c:\users\h469388\desktop\todo\projects\1_ngb\1_firmware\ngb_low_power_consumption_v3\source\config.c" 1
 643  0015              	NOP
 643  0015              ;# 643 "c:\users\h469388\desktop\todo\projects\1_ngb\1_firmware\ngb_low_power_consumption_v3\source\config.c" 1
 643  0015              	NOP
 643  0015              	ENDIF
 643  0015              ;# 643 "c:\users\h469388\desktop\todo\projects\1_ngb\1_firmware\ngb_low_power_consumption_v3\source\config.c" 1
"File: config.c      Assembler  Version HGASM0202      Page 32

 643  0015              	IF (52<8) AND (52>3)
 643  0015              ;# 643 "c:\users\h469388\desktop\todo\projects\1_ngb\1_firmware\ngb_low_power_consumption_v3\source\config.c" 1
 643  0015              	CALL __DELAY3 + 7 -52
 643  0015              	ENDIF
 643  0015              ;# 643 "c:\users\h469388\desktop\todo\projects\1_ngb\1_firmware\ngb_low_power_consumption_v3\source\config.c" 1
 643  0015              	IF (52< 0404h) AND (52>7)
 643  0015              ;# 643 "c:\users\h469388\desktop\todo\projects\1_ngb\1_firmware\ngb_low_power_consumption_v3\source\config.c" 1
 643  0015  0F0C        	MOV A,52/4-1
 643  0016              ;# 643 "c:\users\h469388\desktop\todo\projects\1_ngb\1_firmware\ngb_low_power_consumption_v3\source\config.c" 1
 643  0016  2000     E  	CALL __DELAYX3 + 3 -(52 MOD 4)
 643  0017              	ENDIF
 643  0017              ;# 643 "c:\users\h469388\desktop\todo\projects\1_ngb\1_firmware\ngb_low_power_consumption_v3\source\config.c" 1
 643  0017              	IF (52< 0x40B) AND (52> 0403h)
 643  0017              ;# 643 "c:\users\h469388\desktop\todo\projects\1_ngb\1_firmware\ngb_low_power_consumption_v3\source\config.c" 1
 643  0017              	MOV A,0 
 643  0017              ;# 643 "c:\users\h469388\desktop\todo\projects\1_ngb\1_firmware\ngb_low_power_consumption_v3\source\config.c" 1
 643  0017              	CALL __DELAYX6 + 0x40a -52
 643  0017              	ENDIF
 643  0017              ;# 643 "c:\users\h469388\desktop\todo\projects\1_ngb\1_firmware\ngb_low_power_consumption_v3\source\config.c" 1
 643  0017              	IF (52 >= 0x40b) AND ((((52-9)%0402h)/4+1)>256)
 643  0017              ;# 643 "c:\users\h469388\desktop\todo\projects\1_ngb\1_firmware\ngb_low_power_consumption_v3\source\config.c" 1
 643  0017              	MOV A,(52-9)/0402h
 643  0017              ;# 643 "c:\users\h469388\desktop\todo\projects\1_ngb\1_firmware\ngb_low_power_consumption_v3\source\config.c" 1
 643  0017              	MOV _builtin_holtek_delay_2,A
 643  0017              ;# 643 "c:\users\h469388\desktop\todo\projects\1_ngb\1_firmware\ngb_low_power_consumption_v3\source\config.c" 1
 643  0017              	MOV A,0
 643  0017              ;# 643 "c:\users\h469388\desktop\todo\projects\1_ngb\1_firmware\ngb_low_power_consumption_v3\source\config.c" 1
 643  0017              	CALL __DELAYY5 +5- (((52-9)%0402h)%6)
 643  0017              	ENDIF
 643  0017              ;# 643 "c:\users\h469388\desktop\todo\projects\1_ngb\1_firmware\ngb_low_power_consumption_v3\source\config.c" 1
 643  0017              	IF (52 >= 0x40b) AND ((((52-9)%0402h)/4+1)<=256)
 643  0017              ;# 643 "c:\users\h469388\desktop\todo\projects\1_ngb\1_firmware\ngb_low_power_consumption_v3\source\config.c" 1
 643  0017              	MOV A,(52-9)/0402h
 643  0017              ;# 643 "c:\users\h469388\desktop\todo\projects\1_ngb\1_firmware\ngb_low_power_consumption_v3\source\config.c" 1
 643  0017              	MOV _builtin_holtek_delay_2,A
 643  0017              ;# 643 "c:\users\h469388\desktop\todo\projects\1_ngb\1_firmware\ngb_low_power_consumption_v3\source\config.c" 1
 643  0017              	MOV A,((52-9)%0402h)/4+1
 643  0017              ;# 643 "c:\users\h469388\desktop\todo\projects\1_ngb\1_firmware\ngb_low_power_consumption_v3\source\config.c" 1
 643  0017              	CALL __DELAYY3 +3-(((52-9)%0402h)%4)
 643  0017              	ENDIF
 644  0017              #line 644 "c:\users\h469388\desktop\todo\projects\1_ngb\1_firmware\ngb_low_power_consumption_v3\source\config.c"
 644  0017  1F00     E  	clr ra
 644  0018  3EA3        	sz [35].5
 644  0019  1480     E  	inc ra
 645  001A              #line 645 "c:\users\h469388\desktop\todo\projects\1_ngb\1_firmware\ngb_low_power_consumption_v3\source\config.c"
 645  001A  1624        	siza [36]
 645  001B  2800     R  	jmp _L47
 645  001C              _L51:
 650  001C              #line 650 "c:\users\h469388\desktop\todo\projects\1_ngb\1_firmware\ngb_low_power_consumption_v3\source\config.c"
 650  001C  0724        	mov a,[36]
 650  001D  0E3F        	and a,63
 650  001E  0080     E  	mov rb,a
 652  001F              #line 652 "c:\users\h469388\desktop\todo\projects\1_ngb\1_firmware\ngb_low_power_consumption_v3\source\config.c"
 652  001F  1FA4        	set [36]
 653  0020              #line 653 "c:\users\h469388\desktop\todo\projects\1_ngb\1_firmware\ngb_low_power_consumption_v3\source\config.c"
 653  0020              ;# 653 "c:\users\h469388\desktop\todo\projects\1_ngb\1_firmware\ngb_low_power_consumption_v3\source\config.c" 1
 653  0020              	IF 8>263690
 653  0020              ;# 653 "c:\users\h469388\desktop\todo\projects\1_ngb\1_firmware\ngb_low_power_consumption_v3\source\config.c" 1
 653  0020              	ERRMESSAGE 'the value 8of the argument exceeds the maxinum 263690'
 653  0020              	ENDIF
"File: config.c      Assembler  Version HGASM0202      Page 33

 653  0020              ;# 653 "c:\users\h469388\desktop\todo\projects\1_ngb\1_firmware\ngb_low_power_consumption_v3\source\config.c" 1
 653  0020              	IF 8<0
 653  0020              ;# 653 "c:\users\h469388\desktop\todo\projects\1_ngb\1_firmware\ngb_low_power_consumption_v3\source\config.c" 1
 653  0020              	ERRMESSAGE 'the value 8 of the argument exceeds the mininum 0'
 653  0020              	ENDIF
 653  0020              ;# 653 "c:\users\h469388\desktop\todo\projects\1_ngb\1_firmware\ngb_low_power_consumption_v3\source\config.c" 1
 653  0020              	IF 8==0
 653  0020              ;# 653 "c:\users\h469388\desktop\todo\projects\1_ngb\1_firmware\ngb_low_power_consumption_v3\source\config.c" 1
 653  0020              	JMP $
 653  0020              	ENDIF
 653  0020              ;# 653 "c:\users\h469388\desktop\todo\projects\1_ngb\1_firmware\ngb_low_power_consumption_v3\source\config.c" 1
 653  0020              	IF 8==1
 653  0020              ;# 653 "c:\users\h469388\desktop\todo\projects\1_ngb\1_firmware\ngb_low_power_consumption_v3\source\config.c" 1
 653  0020              	NOP
 653  0020              	ENDIF
 653  0020              ;# 653 "c:\users\h469388\desktop\todo\projects\1_ngb\1_firmware\ngb_low_power_consumption_v3\source\config.c" 1
 653  0020              	IF 8==2
 653  0020              ;# 653 "c:\users\h469388\desktop\todo\projects\1_ngb\1_firmware\ngb_low_power_consumption_v3\source\config.c" 1
 653  0020              	NOP
 653  0020              ;# 653 "c:\users\h469388\desktop\todo\projects\1_ngb\1_firmware\ngb_low_power_consumption_v3\source\config.c" 1
 653  0020              	NOP
 653  0020              	ENDIF
 653  0020              ;# 653 "c:\users\h469388\desktop\todo\projects\1_ngb\1_firmware\ngb_low_power_consumption_v3\source\config.c" 1
 653  0020              	IF 8==3
 653  0020              ;# 653 "c:\users\h469388\desktop\todo\projects\1_ngb\1_firmware\ngb_low_power_consumption_v3\source\config.c" 1
 653  0020              	NOP
 653  0020              ;# 653 "c:\users\h469388\desktop\todo\projects\1_ngb\1_firmware\ngb_low_power_consumption_v3\source\config.c" 1
 653  0020              	NOP
 653  0020              ;# 653 "c:\users\h469388\desktop\todo\projects\1_ngb\1_firmware\ngb_low_power_consumption_v3\source\config.c" 1
 653  0020              	NOP
 653  0020              	ENDIF
 653  0020              ;# 653 "c:\users\h469388\desktop\todo\projects\1_ngb\1_firmware\ngb_low_power_consumption_v3\source\config.c" 1
 653  0020              	IF (8<8) AND (8>3)
 653  0020              ;# 653 "c:\users\h469388\desktop\todo\projects\1_ngb\1_firmware\ngb_low_power_consumption_v3\source\config.c" 1
 653  0020              	CALL __DELAY3 + 7 -8
 653  0020              	ENDIF
 653  0020              ;# 653 "c:\users\h469388\desktop\todo\projects\1_ngb\1_firmware\ngb_low_power_consumption_v3\source\config.c" 1
 653  0020              	IF (8< 0404h) AND (8>7)
 653  0020              ;# 653 "c:\users\h469388\desktop\todo\projects\1_ngb\1_firmware\ngb_low_power_consumption_v3\source\config.c" 1
 653  0020  0F01        	MOV A,8/4-1
 653  0021              ;# 653 "c:\users\h469388\desktop\todo\projects\1_ngb\1_firmware\ngb_low_power_consumption_v3\source\config.c" 1
 653  0021  2000     E  	CALL __DELAYX3 + 3 -(8 MOD 4)
 653  0022              	ENDIF
 653  0022              ;# 653 "c:\users\h469388\desktop\todo\projects\1_ngb\1_firmware\ngb_low_power_consumption_v3\source\config.c" 1
 653  0022              	IF (8< 0x40B) AND (8> 0403h)
 653  0022              ;# 653 "c:\users\h469388\desktop\todo\projects\1_ngb\1_firmware\ngb_low_power_consumption_v3\source\config.c" 1
 653  0022              	MOV A,0 
 653  0022              ;# 653 "c:\users\h469388\desktop\todo\projects\1_ngb\1_firmware\ngb_low_power_consumption_v3\source\config.c" 1
 653  0022              	CALL __DELAYX6 + 0x40a -8
 653  0022              	ENDIF
 653  0022              ;# 653 "c:\users\h469388\desktop\todo\projects\1_ngb\1_firmware\ngb_low_power_consumption_v3\source\config.c" 1
 653  0022              	IF (8 >= 0x40b) AND ((((8-9)%0402h)/4+1)>256)
 653  0022              ;# 653 "c:\users\h469388\desktop\todo\projects\1_ngb\1_firmware\ngb_low_power_consumption_v3\source\config.c" 1
 653  0022              	MOV A,(8-9)/0402h
 653  0022              ;# 653 "c:\users\h469388\desktop\todo\projects\1_ngb\1_firmware\ngb_low_power_consumption_v3\source\config.c" 1
 653  0022              	MOV _builtin_holtek_delay_2,A
 653  0022              ;# 653 "c:\users\h469388\desktop\todo\projects\1_ngb\1_firmware\ngb_low_power_consumption_v3\source\config.c" 1
 653  0022              	MOV A,0
 653  0022              ;# 653 "c:\users\h469388\desktop\todo\projects\1_ngb\1_firmware\ngb_low_power_consumption_v3\source\config.c" 1
 653  0022              	CALL __DELAYY5 +5- (((8-9)%0402h)%6)
"File: config.c      Assembler  Version HGASM0202      Page 34

 653  0022              	ENDIF
 653  0022              ;# 653 "c:\users\h469388\desktop\todo\projects\1_ngb\1_firmware\ngb_low_power_consumption_v3\source\config.c" 1
 653  0022              	IF (8 >= 0x40b) AND ((((8-9)%0402h)/4+1)<=256)
 653  0022              ;# 653 "c:\users\h469388\desktop\todo\projects\1_ngb\1_firmware\ngb_low_power_consumption_v3\source\config.c" 1
 653  0022              	MOV A,(8-9)/0402h
 653  0022              ;# 653 "c:\users\h469388\desktop\todo\projects\1_ngb\1_firmware\ngb_low_power_consumption_v3\source\config.c" 1
 653  0022              	MOV _builtin_holtek_delay_2,A
 653  0022              ;# 653 "c:\users\h469388\desktop\todo\projects\1_ngb\1_firmware\ngb_low_power_consumption_v3\source\config.c" 1
 653  0022              	MOV A,((8-9)%0402h)/4+1
 653  0022              ;# 653 "c:\users\h469388\desktop\todo\projects\1_ngb\1_firmware\ngb_low_power_consumption_v3\source\config.c" 1
 653  0022              	CALL __DELAYY3 +3-(((8-9)%0402h)%4)
 653  0022              	ENDIF
 654  0022              #line 654 "c:\users\h469388\desktop\todo\projects\1_ngb\1_firmware\ngb_low_power_consumption_v3\source\config.c"
 654  0022  1F00     E  	clr rc
 654  0023  3EA3        	sz [35].5
 654  0024  1480     E  	inc rc
 655  0025              #line 655 "c:\users\h469388\desktop\todo\projects\1_ngb\1_firmware\ngb_low_power_consumption_v3\source\config.c"
 655  0025  1F00     E  	clr ra
 655  0026  3EA3        	sz [35].5
 655  0027  1480     E  	inc ra
 655  0028              _L49:
 656  0028              #line 656 "c:\users\h469388\desktop\todo\projects\1_ngb\1_firmware\ngb_low_power_consumption_v3\source\config.c"
 656  0028  0700     E  	mov a,rc
 656  0029  0200     E  	sub a,ra
 656  002A  390A        	snz z
 656  002B  2800     R  	jmp _L55
 658  002C              #line 658 "c:\users\h469388\desktop\todo\projects\1_ngb\1_firmware\ngb_low_power_consumption_v3\source\config.c"
 658  002C  15A4        	dec [36]
 659  002D              #line 659 "c:\users\h469388\desktop\todo\projects\1_ngb\1_firmware\ngb_low_power_consumption_v3\source\config.c"
 659  002D              ;# 659 "c:\users\h469388\desktop\todo\projects\1_ngb\1_firmware\ngb_low_power_consumption_v3\source\config.c" 1
 659  002D  0001        	clr wdt
 660  002E              #line 660 "c:\users\h469388\desktop\todo\projects\1_ngb\1_firmware\ngb_low_power_consumption_v3\source\config.c"
 660  002E              ;# 660 "c:\users\h469388\desktop\todo\projects\1_ngb\1_firmware\ngb_low_power_consumption_v3\source\config.c" 1
 660  002E              	IF 52>263690
 660  002E              ;# 660 "c:\users\h469388\desktop\todo\projects\1_ngb\1_firmware\ngb_low_power_consumption_v3\source\config.c" 1
 660  002E              	ERRMESSAGE 'the value 52of the argument exceeds the maxinum 263690'
 660  002E              	ENDIF
 660  002E              ;# 660 "c:\users\h469388\desktop\todo\projects\1_ngb\1_firmware\ngb_low_power_consumption_v3\source\config.c" 1
 660  002E              	IF 52<0
 660  002E              ;# 660 "c:\users\h469388\desktop\todo\projects\1_ngb\1_firmware\ngb_low_power_consumption_v3\source\config.c" 1
 660  002E              	ERRMESSAGE 'the value 52 of the argument exceeds the mininum 0'
 660  002E              	ENDIF
 660  002E              ;# 660 "c:\users\h469388\desktop\todo\projects\1_ngb\1_firmware\ngb_low_power_consumption_v3\source\config.c" 1
 660  002E              	IF 52==0
 660  002E              ;# 660 "c:\users\h469388\desktop\todo\projects\1_ngb\1_firmware\ngb_low_power_consumption_v3\source\config.c" 1
 660  002E              	JMP $
 660  002E              	ENDIF
 660  002E              ;# 660 "c:\users\h469388\desktop\todo\projects\1_ngb\1_firmware\ngb_low_power_consumption_v3\source\config.c" 1
 660  002E              	IF 52==1
 660  002E              ;# 660 "c:\users\h469388\desktop\todo\projects\1_ngb\1_firmware\ngb_low_power_consumption_v3\source\config.c" 1
 660  002E              	NOP
 660  002E              	ENDIF
 660  002E              ;# 660 "c:\users\h469388\desktop\todo\projects\1_ngb\1_firmware\ngb_low_power_consumption_v3\source\config.c" 1
 660  002E              	IF 52==2
 660  002E              ;# 660 "c:\users\h469388\desktop\todo\projects\1_ngb\1_firmware\ngb_low_power_consumption_v3\source\config.c" 1
 660  002E              	NOP
 660  002E              ;# 660 "c:\users\h469388\desktop\todo\projects\1_ngb\1_firmware\ngb_low_power_consumption_v3\source\config.c" 1
 660  002E              	NOP
 660  002E              	ENDIF
 660  002E              ;# 660 "c:\users\h469388\desktop\todo\projects\1_ngb\1_firmware\ngb_low_power_consumption_v3\source\config.c" 1
"File: config.c      Assembler  Version HGASM0202      Page 35

 660  002E              	IF 52==3
 660  002E              ;# 660 "c:\users\h469388\desktop\todo\projects\1_ngb\1_firmware\ngb_low_power_consumption_v3\source\config.c" 1
 660  002E              	NOP
 660  002E              ;# 660 "c:\users\h469388\desktop\todo\projects\1_ngb\1_firmware\ngb_low_power_consumption_v3\source\config.c" 1
 660  002E              	NOP
 660  002E              ;# 660 "c:\users\h469388\desktop\todo\projects\1_ngb\1_firmware\ngb_low_power_consumption_v3\source\config.c" 1
 660  002E              	NOP
 660  002E              	ENDIF
 660  002E              ;# 660 "c:\users\h469388\desktop\todo\projects\1_ngb\1_firmware\ngb_low_power_consumption_v3\source\config.c" 1
 660  002E              	IF (52<8) AND (52>3)
 660  002E              ;# 660 "c:\users\h469388\desktop\todo\projects\1_ngb\1_firmware\ngb_low_power_consumption_v3\source\config.c" 1
 660  002E              	CALL __DELAY3 + 7 -52
 660  002E              	ENDIF
 660  002E              ;# 660 "c:\users\h469388\desktop\todo\projects\1_ngb\1_firmware\ngb_low_power_consumption_v3\source\config.c" 1
 660  002E              	IF (52< 0404h) AND (52>7)
 660  002E              ;# 660 "c:\users\h469388\desktop\todo\projects\1_ngb\1_firmware\ngb_low_power_consumption_v3\source\config.c" 1
 660  002E  0F0C        	MOV A,52/4-1
 660  002F              ;# 660 "c:\users\h469388\desktop\todo\projects\1_ngb\1_firmware\ngb_low_power_consumption_v3\source\config.c" 1
 660  002F  2000     E  	CALL __DELAYX3 + 3 -(52 MOD 4)
 660  0030              	ENDIF
 660  0030              ;# 660 "c:\users\h469388\desktop\todo\projects\1_ngb\1_firmware\ngb_low_power_consumption_v3\source\config.c" 1
 660  0030              	IF (52< 0x40B) AND (52> 0403h)
 660  0030              ;# 660 "c:\users\h469388\desktop\todo\projects\1_ngb\1_firmware\ngb_low_power_consumption_v3\source\config.c" 1
 660  0030              	MOV A,0 
 660  0030              ;# 660 "c:\users\h469388\desktop\todo\projects\1_ngb\1_firmware\ngb_low_power_consumption_v3\source\config.c" 1
 660  0030              	CALL __DELAYX6 + 0x40a -52
 660  0030              	ENDIF
 660  0030              ;# 660 "c:\users\h469388\desktop\todo\projects\1_ngb\1_firmware\ngb_low_power_consumption_v3\source\config.c" 1
 660  0030              	IF (52 >= 0x40b) AND ((((52-9)%0402h)/4+1)>256)
 660  0030              ;# 660 "c:\users\h469388\desktop\todo\projects\1_ngb\1_firmware\ngb_low_power_consumption_v3\source\config.c" 1
 660  0030              	MOV A,(52-9)/0402h
 660  0030              ;# 660 "c:\users\h469388\desktop\todo\projects\1_ngb\1_firmware\ngb_low_power_consumption_v3\source\config.c" 1
 660  0030              	MOV _builtin_holtek_delay_2,A
 660  0030              ;# 660 "c:\users\h469388\desktop\todo\projects\1_ngb\1_firmware\ngb_low_power_consumption_v3\source\config.c" 1
 660  0030              	MOV A,0
 660  0030              ;# 660 "c:\users\h469388\desktop\todo\projects\1_ngb\1_firmware\ngb_low_power_consumption_v3\source\config.c" 1
 660  0030              	CALL __DELAYY5 +5- (((52-9)%0402h)%6)
 660  0030              	ENDIF
 660  0030              ;# 660 "c:\users\h469388\desktop\todo\projects\1_ngb\1_firmware\ngb_low_power_consumption_v3\source\config.c" 1
 660  0030              	IF (52 >= 0x40b) AND ((((52-9)%0402h)/4+1)<=256)
 660  0030              ;# 660 "c:\users\h469388\desktop\todo\projects\1_ngb\1_firmware\ngb_low_power_consumption_v3\source\config.c" 1
 660  0030              	MOV A,(52-9)/0402h
 660  0030              ;# 660 "c:\users\h469388\desktop\todo\projects\1_ngb\1_firmware\ngb_low_power_consumption_v3\source\config.c" 1
 660  0030              	MOV _builtin_holtek_delay_2,A
 660  0030              ;# 660 "c:\users\h469388\desktop\todo\projects\1_ngb\1_firmware\ngb_low_power_consumption_v3\source\config.c" 1
 660  0030              	MOV A,((52-9)%0402h)/4+1
 660  0030              ;# 660 "c:\users\h469388\desktop\todo\projects\1_ngb\1_firmware\ngb_low_power_consumption_v3\source\config.c" 1
 660  0030              	CALL __DELAYY3 +3-(((52-9)%0402h)%4)
 660  0030              	ENDIF
 661  0030              #line 661 "c:\users\h469388\desktop\todo\projects\1_ngb\1_firmware\ngb_low_power_consumption_v3\source\config.c"
 661  0030  1F00     E  	clr ra
 661  0031  3EA3        	sz [35].5
 661  0032  1480     E  	inc ra
 662  0033              #line 662 "c:\users\h469388\desktop\todo\projects\1_ngb\1_firmware\ngb_low_power_consumption_v3\source\config.c"
 662  0033  0724        	mov a,[36]
 662  0034  0AC0        	sub a,192
 662  0035  390A        	snz z
 662  0036  2800     R  	jmp _L49
 662  0037              _L55:
 667  0037              #line 667 "c:\users\h469388\desktop\todo\projects\1_ngb\1_firmware\ngb_low_power_consumption_v3\source\config.c"
"File: config.c      Assembler  Version HGASM0202      Page 36

 667  0037  0724        	mov a,[36]
 667  0038  0E3F        	and a,63
 667  0039  0080     E  	mov ra,a
 669  003A              #line 669 "c:\users\h469388\desktop\todo\projects\1_ngb\1_firmware\ngb_low_power_consumption_v3\source\config.c"
 669  003A  0700     E  	mov a,ra
 669  003B  0380     E  	addm a,rb
 669  003C  1B80     E  	rrc rb
 670  003D              #line 670 "c:\users\h469388\desktop\todo\projects\1_ngb\1_firmware\ngb_low_power_consumption_v3\source\config.c"
 670  003D  0700     E  	mov a,rb
 670  003E  00A4        	mov [36],a
 673  003F              #line 673 "c:\users\h469388\desktop\todo\projects\1_ngb\1_firmware\ngb_low_power_consumption_v3\source\config.c"
 673  003F  0F20        	mov a,32
 673  0040  00A0        	mov [32],a
 674  0041              #line 674 "c:\users\h469388\desktop\todo\projects\1_ngb\1_firmware\ngb_low_power_consumption_v3\source\config.c"
 674  0041  0F43        	mov a,67
 674  0042  00A5        	mov [37],a
 676  0043              #line 676 "c:\users\h469388\desktop\todo\projects\1_ngb\1_firmware\ngb_low_power_consumption_v3\source\config.c"
 676  0043  0FC0        	mov a,192
 676  0044  00A6        	mov [38],a
 677  0045              #line 677 "c:\users\h469388\desktop\todo\projects\1_ngb\1_firmware\ngb_low_power_consumption_v3\source\config.c"
 677  0045              ;# 677 "c:\users\h469388\desktop\todo\projects\1_ngb\1_firmware\ngb_low_power_consumption_v3\source\config.c" 1
 677  0045              	IF 8>263690
 677  0045              ;# 677 "c:\users\h469388\desktop\todo\projects\1_ngb\1_firmware\ngb_low_power_consumption_v3\source\config.c" 1
 677  0045              	ERRMESSAGE 'the value 8of the argument exceeds the maxinum 263690'
 677  0045              	ENDIF
 677  0045              ;# 677 "c:\users\h469388\desktop\todo\projects\1_ngb\1_firmware\ngb_low_power_consumption_v3\source\config.c" 1
 677  0045              	IF 8<0
 677  0045              ;# 677 "c:\users\h469388\desktop\todo\projects\1_ngb\1_firmware\ngb_low_power_consumption_v3\source\config.c" 1
 677  0045              	ERRMESSAGE 'the value 8 of the argument exceeds the mininum 0'
 677  0045              	ENDIF
 677  0045              ;# 677 "c:\users\h469388\desktop\todo\projects\1_ngb\1_firmware\ngb_low_power_consumption_v3\source\config.c" 1
 677  0045              	IF 8==0
 677  0045              ;# 677 "c:\users\h469388\desktop\todo\projects\1_ngb\1_firmware\ngb_low_power_consumption_v3\source\config.c" 1
 677  0045              	JMP $
 677  0045              	ENDIF
 677  0045              ;# 677 "c:\users\h469388\desktop\todo\projects\1_ngb\1_firmware\ngb_low_power_consumption_v3\source\config.c" 1
 677  0045              	IF 8==1
 677  0045              ;# 677 "c:\users\h469388\desktop\todo\projects\1_ngb\1_firmware\ngb_low_power_consumption_v3\source\config.c" 1
 677  0045              	NOP
 677  0045              	ENDIF
 677  0045              ;# 677 "c:\users\h469388\desktop\todo\projects\1_ngb\1_firmware\ngb_low_power_consumption_v3\source\config.c" 1
 677  0045              	IF 8==2
 677  0045              ;# 677 "c:\users\h469388\desktop\todo\projects\1_ngb\1_firmware\ngb_low_power_consumption_v3\source\config.c" 1
 677  0045              	NOP
 677  0045              ;# 677 "c:\users\h469388\desktop\todo\projects\1_ngb\1_firmware\ngb_low_power_consumption_v3\source\config.c" 1
 677  0045              	NOP
 677  0045              	ENDIF
 677  0045              ;# 677 "c:\users\h469388\desktop\todo\projects\1_ngb\1_firmware\ngb_low_power_consumption_v3\source\config.c" 1
 677  0045              	IF 8==3
 677  0045              ;# 677 "c:\users\h469388\desktop\todo\projects\1_ngb\1_firmware\ngb_low_power_consumption_v3\source\config.c" 1
 677  0045              	NOP
 677  0045              ;# 677 "c:\users\h469388\desktop\todo\projects\1_ngb\1_firmware\ngb_low_power_consumption_v3\source\config.c" 1
 677  0045              	NOP
 677  0045              ;# 677 "c:\users\h469388\desktop\todo\projects\1_ngb\1_firmware\ngb_low_power_consumption_v3\source\config.c" 1
 677  0045              	NOP
 677  0045              	ENDIF
 677  0045              ;# 677 "c:\users\h469388\desktop\todo\projects\1_ngb\1_firmware\ngb_low_power_consumption_v3\source\config.c" 1
 677  0045              	IF (8<8) AND (8>3)
 677  0045              ;# 677 "c:\users\h469388\desktop\todo\projects\1_ngb\1_firmware\ngb_low_power_consumption_v3\source\config.c" 1
 677  0045              	CALL __DELAY3 + 7 -8
"File: config.c      Assembler  Version HGASM0202      Page 37

 677  0045              	ENDIF
 677  0045              ;# 677 "c:\users\h469388\desktop\todo\projects\1_ngb\1_firmware\ngb_low_power_consumption_v3\source\config.c" 1
 677  0045              	IF (8< 0404h) AND (8>7)
 677  0045              ;# 677 "c:\users\h469388\desktop\todo\projects\1_ngb\1_firmware\ngb_low_power_consumption_v3\source\config.c" 1
 677  0045  0F01        	MOV A,8/4-1
 677  0046              ;# 677 "c:\users\h469388\desktop\todo\projects\1_ngb\1_firmware\ngb_low_power_consumption_v3\source\config.c" 1
 677  0046  2000     E  	CALL __DELAYX3 + 3 -(8 MOD 4)
 677  0047              	ENDIF
 677  0047              ;# 677 "c:\users\h469388\desktop\todo\projects\1_ngb\1_firmware\ngb_low_power_consumption_v3\source\config.c" 1
 677  0047              	IF (8< 0x40B) AND (8> 0403h)
 677  0047              ;# 677 "c:\users\h469388\desktop\todo\projects\1_ngb\1_firmware\ngb_low_power_consumption_v3\source\config.c" 1
 677  0047              	MOV A,0 
 677  0047              ;# 677 "c:\users\h469388\desktop\todo\projects\1_ngb\1_firmware\ngb_low_power_consumption_v3\source\config.c" 1
 677  0047              	CALL __DELAYX6 + 0x40a -8
 677  0047              	ENDIF
 677  0047              ;# 677 "c:\users\h469388\desktop\todo\projects\1_ngb\1_firmware\ngb_low_power_consumption_v3\source\config.c" 1
 677  0047              	IF (8 >= 0x40b) AND ((((8-9)%0402h)/4+1)>256)
 677  0047              ;# 677 "c:\users\h469388\desktop\todo\projects\1_ngb\1_firmware\ngb_low_power_consumption_v3\source\config.c" 1
 677  0047              	MOV A,(8-9)/0402h
 677  0047              ;# 677 "c:\users\h469388\desktop\todo\projects\1_ngb\1_firmware\ngb_low_power_consumption_v3\source\config.c" 1
 677  0047              	MOV _builtin_holtek_delay_2,A
 677  0047              ;# 677 "c:\users\h469388\desktop\todo\projects\1_ngb\1_firmware\ngb_low_power_consumption_v3\source\config.c" 1
 677  0047              	MOV A,0
 677  0047              ;# 677 "c:\users\h469388\desktop\todo\projects\1_ngb\1_firmware\ngb_low_power_consumption_v3\source\config.c" 1
 677  0047              	CALL __DELAYY5 +5- (((8-9)%0402h)%6)
 677  0047              	ENDIF
 677  0047              ;# 677 "c:\users\h469388\desktop\todo\projects\1_ngb\1_firmware\ngb_low_power_consumption_v3\source\config.c" 1
 677  0047              	IF (8 >= 0x40b) AND ((((8-9)%0402h)/4+1)<=256)
 677  0047              ;# 677 "c:\users\h469388\desktop\todo\projects\1_ngb\1_firmware\ngb_low_power_consumption_v3\source\config.c" 1
 677  0047              	MOV A,(8-9)/0402h
 677  0047              ;# 677 "c:\users\h469388\desktop\todo\projects\1_ngb\1_firmware\ngb_low_power_consumption_v3\source\config.c" 1
 677  0047              	MOV _builtin_holtek_delay_2,A
 677  0047              ;# 677 "c:\users\h469388\desktop\todo\projects\1_ngb\1_firmware\ngb_low_power_consumption_v3\source\config.c" 1
 677  0047              	MOV A,((8-9)%0402h)/4+1
 677  0047              ;# 677 "c:\users\h469388\desktop\todo\projects\1_ngb\1_firmware\ngb_low_power_consumption_v3\source\config.c" 1
 677  0047              	CALL __DELAYY3 +3-(((8-9)%0402h)%4)
 677  0047              	ENDIF
 678  0047              #line 678 "c:\users\h469388\desktop\todo\projects\1_ngb\1_firmware\ngb_low_power_consumption_v3\source\config.c"
 678  0047  1F00     E  	clr rb
 678  0048  3EA5        	sz [37].5
 678  0049  1480     E  	inc rb
 679  004A              #line 679 "c:\users\h469388\desktop\todo\projects\1_ngb\1_firmware\ngb_low_power_consumption_v3\source\config.c"
 679  004A  1F00     E  	clr ra
 679  004B  3EA5        	sz [37].5
 679  004C  1480     E  	inc ra
 679  004D              _L53:
 680  004D              #line 680 "c:\users\h469388\desktop\todo\projects\1_ngb\1_firmware\ngb_low_power_consumption_v3\source\config.c"
 680  004D  0700     E  	mov a,rb
 680  004E  0200     E  	sub a,ra
 680  004F  390A        	snz z
 680  0050  2800     R  	jmp _L59
 682  0051              #line 682 "c:\users\h469388\desktop\todo\projects\1_ngb\1_firmware\ngb_low_power_consumption_v3\source\config.c"
 682  0051  14A6        	inc [38]
 683  0052              #line 683 "c:\users\h469388\desktop\todo\projects\1_ngb\1_firmware\ngb_low_power_consumption_v3\source\config.c"
 683  0052              ;# 683 "c:\users\h469388\desktop\todo\projects\1_ngb\1_firmware\ngb_low_power_consumption_v3\source\config.c" 1
 683  0052  0001        	clr wdt
 684  0053              #line 684 "c:\users\h469388\desktop\todo\projects\1_ngb\1_firmware\ngb_low_power_consumption_v3\source\config.c"
 684  0053              ;# 684 "c:\users\h469388\desktop\todo\projects\1_ngb\1_firmware\ngb_low_power_consumption_v3\source\config.c" 1
 684  0053              	IF 52>263690
 684  0053              ;# 684 "c:\users\h469388\desktop\todo\projects\1_ngb\1_firmware\ngb_low_power_consumption_v3\source\config.c" 1
"File: config.c      Assembler  Version HGASM0202      Page 38

 684  0053              	ERRMESSAGE 'the value 52of the argument exceeds the maxinum 263690'
 684  0053              	ENDIF
 684  0053              ;# 684 "c:\users\h469388\desktop\todo\projects\1_ngb\1_firmware\ngb_low_power_consumption_v3\source\config.c" 1
 684  0053              	IF 52<0
 684  0053              ;# 684 "c:\users\h469388\desktop\todo\projects\1_ngb\1_firmware\ngb_low_power_consumption_v3\source\config.c" 1
 684  0053              	ERRMESSAGE 'the value 52 of the argument exceeds the mininum 0'
 684  0053              	ENDIF
 684  0053              ;# 684 "c:\users\h469388\desktop\todo\projects\1_ngb\1_firmware\ngb_low_power_consumption_v3\source\config.c" 1
 684  0053              	IF 52==0
 684  0053              ;# 684 "c:\users\h469388\desktop\todo\projects\1_ngb\1_firmware\ngb_low_power_consumption_v3\source\config.c" 1
 684  0053              	JMP $
 684  0053              	ENDIF
 684  0053              ;# 684 "c:\users\h469388\desktop\todo\projects\1_ngb\1_firmware\ngb_low_power_consumption_v3\source\config.c" 1
 684  0053              	IF 52==1
 684  0053              ;# 684 "c:\users\h469388\desktop\todo\projects\1_ngb\1_firmware\ngb_low_power_consumption_v3\source\config.c" 1
 684  0053              	NOP
 684  0053              	ENDIF
 684  0053              ;# 684 "c:\users\h469388\desktop\todo\projects\1_ngb\1_firmware\ngb_low_power_consumption_v3\source\config.c" 1
 684  0053              	IF 52==2
 684  0053              ;# 684 "c:\users\h469388\desktop\todo\projects\1_ngb\1_firmware\ngb_low_power_consumption_v3\source\config.c" 1
 684  0053              	NOP
 684  0053              ;# 684 "c:\users\h469388\desktop\todo\projects\1_ngb\1_firmware\ngb_low_power_consumption_v3\source\config.c" 1
 684  0053              	NOP
 684  0053              	ENDIF
 684  0053              ;# 684 "c:\users\h469388\desktop\todo\projects\1_ngb\1_firmware\ngb_low_power_consumption_v3\source\config.c" 1
 684  0053              	IF 52==3
 684  0053              ;# 684 "c:\users\h469388\desktop\todo\projects\1_ngb\1_firmware\ngb_low_power_consumption_v3\source\config.c" 1
 684  0053              	NOP
 684  0053              ;# 684 "c:\users\h469388\desktop\todo\projects\1_ngb\1_firmware\ngb_low_power_consumption_v3\source\config.c" 1
 684  0053              	NOP
 684  0053              ;# 684 "c:\users\h469388\desktop\todo\projects\1_ngb\1_firmware\ngb_low_power_consumption_v3\source\config.c" 1
 684  0053              	NOP
 684  0053              	ENDIF
 684  0053              ;# 684 "c:\users\h469388\desktop\todo\projects\1_ngb\1_firmware\ngb_low_power_consumption_v3\source\config.c" 1
 684  0053              	IF (52<8) AND (52>3)
 684  0053              ;# 684 "c:\users\h469388\desktop\todo\projects\1_ngb\1_firmware\ngb_low_power_consumption_v3\source\config.c" 1
 684  0053              	CALL __DELAY3 + 7 -52
 684  0053              	ENDIF
 684  0053              ;# 684 "c:\users\h469388\desktop\todo\projects\1_ngb\1_firmware\ngb_low_power_consumption_v3\source\config.c" 1
 684  0053              	IF (52< 0404h) AND (52>7)
 684  0053              ;# 684 "c:\users\h469388\desktop\todo\projects\1_ngb\1_firmware\ngb_low_power_consumption_v3\source\config.c" 1
 684  0053  0F0C        	MOV A,52/4-1
 684  0054              ;# 684 "c:\users\h469388\desktop\todo\projects\1_ngb\1_firmware\ngb_low_power_consumption_v3\source\config.c" 1
 684  0054  2000     E  	CALL __DELAYX3 + 3 -(52 MOD 4)
 684  0055              	ENDIF
 684  0055              ;# 684 "c:\users\h469388\desktop\todo\projects\1_ngb\1_firmware\ngb_low_power_consumption_v3\source\config.c" 1
 684  0055              	IF (52< 0x40B) AND (52> 0403h)
 684  0055              ;# 684 "c:\users\h469388\desktop\todo\projects\1_ngb\1_firmware\ngb_low_power_consumption_v3\source\config.c" 1
 684  0055              	MOV A,0 
 684  0055              ;# 684 "c:\users\h469388\desktop\todo\projects\1_ngb\1_firmware\ngb_low_power_consumption_v3\source\config.c" 1
 684  0055              	CALL __DELAYX6 + 0x40a -52
 684  0055              	ENDIF
 684  0055              ;# 684 "c:\users\h469388\desktop\todo\projects\1_ngb\1_firmware\ngb_low_power_consumption_v3\source\config.c" 1
 684  0055              	IF (52 >= 0x40b) AND ((((52-9)%0402h)/4+1)>256)
 684  0055              ;# 684 "c:\users\h469388\desktop\todo\projects\1_ngb\1_firmware\ngb_low_power_consumption_v3\source\config.c" 1
 684  0055              	MOV A,(52-9)/0402h
 684  0055              ;# 684 "c:\users\h469388\desktop\todo\projects\1_ngb\1_firmware\ngb_low_power_consumption_v3\source\config.c" 1
 684  0055              	MOV _builtin_holtek_delay_2,A
 684  0055              ;# 684 "c:\users\h469388\desktop\todo\projects\1_ngb\1_firmware\ngb_low_power_consumption_v3\source\config.c" 1
 684  0055              	MOV A,0
"File: config.c      Assembler  Version HGASM0202      Page 39

 684  0055              ;# 684 "c:\users\h469388\desktop\todo\projects\1_ngb\1_firmware\ngb_low_power_consumption_v3\source\config.c" 1
 684  0055              	CALL __DELAYY5 +5- (((52-9)%0402h)%6)
 684  0055              	ENDIF
 684  0055              ;# 684 "c:\users\h469388\desktop\todo\projects\1_ngb\1_firmware\ngb_low_power_consumption_v3\source\config.c" 1
 684  0055              	IF (52 >= 0x40b) AND ((((52-9)%0402h)/4+1)<=256)
 684  0055              ;# 684 "c:\users\h469388\desktop\todo\projects\1_ngb\1_firmware\ngb_low_power_consumption_v3\source\config.c" 1
 684  0055              	MOV A,(52-9)/0402h
 684  0055              ;# 684 "c:\users\h469388\desktop\todo\projects\1_ngb\1_firmware\ngb_low_power_consumption_v3\source\config.c" 1
 684  0055              	MOV _builtin_holtek_delay_2,A
 684  0055              ;# 684 "c:\users\h469388\desktop\todo\projects\1_ngb\1_firmware\ngb_low_power_consumption_v3\source\config.c" 1
 684  0055              	MOV A,((52-9)%0402h)/4+1
 684  0055              ;# 684 "c:\users\h469388\desktop\todo\projects\1_ngb\1_firmware\ngb_low_power_consumption_v3\source\config.c" 1
 684  0055              	CALL __DELAYY3 +3-(((52-9)%0402h)%4)
 684  0055              	ENDIF
 685  0055              #line 685 "c:\users\h469388\desktop\todo\projects\1_ngb\1_firmware\ngb_low_power_consumption_v3\source\config.c"
 685  0055  1F00     E  	clr ra
 685  0056  3EA5        	sz [37].5
 685  0057  1480     E  	inc ra
 686  0058              #line 686 "c:\users\h469388\desktop\todo\projects\1_ngb\1_firmware\ngb_low_power_consumption_v3\source\config.c"
 686  0058  1626        	siza [38]
 686  0059  2800     R  	jmp _L53
 686  005A              _L59:
 691  005A              #line 691 "c:\users\h469388\desktop\todo\projects\1_ngb\1_firmware\ngb_low_power_consumption_v3\source\config.c"
 691  005A  0726        	mov a,[38]
 691  005B  0E3F        	and a,63
 691  005C  0080     E  	mov rb,a
 693  005D              #line 693 "c:\users\h469388\desktop\todo\projects\1_ngb\1_firmware\ngb_low_power_consumption_v3\source\config.c"
 693  005D  1FA6        	set [38]
 694  005E              #line 694 "c:\users\h469388\desktop\todo\projects\1_ngb\1_firmware\ngb_low_power_consumption_v3\source\config.c"
 694  005E              ;# 694 "c:\users\h469388\desktop\todo\projects\1_ngb\1_firmware\ngb_low_power_consumption_v3\source\config.c" 1
 694  005E              	IF 8>263690
 694  005E              ;# 694 "c:\users\h469388\desktop\todo\projects\1_ngb\1_firmware\ngb_low_power_consumption_v3\source\config.c" 1
 694  005E              	ERRMESSAGE 'the value 8of the argument exceeds the maxinum 263690'
 694  005E              	ENDIF
 694  005E              ;# 694 "c:\users\h469388\desktop\todo\projects\1_ngb\1_firmware\ngb_low_power_consumption_v3\source\config.c" 1
 694  005E              	IF 8<0
 694  005E              ;# 694 "c:\users\h469388\desktop\todo\projects\1_ngb\1_firmware\ngb_low_power_consumption_v3\source\config.c" 1
 694  005E              	ERRMESSAGE 'the value 8 of the argument exceeds the mininum 0'
 694  005E              	ENDIF
 694  005E              ;# 694 "c:\users\h469388\desktop\todo\projects\1_ngb\1_firmware\ngb_low_power_consumption_v3\source\config.c" 1
 694  005E              	IF 8==0
 694  005E              ;# 694 "c:\users\h469388\desktop\todo\projects\1_ngb\1_firmware\ngb_low_power_consumption_v3\source\config.c" 1
 694  005E              	JMP $
 694  005E              	ENDIF
 694  005E              ;# 694 "c:\users\h469388\desktop\todo\projects\1_ngb\1_firmware\ngb_low_power_consumption_v3\source\config.c" 1
 694  005E              	IF 8==1
 694  005E              ;# 694 "c:\users\h469388\desktop\todo\projects\1_ngb\1_firmware\ngb_low_power_consumption_v3\source\config.c" 1
 694  005E              	NOP
 694  005E              	ENDIF
 694  005E              ;# 694 "c:\users\h469388\desktop\todo\projects\1_ngb\1_firmware\ngb_low_power_consumption_v3\source\config.c" 1
 694  005E              	IF 8==2
 694  005E              ;# 694 "c:\users\h469388\desktop\todo\projects\1_ngb\1_firmware\ngb_low_power_consumption_v3\source\config.c" 1
 694  005E              	NOP
 694  005E              ;# 694 "c:\users\h469388\desktop\todo\projects\1_ngb\1_firmware\ngb_low_power_consumption_v3\source\config.c" 1
 694  005E              	NOP
 694  005E              	ENDIF
 694  005E              ;# 694 "c:\users\h469388\desktop\todo\projects\1_ngb\1_firmware\ngb_low_power_consumption_v3\source\config.c" 1
 694  005E              	IF 8==3
 694  005E              ;# 694 "c:\users\h469388\desktop\todo\projects\1_ngb\1_firmware\ngb_low_power_consumption_v3\source\config.c" 1
 694  005E              	NOP
"File: config.c      Assembler  Version HGASM0202      Page 40

 694  005E              ;# 694 "c:\users\h469388\desktop\todo\projects\1_ngb\1_firmware\ngb_low_power_consumption_v3\source\config.c" 1
 694  005E              	NOP
 694  005E              ;# 694 "c:\users\h469388\desktop\todo\projects\1_ngb\1_firmware\ngb_low_power_consumption_v3\source\config.c" 1
 694  005E              	NOP
 694  005E              	ENDIF
 694  005E              ;# 694 "c:\users\h469388\desktop\todo\projects\1_ngb\1_firmware\ngb_low_power_consumption_v3\source\config.c" 1
 694  005E              	IF (8<8) AND (8>3)
 694  005E              ;# 694 "c:\users\h469388\desktop\todo\projects\1_ngb\1_firmware\ngb_low_power_consumption_v3\source\config.c" 1
 694  005E              	CALL __DELAY3 + 7 -8
 694  005E              	ENDIF
 694  005E              ;# 694 "c:\users\h469388\desktop\todo\projects\1_ngb\1_firmware\ngb_low_power_consumption_v3\source\config.c" 1
 694  005E              	IF (8< 0404h) AND (8>7)
 694  005E              ;# 694 "c:\users\h469388\desktop\todo\projects\1_ngb\1_firmware\ngb_low_power_consumption_v3\source\config.c" 1
 694  005E  0F01        	MOV A,8/4-1
 694  005F              ;# 694 "c:\users\h469388\desktop\todo\projects\1_ngb\1_firmware\ngb_low_power_consumption_v3\source\config.c" 1
 694  005F  2000     E  	CALL __DELAYX3 + 3 -(8 MOD 4)
 694  0060              	ENDIF
 694  0060              ;# 694 "c:\users\h469388\desktop\todo\projects\1_ngb\1_firmware\ngb_low_power_consumption_v3\source\config.c" 1
 694  0060              	IF (8< 0x40B) AND (8> 0403h)
 694  0060              ;# 694 "c:\users\h469388\desktop\todo\projects\1_ngb\1_firmware\ngb_low_power_consumption_v3\source\config.c" 1
 694  0060              	MOV A,0 
 694  0060              ;# 694 "c:\users\h469388\desktop\todo\projects\1_ngb\1_firmware\ngb_low_power_consumption_v3\source\config.c" 1
 694  0060              	CALL __DELAYX6 + 0x40a -8
 694  0060              	ENDIF
 694  0060              ;# 694 "c:\users\h469388\desktop\todo\projects\1_ngb\1_firmware\ngb_low_power_consumption_v3\source\config.c" 1
 694  0060              	IF (8 >= 0x40b) AND ((((8-9)%0402h)/4+1)>256)
 694  0060              ;# 694 "c:\users\h469388\desktop\todo\projects\1_ngb\1_firmware\ngb_low_power_consumption_v3\source\config.c" 1
 694  0060              	MOV A,(8-9)/0402h
 694  0060              ;# 694 "c:\users\h469388\desktop\todo\projects\1_ngb\1_firmware\ngb_low_power_consumption_v3\source\config.c" 1
 694  0060              	MOV _builtin_holtek_delay_2,A
 694  0060              ;# 694 "c:\users\h469388\desktop\todo\projects\1_ngb\1_firmware\ngb_low_power_consumption_v3\source\config.c" 1
 694  0060              	MOV A,0
 694  0060              ;# 694 "c:\users\h469388\desktop\todo\projects\1_ngb\1_firmware\ngb_low_power_consumption_v3\source\config.c" 1
 694  0060              	CALL __DELAYY5 +5- (((8-9)%0402h)%6)
 694  0060              	ENDIF
 694  0060              ;# 694 "c:\users\h469388\desktop\todo\projects\1_ngb\1_firmware\ngb_low_power_consumption_v3\source\config.c" 1
 694  0060              	IF (8 >= 0x40b) AND ((((8-9)%0402h)/4+1)<=256)
 694  0060              ;# 694 "c:\users\h469388\desktop\todo\projects\1_ngb\1_firmware\ngb_low_power_consumption_v3\source\config.c" 1
 694  0060              	MOV A,(8-9)/0402h
 694  0060              ;# 694 "c:\users\h469388\desktop\todo\projects\1_ngb\1_firmware\ngb_low_power_consumption_v3\source\config.c" 1
 694  0060              	MOV _builtin_holtek_delay_2,A
 694  0060              ;# 694 "c:\users\h469388\desktop\todo\projects\1_ngb\1_firmware\ngb_low_power_consumption_v3\source\config.c" 1
 694  0060              	MOV A,((8-9)%0402h)/4+1
 694  0060              ;# 694 "c:\users\h469388\desktop\todo\projects\1_ngb\1_firmware\ngb_low_power_consumption_v3\source\config.c" 1
 694  0060              	CALL __DELAYY3 +3-(((8-9)%0402h)%4)
 694  0060              	ENDIF
 695  0060              #line 695 "c:\users\h469388\desktop\todo\projects\1_ngb\1_firmware\ngb_low_power_consumption_v3\source\config.c"
 695  0060  1F00     E  	clr rc
 695  0061  3EA5        	sz [37].5
 695  0062  1480     E  	inc rc
 696  0063              #line 696 "c:\users\h469388\desktop\todo\projects\1_ngb\1_firmware\ngb_low_power_consumption_v3\source\config.c"
 696  0063  1F00     E  	clr ra
 696  0064  3EA5        	sz [37].5
 696  0065  1480     E  	inc ra
 696  0066              _L57:
 697  0066              #line 697 "c:\users\h469388\desktop\todo\projects\1_ngb\1_firmware\ngb_low_power_consumption_v3\source\config.c"
 697  0066  0700     E  	mov a,rc
 697  0067  0200     E  	sub a,ra
 697  0068  390A        	snz z
 697  0069  2800     R  	jmp _L64
"File: config.c      Assembler  Version HGASM0202      Page 41

 699  006A              #line 699 "c:\users\h469388\desktop\todo\projects\1_ngb\1_firmware\ngb_low_power_consumption_v3\source\config.c"
 699  006A  15A6        	dec [38]
 700  006B              #line 700 "c:\users\h469388\desktop\todo\projects\1_ngb\1_firmware\ngb_low_power_consumption_v3\source\config.c"
 700  006B              ;# 700 "c:\users\h469388\desktop\todo\projects\1_ngb\1_firmware\ngb_low_power_consumption_v3\source\config.c" 1
 700  006B  0001        	clr wdt
 701  006C              #line 701 "c:\users\h469388\desktop\todo\projects\1_ngb\1_firmware\ngb_low_power_consumption_v3\source\config.c"
 701  006C              ;# 701 "c:\users\h469388\desktop\todo\projects\1_ngb\1_firmware\ngb_low_power_consumption_v3\source\config.c" 1
 701  006C              	IF 52>263690
 701  006C              ;# 701 "c:\users\h469388\desktop\todo\projects\1_ngb\1_firmware\ngb_low_power_consumption_v3\source\config.c" 1
 701  006C              	ERRMESSAGE 'the value 52of the argument exceeds the maxinum 263690'
 701  006C              	ENDIF
 701  006C              ;# 701 "c:\users\h469388\desktop\todo\projects\1_ngb\1_firmware\ngb_low_power_consumption_v3\source\config.c" 1
 701  006C              	IF 52<0
 701  006C              ;# 701 "c:\users\h469388\desktop\todo\projects\1_ngb\1_firmware\ngb_low_power_consumption_v3\source\config.c" 1
 701  006C              	ERRMESSAGE 'the value 52 of the argument exceeds the mininum 0'
 701  006C              	ENDIF
 701  006C              ;# 701 "c:\users\h469388\desktop\todo\projects\1_ngb\1_firmware\ngb_low_power_consumption_v3\source\config.c" 1
 701  006C              	IF 52==0
 701  006C              ;# 701 "c:\users\h469388\desktop\todo\projects\1_ngb\1_firmware\ngb_low_power_consumption_v3\source\config.c" 1
 701  006C              	JMP $
 701  006C              	ENDIF
 701  006C              ;# 701 "c:\users\h469388\desktop\todo\projects\1_ngb\1_firmware\ngb_low_power_consumption_v3\source\config.c" 1
 701  006C              	IF 52==1
 701  006C              ;# 701 "c:\users\h469388\desktop\todo\projects\1_ngb\1_firmware\ngb_low_power_consumption_v3\source\config.c" 1
 701  006C              	NOP
 701  006C              	ENDIF
 701  006C              ;# 701 "c:\users\h469388\desktop\todo\projects\1_ngb\1_firmware\ngb_low_power_consumption_v3\source\config.c" 1
 701  006C              	IF 52==2
 701  006C              ;# 701 "c:\users\h469388\desktop\todo\projects\1_ngb\1_firmware\ngb_low_power_consumption_v3\source\config.c" 1
 701  006C              	NOP
 701  006C              ;# 701 "c:\users\h469388\desktop\todo\projects\1_ngb\1_firmware\ngb_low_power_consumption_v3\source\config.c" 1
 701  006C              	NOP
 701  006C              	ENDIF
 701  006C              ;# 701 "c:\users\h469388\desktop\todo\projects\1_ngb\1_firmware\ngb_low_power_consumption_v3\source\config.c" 1
 701  006C              	IF 52==3
 701  006C              ;# 701 "c:\users\h469388\desktop\todo\projects\1_ngb\1_firmware\ngb_low_power_consumption_v3\source\config.c" 1
 701  006C              	NOP
 701  006C              ;# 701 "c:\users\h469388\desktop\todo\projects\1_ngb\1_firmware\ngb_low_power_consumption_v3\source\config.c" 1
 701  006C              	NOP
 701  006C              ;# 701 "c:\users\h469388\desktop\todo\projects\1_ngb\1_firmware\ngb_low_power_consumption_v3\source\config.c" 1
 701  006C              	NOP
 701  006C              	ENDIF
 701  006C              ;# 701 "c:\users\h469388\desktop\todo\projects\1_ngb\1_firmware\ngb_low_power_consumption_v3\source\config.c" 1
 701  006C              	IF (52<8) AND (52>3)
 701  006C              ;# 701 "c:\users\h469388\desktop\todo\projects\1_ngb\1_firmware\ngb_low_power_consumption_v3\source\config.c" 1
 701  006C              	CALL __DELAY3 + 7 -52
 701  006C              	ENDIF
 701  006C              ;# 701 "c:\users\h469388\desktop\todo\projects\1_ngb\1_firmware\ngb_low_power_consumption_v3\source\config.c" 1
 701  006C              	IF (52< 0404h) AND (52>7)
 701  006C              ;# 701 "c:\users\h469388\desktop\todo\projects\1_ngb\1_firmware\ngb_low_power_consumption_v3\source\config.c" 1
 701  006C  0F0C        	MOV A,52/4-1
 701  006D              ;# 701 "c:\users\h469388\desktop\todo\projects\1_ngb\1_firmware\ngb_low_power_consumption_v3\source\config.c" 1
 701  006D  2000     E  	CALL __DELAYX3 + 3 -(52 MOD 4)
 701  006E              	ENDIF
 701  006E              ;# 701 "c:\users\h469388\desktop\todo\projects\1_ngb\1_firmware\ngb_low_power_consumption_v3\source\config.c" 1
 701  006E              	IF (52< 0x40B) AND (52> 0403h)
 701  006E              ;# 701 "c:\users\h469388\desktop\todo\projects\1_ngb\1_firmware\ngb_low_power_consumption_v3\source\config.c" 1
 701  006E              	MOV A,0 
 701  006E              ;# 701 "c:\users\h469388\desktop\todo\projects\1_ngb\1_firmware\ngb_low_power_consumption_v3\source\config.c" 1
 701  006E              	CALL __DELAYX6 + 0x40a -52
"File: config.c      Assembler  Version HGASM0202      Page 42

 701  006E              	ENDIF
 701  006E              ;# 701 "c:\users\h469388\desktop\todo\projects\1_ngb\1_firmware\ngb_low_power_consumption_v3\source\config.c" 1
 701  006E              	IF (52 >= 0x40b) AND ((((52-9)%0402h)/4+1)>256)
 701  006E              ;# 701 "c:\users\h469388\desktop\todo\projects\1_ngb\1_firmware\ngb_low_power_consumption_v3\source\config.c" 1
 701  006E              	MOV A,(52-9)/0402h
 701  006E              ;# 701 "c:\users\h469388\desktop\todo\projects\1_ngb\1_firmware\ngb_low_power_consumption_v3\source\config.c" 1
 701  006E              	MOV _builtin_holtek_delay_2,A
 701  006E              ;# 701 "c:\users\h469388\desktop\todo\projects\1_ngb\1_firmware\ngb_low_power_consumption_v3\source\config.c" 1
 701  006E              	MOV A,0
 701  006E              ;# 701 "c:\users\h469388\desktop\todo\projects\1_ngb\1_firmware\ngb_low_power_consumption_v3\source\config.c" 1
 701  006E              	CALL __DELAYY5 +5- (((52-9)%0402h)%6)
 701  006E              	ENDIF
 701  006E              ;# 701 "c:\users\h469388\desktop\todo\projects\1_ngb\1_firmware\ngb_low_power_consumption_v3\source\config.c" 1
 701  006E              	IF (52 >= 0x40b) AND ((((52-9)%0402h)/4+1)<=256)
 701  006E              ;# 701 "c:\users\h469388\desktop\todo\projects\1_ngb\1_firmware\ngb_low_power_consumption_v3\source\config.c" 1
 701  006E              	MOV A,(52-9)/0402h
 701  006E              ;# 701 "c:\users\h469388\desktop\todo\projects\1_ngb\1_firmware\ngb_low_power_consumption_v3\source\config.c" 1
 701  006E              	MOV _builtin_holtek_delay_2,A
 701  006E              ;# 701 "c:\users\h469388\desktop\todo\projects\1_ngb\1_firmware\ngb_low_power_consumption_v3\source\config.c" 1
 701  006E              	MOV A,((52-9)%0402h)/4+1
 701  006E              ;# 701 "c:\users\h469388\desktop\todo\projects\1_ngb\1_firmware\ngb_low_power_consumption_v3\source\config.c" 1
 701  006E              	CALL __DELAYY3 +3-(((52-9)%0402h)%4)
 701  006E              	ENDIF
 702  006E              #line 702 "c:\users\h469388\desktop\todo\projects\1_ngb\1_firmware\ngb_low_power_consumption_v3\source\config.c"
 702  006E  1F00     E  	clr ra
 702  006F  3EA5        	sz [37].5
 702  0070  1480     E  	inc ra
 703  0071              #line 703 "c:\users\h469388\desktop\todo\projects\1_ngb\1_firmware\ngb_low_power_consumption_v3\source\config.c"
 703  0071  0726        	mov a,[38]
 703  0072  0AC0        	sub a,192
 703  0073  390A        	snz z
 703  0074  2800     R  	jmp _L57
 703  0075              _L64:
 708  0075              #line 708 "c:\users\h469388\desktop\todo\projects\1_ngb\1_firmware\ngb_low_power_consumption_v3\source\config.c"
 708  0075  0726        	mov a,[38]
 708  0076  0E3F        	and a,63
 708  0077  0080     E  	mov ra,a
 709  0078              #line 709 "c:\users\h469388\desktop\todo\projects\1_ngb\1_firmware\ngb_low_power_consumption_v3\source\config.c"
 709  0078  0700     E  	mov a,ra
 709  0079  0380     E  	addm a,rb
 709  007A  1B80     E  	rrc rb
 710  007B              #line 710 "c:\users\h469388\desktop\todo\projects\1_ngb\1_firmware\ngb_low_power_consumption_v3\source\config.c"
 710  007B  0700     E  	mov a,rb
 710  007C  00A6        	mov [38],a
 713  007D              #line 713 "c:\users\h469388\desktop\todo\projects\1_ngb\1_firmware\ngb_low_power_consumption_v3\source\config.c"
 713  007D  1F00     R  	clr _AfeInit_2[2]
 713  007E  0F02        	mov a,2
 713  007F  0080     R  	mov _AfeInit_2[1],a
 713  0080  1F00     R  	clr _AfeInit_2[0]
 713  0081  0F09        	mov a,9
 713  0082  2000     R  	call _AfeInit
 715  0083              #line 715 "c:\users\h469388\desktop\todo\projects\1_ngb\1_firmware\ngb_low_power_consumption_v3\source\config.c"
 715  0083  0F00        	mov a,0
 715  0084  2000     R  	call _SdOpaSwitch
 717  0085              #line 717 "c:\users\h469388\desktop\todo\projects\1_ngb\1_firmware\ngb_low_power_consumption_v3\source\config.c"
 717  0085  1E00     E  	snz _FuncData[3]
 717  0086  2800     R  	jmp _L66
 719  0087              #line 719 "c:\users\h469388\desktop\todo\projects\1_ngb\1_firmware\ngb_low_power_consumption_v3\source\config.c"
 719  0087  1F00     E  	clr _FuncData[50]
 720  0088              #line 720 "c:\users\h469388\desktop\todo\projects\1_ngb\1_firmware\ngb_low_power_consumption_v3\source\config.c"
"File: config.c      Assembler  Version HGASM0202      Page 43

 720  0088  2800     R  	jmp _L46
 720  0089              _L66:
 722  0089              #line 722 "c:\users\h469388\desktop\todo\projects\1_ngb\1_firmware\ngb_low_power_consumption_v3\source\config.c"
 722  0089  0F01        	mov a,1
 722  008A  0080     E  	mov _FuncData[50],a
 722  008B              _L46:
 722  008B  0003        	ret
 722  008C              _SdCaliOpa endp
 722  008C              #line 722 "c:\users\h469388\desktop\todo\projects\1_ngb\1_firmware\ngb_low_power_consumption_v3\source\config.c"
 722  008C              #pragma debug scope 1 1
 722  008C              ___stmc0 equ [39]
 722  008C              ___stmc1 equ [40]
 722  008C              ___stmdl equ [41]
 722  008C              ___stmal equ [43]
 722  008C              ___stmah equ [44]
 722  008C              public _SmokeBuzzlePwm
 722  008C              #pragma debug scope 13 1
 761  008C              #line 761 "c:\users\h469388\desktop\todo\projects\1_ngb\1_firmware\ngb_low_power_consumption_v3\source\config.c"
 761  0000              _SmokeBuzzlePwm .section 'code'
 761  0000              _SmokeBuzzlePwm proc
 761  0000  00              local _SmokeBuzzlePwm_2 db 1 dup(?)	; 0,1
 761  0000  0080     E  	mov ra,a
 761  0001  0080     R  	mov _SmokeBuzzlePwm_2[0],a
 761  0002              #pragma debug variable 8 13 _SmokeBuzzlePwm_2+0 "flag"
 762  0002              #line 762 "c:\users\h469388\desktop\todo\projects\1_ngb\1_firmware\ngb_low_power_consumption_v3\source\config.c"
 762  0002  1080     E  	sz ra
 762  0003  2800     R  	jmp _L68
 765  0004              #line 765 "c:\users\h469388\desktop\todo\projects\1_ngb\1_firmware\ngb_low_power_consumption_v3\source\config.c"
 765  0004  34CD        	clr [77].1
 766  0005              #line 766 "c:\users\h469388\desktop\todo\projects\1_ngb\1_firmware\ngb_low_power_consumption_v3\source\config.c"
 766  0005  344D        	clr [77].0
 767  0006              #line 767 "c:\users\h469388\desktop\todo\projects\1_ngb\1_firmware\ngb_low_power_consumption_v3\source\config.c"
 767  0006  1F27        	clr [39]
 768  0007              #line 768 "c:\users\h469388\desktop\todo\projects\1_ngb\1_firmware\ngb_low_power_consumption_v3\source\config.c"
 768  0007  1F28        	clr [40]
 769  0008              #line 769 "c:\users\h469388\desktop\todo\projects\1_ngb\1_firmware\ngb_low_power_consumption_v3\source\config.c"
 769  0008  0729        	mov a,[41]
 769  0009  0080     E  	mov ra,a
 769  000A  2800     R  	jmp _L69
 769  000B              _L68:
 771  000B              #line 771 "c:\users\h469388\desktop\todo\projects\1_ngb\1_firmware\ngb_low_power_consumption_v3\source\config.c"
 771  000B  1700     R  	sdza _SmokeBuzzlePwm_2[0]
 771  000C  2800     R  	jmp _L70
 776  000D              #line 776 "c:\users\h469388\desktop\todo\projects\1_ngb\1_firmware\ngb_low_power_consumption_v3\source\config.c"
 776  000D  0F44        	mov a,68
 776  000E  0200     E  	sub a,_FuncData[5]
 776  000F  3C0A        	sz c
 776  0010  2800     R  	jmp _L71
 779  0011              #line 779 "c:\users\h469388\desktop\todo\projects\1_ngb\1_firmware\ngb_low_power_consumption_v3\source\config.c"
 779  0011  0F12        	mov a,18
 779  0012  00A7        	mov [39],a
 779  0013  2800     R  	jmp _L74
 779  0014              _L71:
 784  0014              #line 784 "c:\users\h469388\desktop\todo\projects\1_ngb\1_firmware\ngb_low_power_consumption_v3\source\config.c"
 784  0014  0F14        	mov a,20
 784  0015  00A7        	mov [39],a
 784  0016              _L74:
 785  0016              #line 785 "c:\users\h469388\desktop\todo\projects\1_ngb\1_firmware\ngb_low_power_consumption_v3\source\config.c"
 785  0016  0FA3        	mov a,163
 785  0017  00A8        	mov [40],a
"File: config.c      Assembler  Version HGASM0202      Page 44

 789  0018              #line 789 "c:\users\h469388\desktop\todo\projects\1_ngb\1_firmware\ngb_low_power_consumption_v3\source\config.c"
 789  0018  1FAB        	set [43]
 790  0019              #line 790 "c:\users\h469388\desktop\todo\projects\1_ngb\1_firmware\ngb_low_power_consumption_v3\source\config.c"
 790  0019  0F03        	mov a,3
 790  001A  00AC        	mov [44],a
 807  001B              #line 807 "c:\users\h469388\desktop\todo\projects\1_ngb\1_firmware\ngb_low_power_consumption_v3\source\config.c"
 807  001B  31A7        	set [39].3
 809  001C              #line 809 "c:\users\h469388\desktop\todo\projects\1_ngb\1_firmware\ngb_low_power_consumption_v3\source\config.c"
 809  001C  34CD        	clr [77].1
 810  001D              #line 810 "c:\users\h469388\desktop\todo\projects\1_ngb\1_firmware\ngb_low_power_consumption_v3\source\config.c"
 810  001D  304D        	set [77].0
 812  001E              #line 812 "c:\users\h469388\desktop\todo\projects\1_ngb\1_firmware\ngb_low_power_consumption_v3\source\config.c"
 812  001E  0F01        	mov a,1
 812  001F  0080     E  	mov ra,a
 812  0020  2800     R  	jmp _L69
 812  0021              _L70:
 814  0021              #line 814 "c:\users\h469388\desktop\todo\projects\1_ngb\1_firmware\ngb_low_power_consumption_v3\source\config.c"
 814  0021  0700     R  	mov a,_SmokeBuzzlePwm_2[0]
 814  0022  0A02        	sub a,2
 814  0023  390A        	snz z
 814  0024  2800     R  	jmp _L73
 817  0025              #line 817 "c:\users\h469388\desktop\todo\projects\1_ngb\1_firmware\ngb_low_power_consumption_v3\source\config.c"
 817  0025  0F11        	mov a,17
 817  0026  00A7        	mov [39],a
 818  0027              #line 818 "c:\users\h469388\desktop\todo\projects\1_ngb\1_firmware\ngb_low_power_consumption_v3\source\config.c"
 818  0027  0FA3        	mov a,163
 818  0028  00A8        	mov [40],a
 820  0029              #line 820 "c:\users\h469388\desktop\todo\projects\1_ngb\1_firmware\ngb_low_power_consumption_v3\source\config.c"
 820  0029  1FAB        	set [43]
 821  002A              #line 821 "c:\users\h469388\desktop\todo\projects\1_ngb\1_firmware\ngb_low_power_consumption_v3\source\config.c"
 821  002A  0F03        	mov a,3
 821  002B  00AC        	mov [44],a
 823  002C              #line 823 "c:\users\h469388\desktop\todo\projects\1_ngb\1_firmware\ngb_low_power_consumption_v3\source\config.c"
 823  002C  34CD        	clr [77].1
 824  002D              #line 824 "c:\users\h469388\desktop\todo\projects\1_ngb\1_firmware\ngb_low_power_consumption_v3\source\config.c"
 824  002D  304D        	set [77].0
 826  002E              #line 826 "c:\users\h469388\desktop\todo\projects\1_ngb\1_firmware\ngb_low_power_consumption_v3\source\config.c"
 826  002E  31A7        	set [39].3
 826  002F  0F02        	mov a,2
 826  0030  0080     E  	mov ra,a
 826  0031  2800     R  	jmp _L69
 826  0032              _L73:
 826  0032  0700     R  	mov a,_SmokeBuzzlePwm_2[0]
 826  0033  0080     E  	mov ra,a
 826  0034              _L69:
 830  0034              #line 830 "c:\users\h469388\desktop\todo\projects\1_ngb\1_firmware\ngb_low_power_consumption_v3\source\config.c"
 830  0034  0700     E  	mov a,ra
 830  0035  0003        	ret
 830  0036              _SmokeBuzzlePwm endp
 830  0036              #line 830 "c:\users\h469388\desktop\todo\projects\1_ngb\1_firmware\ngb_low_power_consumption_v3\source\config.c"
 830  0036              #pragma debug scope 1 1
 830  0036              ___sadc1 equ [48]
 830  0036              ___sadc0 equ [47]
 830  0036              ___sadoh equ [46]
 830  0036              ___sadol equ [45]
 830  0036              public _AdcSample
 830  0036              #pragma debug scope 14 1
 890  0036              #line 890 "c:\users\h469388\desktop\todo\projects\1_ngb\1_firmware\ngb_low_power_consumption_v3\source\config.c"
 890  0000              _AdcSample .section 'code'
 890  0000              _AdcSample proc
"File: config.c      Assembler  Version HGASM0202      Page 45

 890  0000  00              local _AdcSample_2 db 1 dup(?)	; 0,1
 890  0000  0080     E  	mov ra,a
 890  0001  0080     R  	mov _AdcSample_2[0],a
 890  0002              #pragma debug variable 8 14 _AdcSample_2+0 "Ch"
 905  0002              #line 905 "c:\users\h469388\desktop\todo\projects\1_ngb\1_firmware\ngb_low_power_consumption_v3\source\config.c"
 905  0002  0700     E  	mov a,ra
 905  0003  0A00        	sub a,0
 905  0004  3D0A        	sz z
 905  0005  2800     R  	jmp _L77
 905  0006  0A01        	sub a,(1)-(0)
 905  0007  3D0A        	sz z
 905  0008  2800     R  	jmp _L89
 905  0009              #line 905 "c:\users\h469388\desktop\todo\projects\1_ngb\1_firmware\ngb_low_power_consumption_v3\source\config.c"
 905  0009  0700     E  	mov a,ra
 905  000A  0A02        	sub a,2
 905  000B  3D0A        	sz z
 905  000C  2800     R  	jmp _L79
 905  000D  0A01        	sub a,(3)-(2)
 905  000E  3D0A        	sz z
 905  000F  2800     R  	jmp _L80
 905  0010  0700     E  	mov a,ra
 905  0011  0A04        	sub a,4
 905  0012  3D0A        	sz z
 905  0013  2800     R  	jmp _L81
 905  0014  0A01        	sub a,(5)-(4)
 905  0015  3D0A        	sz z
 905  0016  2800     R  	jmp _L82
 905  0017  0700     E  	mov a,ra
 905  0018  0A06        	sub a,6
 905  0019  3D0A        	sz z
 905  001A  2800     R  	jmp _L83
 905  001B  0700     E  	mov a,ra
 905  001C  0A07        	sub a,7
 905  001D  390A        	snz z
 905  001E  2800     R  	jmp _L93
 919  001F              #line 919 "c:\users\h469388\desktop\todo\projects\1_ngb\1_firmware\ngb_low_power_consumption_v3\source\config.c"
 919  001F  0F80        	mov a,128
 919  0020  0080     E  	mov rb,a
 919  0021  2800     R  	jmp _L94
 919  0022              _L77:
 908  0022              #line 908 "c:\users\h469388\desktop\todo\projects\1_ngb\1_firmware\ngb_low_power_consumption_v3\source\config.c"
 908  0022  1F00     E  	clr rb
 908  0023  1F00     E  	clr ra
 908  0024  2800     R  	jmp _L78
 908  0025              _L79:
 910  0025              #line 910 "c:\users\h469388\desktop\todo\projects\1_ngb\1_firmware\ngb_low_power_consumption_v3\source\config.c"
 910  0025  1F00     E  	clr rb
 910  0026  0F02        	mov a,2
 910  0027  0080     E  	mov ra,a
 910  0028  2800     R  	jmp _L78
 910  0029              _L80:
 911  0029              #line 911 "c:\users\h469388\desktop\todo\projects\1_ngb\1_firmware\ngb_low_power_consumption_v3\source\config.c"
 911  0029  1F00     E  	clr rb
 911  002A  0F03        	mov a,3
 911  002B  0080     E  	mov ra,a
 911  002C  2800     R  	jmp _L78
 911  002D              _L81:
 913  002D              #line 913 "c:\users\h469388\desktop\todo\projects\1_ngb\1_firmware\ngb_low_power_consumption_v3\source\config.c"
 913  002D  0F20        	mov a,32
 913  002E  0080     E  	mov rb,a
"File: config.c      Assembler  Version HGASM0202      Page 46

 913  002F  2800     R  	jmp _L94
 913  0030              _L82:
 917  0030              #line 917 "c:\users\h469388\desktop\todo\projects\1_ngb\1_firmware\ngb_low_power_consumption_v3\source\config.c"
 917  0030  0F40        	mov a,64
 917  0031  0080     E  	mov rb,a
 917  0032  2800     R  	jmp _L94
 917  0033              _L83:
 918  0033              #line 918 "c:\users\h469388\desktop\todo\projects\1_ngb\1_firmware\ngb_low_power_consumption_v3\source\config.c"
 918  0033  0F60        	mov a,96
 918  0034  0080     E  	mov rb,a
 918  0035              _L94:
 919  0035              #line 919 "c:\users\h469388\desktop\todo\projects\1_ngb\1_firmware\ngb_low_power_consumption_v3\source\config.c"
 919  0035  0F08        	mov a,8
 919  0036  0080     E  	mov ra,a
 919  0037  2800     R  	jmp _L78
 919  0038              _L89:
 909  0038              #line 909 "c:\users\h469388\desktop\todo\projects\1_ngb\1_firmware\ngb_low_power_consumption_v3\source\config.c"
 909  0038  1F00     E  	clr rb
 909  0039  0F01        	mov a,1
 909  003A  0080     E  	mov ra,a
 909  003B              _L78:
 931  003B              #line 931 "c:\users\h469388\desktop\todo\projects\1_ngb\1_firmware\ngb_low_power_consumption_v3\source\config.c"
 931  003B  0700     E  	mov a,rb
 931  003C  0D0A        	or a,10
 931  003D  00B0        	mov [48],a
 937  003E              #line 937 "c:\users\h469388\desktop\todo\projects\1_ngb\1_firmware\ngb_low_power_consumption_v3\source\config.c"
 937  003E  0700     E  	mov a,ra
 937  003F  00AF        	mov [47],a
 938  0040              #line 938 "c:\users\h469388\desktop\todo\projects\1_ngb\1_firmware\ngb_low_power_consumption_v3\source\config.c"
 938  0040  32AF        	set [47].5
 940  0041              #line 940 "c:\users\h469388\desktop\todo\projects\1_ngb\1_firmware\ngb_low_power_consumption_v3\source\config.c"
 940  0041              ;# 940 "c:\users\h469388\desktop\todo\projects\1_ngb\1_firmware\ngb_low_power_consumption_v3\source\config.c" 1
 940  0041              	IF 8>263690
 940  0041              ;# 940 "c:\users\h469388\desktop\todo\projects\1_ngb\1_firmware\ngb_low_power_consumption_v3\source\config.c" 1
 940  0041              	ERRMESSAGE 'the value 8of the argument exceeds the maxinum 263690'
 940  0041              	ENDIF
 940  0041              ;# 940 "c:\users\h469388\desktop\todo\projects\1_ngb\1_firmware\ngb_low_power_consumption_v3\source\config.c" 1
 940  0041              	IF 8<0
 940  0041              ;# 940 "c:\users\h469388\desktop\todo\projects\1_ngb\1_firmware\ngb_low_power_consumption_v3\source\config.c" 1
 940  0041              	ERRMESSAGE 'the value 8 of the argument exceeds the mininum 0'
 940  0041              	ENDIF
 940  0041              ;# 940 "c:\users\h469388\desktop\todo\projects\1_ngb\1_firmware\ngb_low_power_consumption_v3\source\config.c" 1
 940  0041              	IF 8==0
 940  0041              ;# 940 "c:\users\h469388\desktop\todo\projects\1_ngb\1_firmware\ngb_low_power_consumption_v3\source\config.c" 1
 940  0041              	JMP $
 940  0041              	ENDIF
 940  0041              ;# 940 "c:\users\h469388\desktop\todo\projects\1_ngb\1_firmware\ngb_low_power_consumption_v3\source\config.c" 1
 940  0041              	IF 8==1
 940  0041              ;# 940 "c:\users\h469388\desktop\todo\projects\1_ngb\1_firmware\ngb_low_power_consumption_v3\source\config.c" 1
 940  0041              	NOP
 940  0041              	ENDIF
 940  0041              ;# 940 "c:\users\h469388\desktop\todo\projects\1_ngb\1_firmware\ngb_low_power_consumption_v3\source\config.c" 1
 940  0041              	IF 8==2
 940  0041              ;# 940 "c:\users\h469388\desktop\todo\projects\1_ngb\1_firmware\ngb_low_power_consumption_v3\source\config.c" 1
 940  0041              	NOP
 940  0041              ;# 940 "c:\users\h469388\desktop\todo\projects\1_ngb\1_firmware\ngb_low_power_consumption_v3\source\config.c" 1
 940  0041              	NOP
 940  0041              	ENDIF
 940  0041              ;# 940 "c:\users\h469388\desktop\todo\projects\1_ngb\1_firmware\ngb_low_power_consumption_v3\source\config.c" 1
 940  0041              	IF 8==3
"File: config.c      Assembler  Version HGASM0202      Page 47

 940  0041              ;# 940 "c:\users\h469388\desktop\todo\projects\1_ngb\1_firmware\ngb_low_power_consumption_v3\source\config.c" 1
 940  0041              	NOP
 940  0041              ;# 940 "c:\users\h469388\desktop\todo\projects\1_ngb\1_firmware\ngb_low_power_consumption_v3\source\config.c" 1
 940  0041              	NOP
 940  0041              ;# 940 "c:\users\h469388\desktop\todo\projects\1_ngb\1_firmware\ngb_low_power_consumption_v3\source\config.c" 1
 940  0041              	NOP
 940  0041              	ENDIF
 940  0041              ;# 940 "c:\users\h469388\desktop\todo\projects\1_ngb\1_firmware\ngb_low_power_consumption_v3\source\config.c" 1
 940  0041              	IF (8<8) AND (8>3)
 940  0041              ;# 940 "c:\users\h469388\desktop\todo\projects\1_ngb\1_firmware\ngb_low_power_consumption_v3\source\config.c" 1
 940  0041              	CALL __DELAY3 + 7 -8
 940  0041              	ENDIF
 940  0041              ;# 940 "c:\users\h469388\desktop\todo\projects\1_ngb\1_firmware\ngb_low_power_consumption_v3\source\config.c" 1
 940  0041              	IF (8< 0404h) AND (8>7)
 940  0041              ;# 940 "c:\users\h469388\desktop\todo\projects\1_ngb\1_firmware\ngb_low_power_consumption_v3\source\config.c" 1
 940  0041  0F01        	MOV A,8/4-1
 940  0042              ;# 940 "c:\users\h469388\desktop\todo\projects\1_ngb\1_firmware\ngb_low_power_consumption_v3\source\config.c" 1
 940  0042  2000     E  	CALL __DELAYX3 + 3 -(8 MOD 4)
 940  0043              	ENDIF
 940  0043              ;# 940 "c:\users\h469388\desktop\todo\projects\1_ngb\1_firmware\ngb_low_power_consumption_v3\source\config.c" 1
 940  0043              	IF (8< 0x40B) AND (8> 0403h)
 940  0043              ;# 940 "c:\users\h469388\desktop\todo\projects\1_ngb\1_firmware\ngb_low_power_consumption_v3\source\config.c" 1
 940  0043              	MOV A,0 
 940  0043              ;# 940 "c:\users\h469388\desktop\todo\projects\1_ngb\1_firmware\ngb_low_power_consumption_v3\source\config.c" 1
 940  0043              	CALL __DELAYX6 + 0x40a -8
 940  0043              	ENDIF
 940  0043              ;# 940 "c:\users\h469388\desktop\todo\projects\1_ngb\1_firmware\ngb_low_power_consumption_v3\source\config.c" 1
 940  0043              	IF (8 >= 0x40b) AND ((((8-9)%0402h)/4+1)>256)
 940  0043              ;# 940 "c:\users\h469388\desktop\todo\projects\1_ngb\1_firmware\ngb_low_power_consumption_v3\source\config.c" 1
 940  0043              	MOV A,(8-9)/0402h
 940  0043              ;# 940 "c:\users\h469388\desktop\todo\projects\1_ngb\1_firmware\ngb_low_power_consumption_v3\source\config.c" 1
 940  0043              	MOV _builtin_holtek_delay_2,A
 940  0043              ;# 940 "c:\users\h469388\desktop\todo\projects\1_ngb\1_firmware\ngb_low_power_consumption_v3\source\config.c" 1
 940  0043              	MOV A,0
 940  0043              ;# 940 "c:\users\h469388\desktop\todo\projects\1_ngb\1_firmware\ngb_low_power_consumption_v3\source\config.c" 1
 940  0043              	CALL __DELAYY5 +5- (((8-9)%0402h)%6)
 940  0043              	ENDIF
 940  0043              ;# 940 "c:\users\h469388\desktop\todo\projects\1_ngb\1_firmware\ngb_low_power_consumption_v3\source\config.c" 1
 940  0043              	IF (8 >= 0x40b) AND ((((8-9)%0402h)/4+1)<=256)
 940  0043              ;# 940 "c:\users\h469388\desktop\todo\projects\1_ngb\1_firmware\ngb_low_power_consumption_v3\source\config.c" 1
 940  0043              	MOV A,(8-9)/0402h
 940  0043              ;# 940 "c:\users\h469388\desktop\todo\projects\1_ngb\1_firmware\ngb_low_power_consumption_v3\source\config.c" 1
 940  0043              	MOV _builtin_holtek_delay_2,A
 940  0043              ;# 940 "c:\users\h469388\desktop\todo\projects\1_ngb\1_firmware\ngb_low_power_consumption_v3\source\config.c" 1
 940  0043              	MOV A,((8-9)%0402h)/4+1
 940  0043              ;# 940 "c:\users\h469388\desktop\todo\projects\1_ngb\1_firmware\ngb_low_power_consumption_v3\source\config.c" 1
 940  0043              	CALL __DELAYY3 +3-(((8-9)%0402h)%4)
 940  0043              	ENDIF
 944  0043              #line 944 "c:\users\h469388\desktop\todo\projects\1_ngb\1_firmware\ngb_low_power_consumption_v3\source\config.c"
 944  0043  37AF        	clr [47].7
 945  0044              #line 945 "c:\users\h469388\desktop\todo\projects\1_ngb\1_firmware\ngb_low_power_consumption_v3\source\config.c"
 945  0044  33AF        	set [47].7
 946  0045              #line 946 "c:\users\h469388\desktop\todo\projects\1_ngb\1_firmware\ngb_low_power_consumption_v3\source\config.c"
 946  0045  37AF        	clr [47].7
 947  0046              #line 947 "c:\users\h469388\desktop\todo\projects\1_ngb\1_firmware\ngb_low_power_consumption_v3\source\config.c"
 947  0046  0FE9        	mov a,-23
 947  0047  0080     E  	mov rb,a
 947  0048  0F03        	mov a,3
 947  0049  0080     E  	mov rc,a
 947  004A              _L85:
"File: config.c      Assembler  Version HGASM0202      Page 48

 947  004A  3B2F        	snz [47].6
 947  004B  2800     R  	jmp _L86
 947  004C  0FFF        	mov a,255
 947  004D  0380     E  	addm a,rb
 947  004E  0FFF        	mov a,255
 947  004F  1380     E  	adcm a,rc
 947  0050  0700     E  	mov a,rb
 947  0051  0500     E  	or a,rc
 947  0052  390A        	snz z
 947  0053  2800     R  	jmp _L85
 947  0054              _L86:
 953  0054              #line 953 "c:\users\h469388\desktop\todo\projects\1_ngb\1_firmware\ngb_low_power_consumption_v3\source\config.c"
 953  0054  072E        	mov a,[46]
 953  0055  0080     E  	mov rc,a
 953  0056  1F00     E  	clr rb
 953  0057  072D        	mov a,[45]
 953  0058  0580     E  	orm a,rb
 954  0059              #line 954 "c:\users\h469388\desktop\todo\projects\1_ngb\1_firmware\ngb_low_power_consumption_v3\source\config.c"
 954  0059  36AF        	clr [47].5
 958  005A              #line 958 "c:\users\h469388\desktop\todo\projects\1_ngb\1_firmware\ngb_low_power_consumption_v3\source\config.c"
 958  005A  0F04        	mov a,4
 958  005B              _LI1:
 958  005B  340A        	clr c
 958  005C  1B80     E  	rrc rc
 958  005D  1B80     E  	rrc rb
 958  005E  1785        	sdz acc
 958  005F  2800     R  	jmp _LI1
 958  0060  2800     R  	jmp _L76
 958  0061              _L93:
 924  0061              #line 924 "c:\users\h469388\desktop\todo\projects\1_ngb\1_firmware\ngb_low_power_consumption_v3\source\config.c"
 924  0061  1F00     E  	clr rb
 924  0062  1F00     E  	clr rc
 924  0063              _L76:
 959  0063              #line 959 "c:\users\h469388\desktop\todo\projects\1_ngb\1_firmware\ngb_low_power_consumption_v3\source\config.c"
 959  0063  0700     E  	mov a,rb
 959  0064  0080     E  	mov ra,a
 959  0065  0700     E  	mov a,rc
 959  0066  0080     E  	mov rb,a
 959  0067  0003        	ret
 959  0068              _AdcSample endp
 959  0068              #line 959 "c:\users\h469388\desktop\todo\projects\1_ngb\1_firmware\ngb_low_power_consumption_v3\source\config.c"
 959  0068              #pragma debug scope 1 1
 959  0068              public _timeLoopCounter
 959  0000              @HCCINIT	.section 'data'
  19  0000              #line 19 "c:\users\h469388\desktop\todo\projects\1_ngb\1_firmware\ngb_low_power_consumption_v3\source\config.c"
  19  0000              @HCCINIT_timeLoopCounter .section 'data'
  19  0000              _timeLoopCounter label byte
  19  0000              #pragma debug variable 8 1 _timeLoopCounter "timeLoopCounter"
  19  0000              	db 0
  19  0000              @ROMDATA_BASE .section inpage 'code'
  19  0000              	db 0
  19  0001              @HCCINIT_timeLoopCounter .section 'data'
  19  0001              #pragma debug struct_end
  19  0001              #pragma debug struct_end
  19  0001              #pragma debug union_end
  19  0001              #pragma debug union_end
  19  0001              #pragma debug variable 43 1 ___status "__status" 1
  19  0001              #pragma debug struct_end
  19  0001              #pragma debug struct_end
  19  0001              #pragma debug union_end
"File: config.c      Assembler  Version HGASM0202      Page 49

  19  0001              #pragma debug union_end
  19  0001              #pragma debug variable 45 1 ___tb0c "__tb0c" 1
  19  0001              #pragma debug struct_end
  19  0001              #pragma debug struct_end
  19  0001              #pragma debug union_end
  19  0001              #pragma debug union_end
  19  0001              #pragma debug variable 47 1 ___tb1c "__tb1c" 1
  19  0001              #pragma debug struct_end
  19  0001              #pragma debug struct_end
  19  0001              #pragma debug union_end
  19  0001              #pragma debug union_end
  19  0001              #pragma debug variable 49 1 ___scc "__scc" 1
  19  0001              #pragma debug struct_end
  19  0001              #pragma debug struct_end
  19  0001              #pragma debug union_end
  19  0001              #pragma debug union_end
  19  0001              #pragma debug variable 51 1 ___hircc "__hircc" 1
  19  0001              #pragma debug struct_end
  19  0001              #pragma debug struct_end
  19  0001              #pragma debug union_end
  19  0001              #pragma debug union_end
  19  0001              #pragma debug variable 53 1 ___pa "__pa" 1
  19  0001              #pragma debug struct_end
  19  0001              #pragma debug struct_end
  19  0001              #pragma debug union_end
  19  0001              #pragma debug union_end
  19  0001              #pragma debug variable 55 1 ___pac "__pac" 1
  19  0001              #pragma debug struct_end
  19  0001              #pragma debug struct_end
  19  0001              #pragma debug union_end
  19  0001              #pragma debug union_end
  19  0001              #pragma debug variable 57 1 ___papu "__papu" 1
  19  0001              #pragma debug struct_end
  19  0001              #pragma debug struct_end
  19  0001              #pragma debug union_end
  19  0001              #pragma debug union_end
  19  0001              #pragma debug variable 59 1 ___pawu "__pawu" 1
  19  0001              #pragma debug struct_end
  19  0001              #pragma debug struct_end
  19  0001              #pragma debug union_end
  19  0001              #pragma debug union_end
  19  0001              #pragma debug variable 61 1 ___pb "__pb" 1
  19  0001              #pragma debug struct_end
  19  0001              #pragma debug struct_end
  19  0001              #pragma debug union_end
  19  0001              #pragma debug union_end
  19  0001              #pragma debug variable 63 1 ___pbc "__pbc" 1
  19  0001              #pragma debug struct_end
  19  0001              #pragma debug struct_end
  19  0001              #pragma debug union_end
  19  0001              #pragma debug union_end
  19  0001              #pragma debug variable 65 1 ___pbpu "__pbpu" 1
  19  0001              #pragma debug struct_end
  19  0001              #pragma debug struct_end
  19  0001              #pragma debug union_end
  19  0001              #pragma debug union_end
  19  0001              #pragma debug variable 67 1 ___sledc "__sledc" 1
  19  0001              #pragma debug struct_end
  19  0001              #pragma debug struct_end
  19  0001              #pragma debug union_end
"File: config.c      Assembler  Version HGASM0202      Page 50

  19  0001              #pragma debug union_end
  19  0001              #pragma debug variable 69 1 ___pscr "__pscr" 1
  19  0001              #pragma debug struct_end
  19  0001              #pragma debug struct_end
  19  0001              #pragma debug union_end
  19  0001              #pragma debug union_end
  19  0001              #pragma debug variable 71 1 ___sdsw "__sdsw" 1
  19  0001              #pragma debug struct_end
  19  0001              #pragma debug struct_end
  19  0001              #pragma debug union_end
  19  0001              #pragma debug union_end
  19  0001              #pragma debug variable 73 1 ___sdpgac0 "__sdpgac0" 1
  19  0001              #pragma debug struct_end
  19  0001              #pragma debug struct_end
  19  0001              #pragma debug union_end
  19  0001              #pragma debug union_end
  19  0001              #pragma debug variable 75 1 ___sdpgac1 "__sdpgac1" 1
  19  0001              #pragma debug struct_end
  19  0001              #pragma debug struct_end
  19  0001              #pragma debug union_end
  19  0001              #pragma debug union_end
  19  0001              #pragma debug variable 77 1 ___sda0c "__sda0c" 1
  19  0001              #pragma debug struct_end
  19  0001              #pragma debug struct_end
  19  0001              #pragma debug union_end
  19  0001              #pragma debug union_end
  19  0001              #pragma debug variable 79 1 ___sda0vos "__sda0vos" 1
  19  0001              #pragma debug struct_end
  19  0001              #pragma debug struct_end
  19  0001              #pragma debug union_end
  19  0001              #pragma debug union_end
  19  0001              #pragma debug variable 81 1 ___sda1c "__sda1c" 1
  19  0001              #pragma debug struct_end
  19  0001              #pragma debug struct_end
  19  0001              #pragma debug union_end
  19  0001              #pragma debug union_end
  19  0001              #pragma debug variable 83 1 ___sda1vos "__sda1vos" 1
  19  0001              #pragma debug struct_end
  19  0001              #pragma debug struct_end
  19  0001              #pragma debug union_end
  19  0001              #pragma debug union_end
  19  0001              #pragma debug variable 85 1 ___stmc0 "__stmc0" 1
  19  0001              #pragma debug struct_end
  19  0001              #pragma debug struct_end
  19  0001              #pragma debug union_end
  19  0001              #pragma debug union_end
  19  0001              #pragma debug variable 87 1 ___stmc1 "__stmc1" 1
  19  0001              #pragma debug variable 8 1 ___stmdl "__stmdl" 1
  19  0001              #pragma debug variable 8 1 ___stmal "__stmal" 1
  19  0001              #pragma debug variable 8 1 ___stmah "__stmah" 1
  19  0001              #pragma debug variable 8 1 ___sadol "__sadol" 1
  19  0001              #pragma debug variable 8 1 ___sadoh "__sadoh" 1
  19  0001              #pragma debug struct_end
  19  0001              #pragma debug struct_end
  19  0001              #pragma debug union_end
  19  0001              #pragma debug union_end
  19  0001              #pragma debug variable 89 1 ___sadc0 "__sadc0" 1
  19  0001              #pragma debug struct_end
  19  0001              #pragma debug struct_end
  19  0001              #pragma debug union_end
"File: config.c      Assembler  Version HGASM0202      Page 51

  19  0001              #pragma debug union_end
  19  0001              #pragma debug variable 91 1 ___sadc1 "__sadc1" 1
  19  0001              #pragma debug struct_end
  19  0001              #pragma debug struct_end
  19  0001              #pragma debug union_end
  19  0001              #pragma debug union_end
  19  0001              #pragma debug variable 93 1 ___pltsw "__pltsw" 1
  19  0001              #pragma debug struct_end
  19  0001              #pragma debug struct_end
  19  0001              #pragma debug union_end
  19  0001              #pragma debug union_end
  19  0001              #pragma debug variable 95 1 ___pltdacc "__pltdacc" 1
  19  0001              #pragma debug variable 8 1 ___pltda0l "__pltda0l" 1
  19  0001              #pragma debug variable 8 1 ___pltda1l "__pltda1l" 1
  19  0001              #pragma debug variable 8 1 ___pltda2l "__pltda2l" 1
  19  0001              #pragma debug struct_end
  19  0001              #pragma debug struct_end
  19  0001              #pragma debug union_end
  19  0001              #pragma debug union_end
  19  0001              #pragma debug variable 97 1 ___pltc0c "__pltc0c" 1
  19  0001              #pragma debug struct_end
  19  0001              #pragma debug struct_end
  19  0001              #pragma debug union_end
  19  0001              #pragma debug union_end
  19  0001              #pragma debug variable 99 1 ___pltc0vos "__pltc0vos" 1
  19  0001              #pragma debug struct_end
  19  0001              #pragma debug struct_end
  19  0001              #pragma debug union_end
  19  0001              #pragma debug union_end
  19  0001              #pragma debug variable 101 1 ___pltc1c "__pltc1c" 1
  19  0001              #pragma debug struct_end
  19  0001              #pragma debug struct_end
  19  0001              #pragma debug union_end
  19  0001              #pragma debug union_end
  19  0001              #pragma debug variable 103 1 ___pltc1vos "__pltc1vos" 1
  19  0001              #pragma debug struct_end
  19  0001              #pragma debug struct_end
  19  0001              #pragma debug union_end
  19  0001              #pragma debug union_end
  19  0001              #pragma debug variable 105 1 ___pltchyc "__pltchyc" 1
  19  0001              #pragma debug struct_end
  19  0001              #pragma debug struct_end
  19  0001              #pragma debug union_end
  19  0001              #pragma debug union_end
  19  0001              #pragma debug variable 107 1 ___pltac "__pltac" 1
  19  0001              #pragma debug struct_end
  19  0001              #pragma debug struct_end
  19  0001              #pragma debug union_end
  19  0001              #pragma debug union_end
  19  0001              #pragma debug variable 109 1 ___pltavos "__pltavos" 1
  19  0001              #pragma debug struct_end
  19  0001              #pragma debug struct_end
  19  0001              #pragma debug union_end
  19  0001              #pragma debug union_end
  19  0001              #pragma debug variable 111 1 ___wdtc "__wdtc" 1
  19  0001              #pragma debug struct_end
  19  0001              #pragma debug struct_end
  19  0001              #pragma debug union_end
  19  0001              #pragma debug union_end
  19  0001              #pragma debug variable 113 1 ___intc0 "__intc0" 1
"File: config.c      Assembler  Version HGASM0202      Page 52

  19  0001              #pragma debug struct_end
  19  0001              #pragma debug struct_end
  19  0001              #pragma debug union_end
  19  0001              #pragma debug union_end
  19  0001              #pragma debug variable 115 1 ___intc2 "__intc2" 1
  19  0001              #pragma debug struct_end
  19  0001              #pragma debug struct_end
  19  0001              #pragma debug union_end
  19  0001              #pragma debug union_end
  19  0001              #pragma debug variable 117 1 ___intc3 "__intc3" 1
  19  0001              #pragma debug struct_end
  19  0001              #pragma debug struct_end
  19  0001              #pragma debug union_end
  19  0001              #pragma debug union_end
  19  0001              #pragma debug variable 119 1 ___pas0 "__pas0" 1
  19  0001              #pragma debug struct_end
  19  0001              #pragma debug struct_end
  19  0001              #pragma debug union_end
  19  0001              #pragma debug union_end
  19  0001              #pragma debug variable 121 1 ___pas1 "__pas1" 1
  19  0001              #pragma debug struct_end
  19  0001              #pragma debug struct_end
  19  0001              #pragma debug union_end
  19  0001              #pragma debug union_end
  19  0001              #pragma debug variable 123 1 ___pbs0 "__pbs0" 1
  19  0001              #pragma debug struct_end
  19  0001              #pragma debug struct_end
  19  0001              #pragma debug union_end
  19  0001              #pragma debug union_end
  19  0001              #pragma debug variable 125 1 ___ifs0 "__ifs0" 1
  19  0001              #pragma debug struct_end
  19  0001              #pragma debug struct_end
  19  0001              #pragma debug union_end
  19  0001              #pragma debug union_end
  19  0001              #pragma debug variable 127 1 ___ptmc0 "__ptmc0" 1
  19  0001              #pragma debug struct_end
  19  0001              #pragma debug struct_end
  19  0001              #pragma debug union_end
  19  0001              #pragma debug union_end
  19  0001              #pragma debug variable 129 1 ___ptmc1 "__ptmc1" 1
  19  0001              #pragma debug struct_end
  19  0001              #pragma debug struct_end
  19  0001              #pragma debug union_end
  19  0001              #pragma debug union_end
  19  0001              #pragma debug variable 131 1 ___ptmc2 "__ptmc2" 1
  19  0001              #pragma debug struct_end
  19  0001              #pragma debug struct_end
  19  0001              #pragma debug union_end
  19  0001              #pragma debug union_end
  19  0001              #pragma debug variable 133 1 ___isgenc "__isgenc" 1
  19  0001              #pragma debug variable 8 1 ___isgdata0 "__isgdata0" 1
  19  0001              #pragma debug variable 8 1 ___isgdata1 "__isgdata1" 1
  19  0001              
  19  0001              ; output external variables
  19  0001              extern _FuncData:byte
  19  0001              
  19  0001              ; 
  19  0001              ; Generated by holtek-gcc v3.19, Mon Oct 10 15:45:31 2022
  19  0001              ; Rebuild 718
  19  0001              ; end of file
"File: config.c      Assembler  Version HGASM0202      Page 53



        0 Errors, 0