"File: function.c    Assembler  Version HGASM0202      Page 1


   1  0000              ; Generated by holtek-gcc v3.19, Mon Oct 10 15:45:31 2022
   2  0000              ; 
   3  0000              ; Configuration:
   4  0000              ;       with long instruction
   5  0000              ;       Single ROM, Multi-RAM
   6  0000              ;       bits_per_rom_unit:16
   7  0000              ;       with mp1
   8  0000              ;       with tbhp, address(0x9)
   9  0000              ;          Use tabrd-const
  10  0000              ;       
  11  0000              ; SFR address of long-instruction arch:
  12  0000              ;    mp0 = -1,1,0
  13  0000              ;    mp1 = 4,3,2
  14  0000              ;    mp2 = 14,13,12
  15  0000              ;    tbp = 9,7,8
  16  0000              ;    acc = 5
  17  0000              ;    pcl = 6
  18  0000              ;    status = 10
  19  0000              ;    bp = 11
  20  0000              ;    intc = 72
  21  0000              ;       
  22  0000              ;       
  23  0000              ; use 'tabrdc' instead of 'tabrd'
  24  0000              ;       
  25  0000              
  26  0000              #pragma translator "holtek-gcc 4.6.4" "3.19" "build 20130711"
  27  0000              ; Rebuild 718
  28  0000              
  29  0000              ir equ [2]
  30  0000              mp equ [3]
  31  0000              sbp equ [4]
  32  0000              acc equ [5]
  33  0000              bp equ [11]
  34  0000              tblp equ [7]
  35  0000              tbhp equ [9]
  36  0000              status equ [10]
  37  0000              c equ [10].0
  38  0000              ac equ [10].1
  39  0000              z equ [10].2
  40  0000              ov equ [10].3
  41  0000              cz equ [10].6
  42  0000              sc equ [10].7
  43  0000              intc equ [72]
  44  0000              
  45  0000              extern ra:byte
  46  0000              extern rb:byte
  47  0000              extern rc:byte
  48  0000              extern rd:byte
  49  0000              extern re:byte
  50  0000              extern rf:byte
  51  0000              extern rg:byte
  52  0000              extern rh:byte
  53  0000              extern _Crom2Prom:near
  54  0000              extern _Crom2PromNext:near
  55  0000              
  56  0000              RAMBANK 0 @BITDATASEC, @BITDATASEC1
  57  0000              @HCCINIT	.section 'data'
  58  0000              @HCCINIT0	.section 'data'
  59  0000              @BITDATASEC	 .section 'data'
"File: function.ASM  Assembler  Version HGASM0202      Page 2

  60  0000              @BITDATASEC1	 .section 'data'
  61  0000              
  62  0000              #pragma debug scope 1 1
  63  0000              	extern __DELAY3:near
  64  0000              	extern __DELAYX3:near
  65  0000              	extern __DELAYX6:near
  66  0000              	extern __DELAYY5:near
  67  0000              	extern __DELAYY3:near
  68  0000              	extern _builtin_holtek_delay_2:byte
  69  0000              ___pa equ [20]
  70  0000              public _LedCtrl
  71  0000              #pragma debug scope 2 1

  24  0000              #line 24 "c:\users\h469388\desktop\todo\projects\1_ngb\1_firmware\ngb_low_power_consumption_v3\source\function.c"
  24  0000              _LedCtrl .section 'code'
  24  0000              _LedCtrl proc
  26  0000              #line 26 "c:\users\h469388\desktop\todo\projects\1_ngb\1_firmware\ngb_low_power_consumption_v3\source\function.c"
  26  0000  0700     E  	mov a,_FuncData[19]
  26  0001  0AA1        	sub a,161
  26  0002  390A        	snz z
  26  0003  2800     R  	jmp _L2
  28  0004              #line 28 "c:\users\h469388\desktop\todo\projects\1_ngb\1_firmware\ngb_low_power_consumption_v3\source\function.c"
  28  0004  3014        	set [20].0
  28  0005  2800     R  	jmp _L1
  28  0006              _L2:
  32  0006              #line 32 "c:\users\h469388\desktop\todo\projects\1_ngb\1_firmware\ngb_low_power_consumption_v3\source\function.c"
  32  0006  3414        	clr [20].0
  32  0007              _L1:
  32  0007  0003        	ret
  32  0008              _LedCtrl endp
  32  0008              #line 32 "c:\users\h469388\desktop\todo\projects\1_ngb\1_firmware\ngb_low_power_consumption_v3\source\function.c"
  32  0008              #pragma debug scope 1 1
  32  0008              ___isgenc equ [93]
  32  0008              public _SmokeDetector
  32  0008              #pragma debug scope 3 1
  47  0008              #line 47 "c:\users\h469388\desktop\todo\projects\1_ngb\1_firmware\ngb_low_power_consumption_v3\source\function.c"
  47  0000              _SmokeDetector .section 'code'
  47  0000              _SmokeDetector proc
  47  0000  0009[           local _SmokeDetector_2 db 9 dup(?)	; 0,9
            00
            ]
  53  0009              #line 53 "c:\users\h469388\desktop\todo\projects\1_ngb\1_firmware\ngb_low_power_consumption_v3\source\function.c"
  53  0000  0700     E  	mov a,_SysData[0]
  53  0001  0080     E  	mov ra,a
  53  0002  0700     E  	mov a,ra
  53  0003  0080     E  	mov rb,a
  53  0004  3000     E  	set rb.1
  53  0005  0700     E  	mov a,rb
  53  0006  0080     E  	mov _SysData[0],a
  55  0007              #line 55 "c:\users\h469388\desktop\todo\projects\1_ngb\1_firmware\ngb_low_power_consumption_v3\source\function.c"
  55  0007  1080     E  	sz _CommData[0]
  55  0008  2800     R  	jmp _L5
  77  0009              #line 77 "c:\users\h469388\desktop\todo\projects\1_ngb\1_firmware\ngb_low_power_consumption_v3\source\function.c"
  77  0009  0700     E  	mov a,_FuncData[19]
  77  000A  0AC1        	sub a,193
  77  000B  390A        	snz z
  77  000C  2800     R  	jmp _L8
  79  000D              #line 79 "c:\users\h469388\desktop\todo\projects\1_ngb\1_firmware\ngb_low_power_consumption_v3\source\function.c"
  79  000D  3400     E  	clr ra.1
  79  000E  0700     E  	mov a,ra
"File: function.c    Assembler  Version HGASM0202      Page 3

  79  000F  0080     E  	mov _SysData[0],a
  80  0010              #line 80 "c:\users\h469388\desktop\todo\projects\1_ngb\1_firmware\ngb_low_power_consumption_v3\source\function.c"
  80  0010  0F80        	mov a,128
  80  0011  0080     E  	mov _FuncData[0],a
  81  0012              #line 81 "c:\users\h469388\desktop\todo\projects\1_ngb\1_firmware\ngb_low_power_consumption_v3\source\function.c"
  81  0012  2800     R  	jmp _L5
  81  0013              _L8:
  85  0013              #line 85 "c:\users\h469388\desktop\todo\projects\1_ngb\1_firmware\ngb_low_power_consumption_v3\source\function.c"
  85  0013  3C00     E  	sz ra.4
  85  0014  2800     R  	jmp _L5
 102  0015              #line 102 "c:\users\h469388\desktop\todo\projects\1_ngb\1_firmware\ngb_low_power_consumption_v3\source\function.c"
 102  0015  1F00     E  	clr _AfeInit_2[2]
 102  0016  0F02        	mov a,2
 102  0017  0080     E  	mov _AfeInit_2[1],a
 102  0018  1F00     E  	clr _AfeInit_2[0]
 102  0019  0F09        	mov a,9
 102  001A  2000     E  	call _AfeInit
 109  001B              #line 109 "c:\users\h469388\desktop\todo\projects\1_ngb\1_firmware\ngb_low_power_consumption_v3\source\function.c"
 109  001B  1F00     E  	clr _FuncData[3]
 111  001C              #line 111 "c:\users\h469388\desktop\todo\projects\1_ngb\1_firmware\ngb_low_power_consumption_v3\source\function.c"
 111  001C  3194        	set [20].3
 113  001D              #line 113 "c:\users\h469388\desktop\todo\projects\1_ngb\1_firmware\ngb_low_power_consumption_v3\source\function.c"
 113  001D  0F01        	mov a,1
 113  001E  2000     E  	call _SdOpaSwitch
 117  001F              #line 117 "c:\users\h469388\desktop\todo\projects\1_ngb\1_firmware\ngb_low_power_consumption_v3\source\function.c"
 117  001F  0F02        	mov a,2
 117  0020  2000     E  	call _AdcSample
 117  0021  0700     E  	mov a,ra
 117  0022  0080     E  	mov _FuncData[25],a
 117  0023  0700     E  	mov a,rb
 117  0024  0080     E  	mov _FuncData[26],a
 122  0025              #line 122 "c:\users\h469388\desktop\todo\projects\1_ngb\1_firmware\ngb_low_power_consumption_v3\source\function.c"
 122  0025  3594        	clr [20].3
 147  0026              #line 147 "c:\users\h469388\desktop\todo\projects\1_ngb\1_firmware\ngb_low_power_consumption_v3\source\function.c"
 147  0026  0FA9        	mov a,169
 147  0027  0200     E  	sub a,ra
 147  0028  0F0A        	mov a,10
 147  0029  1200     E  	sbc a,rb
 147  002A  3C0A        	sz c
 147  002B  2800     R  	jmp _L10
 149  002C              #line 149 "c:\users\h469388\desktop\todo\projects\1_ngb\1_firmware\ngb_low_power_consumption_v3\source\function.c"
 149  002C  0700     E  	mov a,_FuncData[24]
 149  002D  0080     E  	mov ra,a
 149  002E  0F09        	mov a,9
 149  002F  0200     E  	sub a,ra
 149  0030  3C0A        	sz c
 149  0031  2800     R  	jmp _L11
 152  0032              #line 152 "c:\users\h469388\desktop\todo\projects\1_ngb\1_firmware\ngb_low_power_consumption_v3\source\function.c"
 152  0032  0F10        	mov a,16
 152  0033  0580     E  	orm a,_FuncData[7]
 152  0034  0F00        	mov a,0
 152  0035  0580     E  	orm a,_FuncData[6]
 152  0036  2800     R  	jmp _L12
 152  0037              _L11:
 156  0037              #line 156 "c:\users\h469388\desktop\todo\projects\1_ngb\1_firmware\ngb_low_power_consumption_v3\source\function.c"
 156  0037  1400     E  	inca ra
 156  0038  0080     E  	mov _FuncData[24],a
 156  0039  2800     R  	jmp _L12
 156  003A              _L10:
 159  003A              #line 159 "c:\users\h469388\desktop\todo\projects\1_ngb\1_firmware\ngb_low_power_consumption_v3\source\function.c"
"File: function.c    Assembler  Version HGASM0202      Page 4

 159  003A  0F46        	mov a,70
 159  003B  0200     E  	sub a,ra
 159  003C  0F0A        	mov a,10
 159  003D  1200     E  	sbc a,rb
 159  003E  380A        	snz c
 159  003F  2800     R  	jmp _L12
 159  0040  0700     E  	mov a,_FuncData[6]
 159  0041  0080     E  	mov rb,a
 159  0042  0700     E  	mov a,_FuncData[7]
 159  0043  0080     E  	mov rc,a
 159  0044  3800     E  	snz _FuncData[7].4
 159  0045  2800     R  	jmp _L12
 161  0046              #line 161 "c:\users\h469388\desktop\todo\projects\1_ngb\1_firmware\ngb_low_power_consumption_v3\source\function.c"
 161  0046  0700     E  	mov a,_FuncData[24]
 161  0047  0080     E  	mov ra,a
 161  0048  1080     E  	sz ra
 161  0049  2800     R  	jmp _L13
 164  004A              #line 164 "c:\users\h469388\desktop\todo\projects\1_ngb\1_firmware\ngb_low_power_consumption_v3\source\function.c"
 164  004A  0700     E  	mov a,rb
 164  004B  0080     E  	mov rd,a
 164  004C  0700     E  	mov a,rc
 164  004D  0080     E  	mov re,a
 164  004E  0FFF        	mov a,255  
 164  004F  0680     E  	andm a,rd  
 164  0050  0FEF        	mov a,239  
 164  0051  0680     E  	andm a,re
 164  0052  0700     E  	mov a,rd
 164  0053  0080     E  	mov _FuncData[6],a
 164  0054  0700     E  	mov a,re
 164  0055  0080     E  	mov _FuncData[7],a
 164  0056  2800     R  	jmp _L12
 164  0057              _L13:
 168  0057              #line 168 "c:\users\h469388\desktop\todo\projects\1_ngb\1_firmware\ngb_low_power_consumption_v3\source\function.c"
 168  0057  1500     E  	deca ra
 168  0058  0080     E  	mov _FuncData[24],a
 168  0059              _L12:
 176  0059              #line 176 "c:\users\h469388\desktop\todo\projects\1_ngb\1_firmware\ngb_low_power_consumption_v3\source\function.c"
 176  0059  0F06        	mov a,6
 176  005A  2000     E  	call _AdcSample
 176  005B  0700     E  	mov a,ra
 176  005C  0080     E  	mov _FuncData[41],a
 176  005D  0700     E  	mov a,rb
 176  005E  0080     E  	mov _FuncData[42],a
 185  005F              #line 185 "c:\users\h469388\desktop\todo\projects\1_ngb\1_firmware\ngb_low_power_consumption_v3\source\function.c"
 185  005F  0F64        	mov a,100
 185  0060  0200     E  	sub a,_FuncData[43]
 185  0061  0F00        	mov a,0
 185  0062  1200     E  	sbc a,_FuncData[44]
 185  0063  380A        	snz c
 185  0064  2800     R  	jmp _L14
 186  0065              #line 186 "c:\users\h469388\desktop\todo\projects\1_ngb\1_firmware\ngb_low_power_consumption_v3\source\function.c"
 186  0065  0700     E  	mov a,_FuncData[19]
 186  0066  0A55        	sub a,85
 186  0067  390A        	snz z
 186  0068  2800     R  	jmp _L15
 186  0069              _L14:
 194  0069              #line 194 "c:\users\h469388\desktop\todo\projects\1_ngb\1_firmware\ngb_low_power_consumption_v3\source\function.c"
 194  0069  1080     E  	sz _FuncData[45]
 194  006A  2800     R  	jmp _L16
 196  006B              #line 196 "c:\users\h469388\desktop\todo\projects\1_ngb\1_firmware\ngb_low_power_consumption_v3\source\function.c"
"File: function.c    Assembler  Version HGASM0202      Page 5

 196  006B  0F02        	mov a,2
 196  006C  0080     E  	mov _FuncData[45],a
 196  006D              _L16:
 198  006D              #line 198 "c:\users\h469388\desktop\todo\projects\1_ngb\1_firmware\ngb_low_power_consumption_v3\source\function.c"
 198  006D  33DD        	set [93].7
 199  006E              #line 199 "c:\users\h469388\desktop\todo\projects\1_ngb\1_firmware\ngb_low_power_consumption_v3\source\function.c"
 199  006E  30DD        	set [93].1
 200  006F              #line 200 "c:\users\h469388\desktop\todo\projects\1_ngb\1_firmware\ngb_low_power_consumption_v3\source\function.c"
 200  006F              ;# 200 "c:\users\h469388\desktop\todo\projects\1_ngb\1_firmware\ngb_low_power_consumption_v3\source\function.c" 1
 200  006F              	IF 200>263690
 200  006F              ;# 200 "c:\users\h469388\desktop\todo\projects\1_ngb\1_firmware\ngb_low_power_consumption_v3\source\function.c" 1
 200  006F              	ERRMESSAGE 'the value 200of the argument exceeds the maxinum 263690'
 200  006F              	ENDIF
 200  006F              ;# 200 "c:\users\h469388\desktop\todo\projects\1_ngb\1_firmware\ngb_low_power_consumption_v3\source\function.c" 1
 200  006F              	IF 200<0
 200  006F              ;# 200 "c:\users\h469388\desktop\todo\projects\1_ngb\1_firmware\ngb_low_power_consumption_v3\source\function.c" 1
 200  006F              	ERRMESSAGE 'the value 200 of the argument exceeds the mininum 0'
 200  006F              	ENDIF
 200  006F              ;# 200 "c:\users\h469388\desktop\todo\projects\1_ngb\1_firmware\ngb_low_power_consumption_v3\source\function.c" 1
 200  006F              	IF 200==0
 200  006F              ;# 200 "c:\users\h469388\desktop\todo\projects\1_ngb\1_firmware\ngb_low_power_consumption_v3\source\function.c" 1
 200  006F              	JMP $
 200  006F              	ENDIF
 200  006F              ;# 200 "c:\users\h469388\desktop\todo\projects\1_ngb\1_firmware\ngb_low_power_consumption_v3\source\function.c" 1
 200  006F              	IF 200==1
 200  006F              ;# 200 "c:\users\h469388\desktop\todo\projects\1_ngb\1_firmware\ngb_low_power_consumption_v3\source\function.c" 1
 200  006F              	NOP
 200  006F              	ENDIF
 200  006F              ;# 200 "c:\users\h469388\desktop\todo\projects\1_ngb\1_firmware\ngb_low_power_consumption_v3\source\function.c" 1
 200  006F              	IF 200==2
 200  006F              ;# 200 "c:\users\h469388\desktop\todo\projects\1_ngb\1_firmware\ngb_low_power_consumption_v3\source\function.c" 1
 200  006F              	NOP
 200  006F              ;# 200 "c:\users\h469388\desktop\todo\projects\1_ngb\1_firmware\ngb_low_power_consumption_v3\source\function.c" 1
 200  006F              	NOP
 200  006F              	ENDIF
 200  006F              ;# 200 "c:\users\h469388\desktop\todo\projects\1_ngb\1_firmware\ngb_low_power_consumption_v3\source\function.c" 1
 200  006F              	IF 200==3
 200  006F              ;# 200 "c:\users\h469388\desktop\todo\projects\1_ngb\1_firmware\ngb_low_power_consumption_v3\source\function.c" 1
 200  006F              	NOP
 200  006F              ;# 200 "c:\users\h469388\desktop\todo\projects\1_ngb\1_firmware\ngb_low_power_consumption_v3\source\function.c" 1
 200  006F              	NOP
 200  006F              ;# 200 "c:\users\h469388\desktop\todo\projects\1_ngb\1_firmware\ngb_low_power_consumption_v3\source\function.c" 1
 200  006F              	NOP
 200  006F              	ENDIF
 200  006F              ;# 200 "c:\users\h469388\desktop\todo\projects\1_ngb\1_firmware\ngb_low_power_consumption_v3\source\function.c" 1
 200  006F              	IF (200<8) AND (200>3)
 200  006F              ;# 200 "c:\users\h469388\desktop\todo\projects\1_ngb\1_firmware\ngb_low_power_consumption_v3\source\function.c" 1
 200  006F              	CALL __DELAY3 + 7 -200
 200  006F              	ENDIF
 200  006F              ;# 200 "c:\users\h469388\desktop\todo\projects\1_ngb\1_firmware\ngb_low_power_consumption_v3\source\function.c" 1
 200  006F              	IF (200< 0404h) AND (200>7)
 200  006F              ;# 200 "c:\users\h469388\desktop\todo\projects\1_ngb\1_firmware\ngb_low_power_consumption_v3\source\function.c" 1
 200  006F  0F31        	MOV A,200/4-1
 200  0070              ;# 200 "c:\users\h469388\desktop\todo\projects\1_ngb\1_firmware\ngb_low_power_consumption_v3\source\function.c" 1
 200  0070  2000     E  	CALL __DELAYX3 + 3 -(200 MOD 4)
 200  0071              	ENDIF
 200  0071              ;# 200 "c:\users\h469388\desktop\todo\projects\1_ngb\1_firmware\ngb_low_power_consumption_v3\source\function.c" 1
 200  0071              	IF (200< 0x40B) AND (200> 0403h)
 200  0071              ;# 200 "c:\users\h469388\desktop\todo\projects\1_ngb\1_firmware\ngb_low_power_consumption_v3\source\function.c" 1
 200  0071              	MOV A,0 
"File: function.c    Assembler  Version HGASM0202      Page 6

 200  0071              ;# 200 "c:\users\h469388\desktop\todo\projects\1_ngb\1_firmware\ngb_low_power_consumption_v3\source\function.c" 1
 200  0071              	CALL __DELAYX6 + 0x40a -200
 200  0071              	ENDIF
 200  0071              ;# 200 "c:\users\h469388\desktop\todo\projects\1_ngb\1_firmware\ngb_low_power_consumption_v3\source\function.c" 1
 200  0071              	IF (200 >= 0x40b) AND ((((200-9)%0402h)/4+1)>256)
 200  0071              ;# 200 "c:\users\h469388\desktop\todo\projects\1_ngb\1_firmware\ngb_low_power_consumption_v3\source\function.c" 1
 200  0071              	MOV A,(200-9)/0402h
 200  0071              ;# 200 "c:\users\h469388\desktop\todo\projects\1_ngb\1_firmware\ngb_low_power_consumption_v3\source\function.c" 1
 200  0071              	MOV _builtin_holtek_delay_2,A
 200  0071              ;# 200 "c:\users\h469388\desktop\todo\projects\1_ngb\1_firmware\ngb_low_power_consumption_v3\source\function.c" 1
 200  0071              	MOV A,0
 200  0071              ;# 200 "c:\users\h469388\desktop\todo\projects\1_ngb\1_firmware\ngb_low_power_consumption_v3\source\function.c" 1
 200  0071              	CALL __DELAYY5 +5- (((200-9)%0402h)%6)
 200  0071              	ENDIF
 200  0071              ;# 200 "c:\users\h469388\desktop\todo\projects\1_ngb\1_firmware\ngb_low_power_consumption_v3\source\function.c" 1
 200  0071              	IF (200 >= 0x40b) AND ((((200-9)%0402h)/4+1)<=256)
 200  0071              ;# 200 "c:\users\h469388\desktop\todo\projects\1_ngb\1_firmware\ngb_low_power_consumption_v3\source\function.c" 1
 200  0071              	MOV A,(200-9)/0402h
 200  0071              ;# 200 "c:\users\h469388\desktop\todo\projects\1_ngb\1_firmware\ngb_low_power_consumption_v3\source\function.c" 1
 200  0071              	MOV _builtin_holtek_delay_2,A
 200  0071              ;# 200 "c:\users\h469388\desktop\todo\projects\1_ngb\1_firmware\ngb_low_power_consumption_v3\source\function.c" 1
 200  0071              	MOV A,((200-9)%0402h)/4+1
 200  0071              ;# 200 "c:\users\h469388\desktop\todo\projects\1_ngb\1_firmware\ngb_low_power_consumption_v3\source\function.c" 1
 200  0071              	CALL __DELAYY3 +3-(((200-9)%0402h)%4)
 200  0071              	ENDIF
 203  0071              #line 203 "c:\users\h469388\desktop\todo\projects\1_ngb\1_firmware\ngb_low_power_consumption_v3\source\function.c"
 203  0071  0F06        	mov a,6
 203  0072  2000     E  	call _AdcSample
 203  0073  0700     E  	mov a,ra
 203  0074  0080     E  	mov _FuncData[39],a
 203  0075  0700     E  	mov a,rb
 203  0076  0080     E  	mov _FuncData[40],a
 204  0077              #line 204 "c:\users\h469388\desktop\todo\projects\1_ngb\1_firmware\ngb_low_power_consumption_v3\source\function.c"
 204  0077  34DD        	clr [93].1
 205  0078              #line 205 "c:\users\h469388\desktop\todo\projects\1_ngb\1_firmware\ngb_low_power_consumption_v3\source\function.c"
 205  0078  37DD        	clr [93].7
 206  0079              #line 206 "c:\users\h469388\desktop\todo\projects\1_ngb\1_firmware\ngb_low_power_consumption_v3\source\function.c"
 206  0079  1E00     E  	snz _FuncData[3]
 206  007A  2800     R  	jmp _L17
 208  007B              #line 208 "c:\users\h469388\desktop\todo\projects\1_ngb\1_firmware\ngb_low_power_consumption_v3\source\function.c"
 208  007B  0F00        	mov a,0
 208  007C  2000     E  	call _SdOpaSwitch
 209  007D              #line 209 "c:\users\h469388\desktop\todo\projects\1_ngb\1_firmware\ngb_low_power_consumption_v3\source\function.c"
 209  007D  1F00     E  	clr _FuncData[45]
 210  007E              #line 210 "c:\users\h469388\desktop\todo\projects\1_ngb\1_firmware\ngb_low_power_consumption_v3\source\function.c"
 210  007E  2800     R  	jmp _L5
 210  007F              _L15:
 217  007F              #line 217 "c:\users\h469388\desktop\todo\projects\1_ngb\1_firmware\ngb_low_power_consumption_v3\source\function.c"
 217  007F  1F00     E  	clr _FuncData[45]
 217  0080              _L17:
 221  0080              #line 221 "c:\users\h469388\desktop\todo\projects\1_ngb\1_firmware\ngb_low_power_consumption_v3\source\function.c"
 221  0080  33DD        	set [93].7
 222  0081              #line 222 "c:\users\h469388\desktop\todo\projects\1_ngb\1_firmware\ngb_low_power_consumption_v3\source\function.c"
 222  0081  305D        	set [93].0
 223  0082              #line 223 "c:\users\h469388\desktop\todo\projects\1_ngb\1_firmware\ngb_low_power_consumption_v3\source\function.c"
 223  0082              ;# 223 "c:\users\h469388\desktop\todo\projects\1_ngb\1_firmware\ngb_low_power_consumption_v3\source\function.c" 1
 223  0082              	IF 200>263690
 223  0082              ;# 223 "c:\users\h469388\desktop\todo\projects\1_ngb\1_firmware\ngb_low_power_consumption_v3\source\function.c" 1
 223  0082              	ERRMESSAGE 'the value 200of the argument exceeds the maxinum 263690'
 223  0082              	ENDIF
"File: function.c    Assembler  Version HGASM0202      Page 7

 223  0082              ;# 223 "c:\users\h469388\desktop\todo\projects\1_ngb\1_firmware\ngb_low_power_consumption_v3\source\function.c" 1
 223  0082              	IF 200<0
 223  0082              ;# 223 "c:\users\h469388\desktop\todo\projects\1_ngb\1_firmware\ngb_low_power_consumption_v3\source\function.c" 1
 223  0082              	ERRMESSAGE 'the value 200 of the argument exceeds the mininum 0'
 223  0082              	ENDIF
 223  0082              ;# 223 "c:\users\h469388\desktop\todo\projects\1_ngb\1_firmware\ngb_low_power_consumption_v3\source\function.c" 1
 223  0082              	IF 200==0
 223  0082              ;# 223 "c:\users\h469388\desktop\todo\projects\1_ngb\1_firmware\ngb_low_power_consumption_v3\source\function.c" 1
 223  0082              	JMP $
 223  0082              	ENDIF
 223  0082              ;# 223 "c:\users\h469388\desktop\todo\projects\1_ngb\1_firmware\ngb_low_power_consumption_v3\source\function.c" 1
 223  0082              	IF 200==1
 223  0082              ;# 223 "c:\users\h469388\desktop\todo\projects\1_ngb\1_firmware\ngb_low_power_consumption_v3\source\function.c" 1
 223  0082              	NOP
 223  0082              	ENDIF
 223  0082              ;# 223 "c:\users\h469388\desktop\todo\projects\1_ngb\1_firmware\ngb_low_power_consumption_v3\source\function.c" 1
 223  0082              	IF 200==2
 223  0082              ;# 223 "c:\users\h469388\desktop\todo\projects\1_ngb\1_firmware\ngb_low_power_consumption_v3\source\function.c" 1
 223  0082              	NOP
 223  0082              ;# 223 "c:\users\h469388\desktop\todo\projects\1_ngb\1_firmware\ngb_low_power_consumption_v3\source\function.c" 1
 223  0082              	NOP
 223  0082              	ENDIF
 223  0082              ;# 223 "c:\users\h469388\desktop\todo\projects\1_ngb\1_firmware\ngb_low_power_consumption_v3\source\function.c" 1
 223  0082              	IF 200==3
 223  0082              ;# 223 "c:\users\h469388\desktop\todo\projects\1_ngb\1_firmware\ngb_low_power_consumption_v3\source\function.c" 1
 223  0082              	NOP
 223  0082              ;# 223 "c:\users\h469388\desktop\todo\projects\1_ngb\1_firmware\ngb_low_power_consumption_v3\source\function.c" 1
 223  0082              	NOP
 223  0082              ;# 223 "c:\users\h469388\desktop\todo\projects\1_ngb\1_firmware\ngb_low_power_consumption_v3\source\function.c" 1
 223  0082              	NOP
 223  0082              	ENDIF
 223  0082              ;# 223 "c:\users\h469388\desktop\todo\projects\1_ngb\1_firmware\ngb_low_power_consumption_v3\source\function.c" 1
 223  0082              	IF (200<8) AND (200>3)
 223  0082              ;# 223 "c:\users\h469388\desktop\todo\projects\1_ngb\1_firmware\ngb_low_power_consumption_v3\source\function.c" 1
 223  0082              	CALL __DELAY3 + 7 -200
 223  0082              	ENDIF
 223  0082              ;# 223 "c:\users\h469388\desktop\todo\projects\1_ngb\1_firmware\ngb_low_power_consumption_v3\source\function.c" 1
 223  0082              	IF (200< 0404h) AND (200>7)
 223  0082              ;# 223 "c:\users\h469388\desktop\todo\projects\1_ngb\1_firmware\ngb_low_power_consumption_v3\source\function.c" 1
 223  0082  0F31        	MOV A,200/4-1
 223  0083              ;# 223 "c:\users\h469388\desktop\todo\projects\1_ngb\1_firmware\ngb_low_power_consumption_v3\source\function.c" 1
 223  0083  2000     E  	CALL __DELAYX3 + 3 -(200 MOD 4)
 223  0084              	ENDIF
 223  0084              ;# 223 "c:\users\h469388\desktop\todo\projects\1_ngb\1_firmware\ngb_low_power_consumption_v3\source\function.c" 1
 223  0084              	IF (200< 0x40B) AND (200> 0403h)
 223  0084              ;# 223 "c:\users\h469388\desktop\todo\projects\1_ngb\1_firmware\ngb_low_power_consumption_v3\source\function.c" 1
 223  0084              	MOV A,0 
 223  0084              ;# 223 "c:\users\h469388\desktop\todo\projects\1_ngb\1_firmware\ngb_low_power_consumption_v3\source\function.c" 1
 223  0084              	CALL __DELAYX6 + 0x40a -200
 223  0084              	ENDIF
 223  0084              ;# 223 "c:\users\h469388\desktop\todo\projects\1_ngb\1_firmware\ngb_low_power_consumption_v3\source\function.c" 1
 223  0084              	IF (200 >= 0x40b) AND ((((200-9)%0402h)/4+1)>256)
 223  0084              ;# 223 "c:\users\h469388\desktop\todo\projects\1_ngb\1_firmware\ngb_low_power_consumption_v3\source\function.c" 1
 223  0084              	MOV A,(200-9)/0402h
 223  0084              ;# 223 "c:\users\h469388\desktop\todo\projects\1_ngb\1_firmware\ngb_low_power_consumption_v3\source\function.c" 1
 223  0084              	MOV _builtin_holtek_delay_2,A
 223  0084              ;# 223 "c:\users\h469388\desktop\todo\projects\1_ngb\1_firmware\ngb_low_power_consumption_v3\source\function.c" 1
 223  0084              	MOV A,0
 223  0084              ;# 223 "c:\users\h469388\desktop\todo\projects\1_ngb\1_firmware\ngb_low_power_consumption_v3\source\function.c" 1
 223  0084              	CALL __DELAYY5 +5- (((200-9)%0402h)%6)
"File: function.c    Assembler  Version HGASM0202      Page 8

 223  0084              	ENDIF
 223  0084              ;# 223 "c:\users\h469388\desktop\todo\projects\1_ngb\1_firmware\ngb_low_power_consumption_v3\source\function.c" 1
 223  0084              	IF (200 >= 0x40b) AND ((((200-9)%0402h)/4+1)<=256)
 223  0084              ;# 223 "c:\users\h469388\desktop\todo\projects\1_ngb\1_firmware\ngb_low_power_consumption_v3\source\function.c" 1
 223  0084              	MOV A,(200-9)/0402h
 223  0084              ;# 223 "c:\users\h469388\desktop\todo\projects\1_ngb\1_firmware\ngb_low_power_consumption_v3\source\function.c" 1
 223  0084              	MOV _builtin_holtek_delay_2,A
 223  0084              ;# 223 "c:\users\h469388\desktop\todo\projects\1_ngb\1_firmware\ngb_low_power_consumption_v3\source\function.c" 1
 223  0084              	MOV A,((200-9)%0402h)/4+1
 223  0084              ;# 223 "c:\users\h469388\desktop\todo\projects\1_ngb\1_firmware\ngb_low_power_consumption_v3\source\function.c" 1
 223  0084              	CALL __DELAYY3 +3-(((200-9)%0402h)%4)
 223  0084              	ENDIF
 226  0084              #line 226 "c:\users\h469388\desktop\todo\projects\1_ngb\1_firmware\ngb_low_power_consumption_v3\source\function.c"
 226  0084  0F06        	mov a,6
 226  0085  2000     E  	call _AdcSample
 226  0086  0700     E  	mov a,ra
 226  0087  0080     E  	mov _FuncData[43],a
 226  0088  0700     E  	mov a,rb
 226  0089  0080     E  	mov _FuncData[44],a
 227  008A              #line 227 "c:\users\h469388\desktop\todo\projects\1_ngb\1_firmware\ngb_low_power_consumption_v3\source\function.c"
 227  008A  345D        	clr [93].0
 228  008B              #line 228 "c:\users\h469388\desktop\todo\projects\1_ngb\1_firmware\ngb_low_power_consumption_v3\source\function.c"
 228  008B  37DD        	clr [93].7
 230  008C              #line 230 "c:\users\h469388\desktop\todo\projects\1_ngb\1_firmware\ngb_low_power_consumption_v3\source\function.c"
 230  008C  0F00        	mov a,0
 230  008D  2000     E  	call _SdOpaSwitch
 231  008E              #line 231 "c:\users\h469388\desktop\todo\projects\1_ngb\1_firmware\ngb_low_power_consumption_v3\source\function.c"
 231  008E  1080     E  	sz _FuncData[3]
 231  008F  2800     R  	jmp _L5
 238  0090              #line 238 "c:\users\h469388\desktop\todo\projects\1_ngb\1_firmware\ngb_low_power_consumption_v3\source\function.c"
 238  0090  0700     E  	mov a,_FuncData[45]
 238  0091  0A02        	sub a,2
 238  0092  390A        	snz z
 238  0093  2800     R  	jmp _L18
 240  0094              #line 240 "c:\users\h469388\desktop\todo\projects\1_ngb\1_firmware\ngb_low_power_consumption_v3\source\function.c"
 240  0094  0F01        	mov a,1
 240  0095  0080     E  	mov _FuncData[45],a
 241  0096              #line 241 "c:\users\h469388\desktop\todo\projects\1_ngb\1_firmware\ngb_low_power_consumption_v3\source\function.c"
 241  0096  0700     E  	mov a,_FuncData[41]
 241  0097  0080     E  	mov _FuncData[33],a
 241  0098  0700     E  	mov a,_FuncData[42]
 241  0099  0080     E  	mov _FuncData[34],a
 242  009A              #line 242 "c:\users\h469388\desktop\todo\projects\1_ngb\1_firmware\ngb_low_power_consumption_v3\source\function.c"
 242  009A  0700     E  	mov a,_FuncData[39]
 242  009B  0080     E  	mov _FuncData[37],a
 242  009C  0700     E  	mov a,_FuncData[40]
 242  009D  0080     E  	mov _FuncData[38],a
 243  009E              #line 243 "c:\users\h469388\desktop\todo\projects\1_ngb\1_firmware\ngb_low_power_consumption_v3\source\function.c"
 243  009E  0700     E  	mov a,_FuncData[43]
 243  009F  0080     E  	mov _FuncData[35],a
 243  00A0  0700     E  	mov a,_FuncData[44]
 243  00A1  0080     E  	mov _FuncData[36],a
 243  00A2              _L18:
 246  00A2              #line 246 "c:\users\h469388\desktop\todo\projects\1_ngb\1_firmware\ngb_low_power_consumption_v3\source\function.c"
 246  00A2  0700     E  	mov a,_FuncData[43]
 246  00A3  0300     E  	add a,_FuncData[35]
 246  00A4  0080     E  	mov rf,a
 246  00A5  0700     E  	mov a,_FuncData[44]
 246  00A6  1300     E  	adc a,_FuncData[36]
 246  00A7  0080     E  	mov rg,a
"File: function.c    Assembler  Version HGASM0202      Page 9

 246  00A8  340A        	clr c
 246  00A9  1B80     E  	rrc rg
 246  00AA  1B80     E  	rrc rf
 246  00AB  0700     E  	mov a,rf
 246  00AC  0080     E  	mov _FuncData[9],a
 246  00AD  0700     E  	mov a,rg
 246  00AE  0080     E  	mov _FuncData[10],a
 247  00AF              #line 247 "c:\users\h469388\desktop\todo\projects\1_ngb\1_firmware\ngb_low_power_consumption_v3\source\function.c"
 247  00AF  0700     E  	mov a,_FuncData[39]
 247  00B0  0300     E  	add a,_FuncData[37]
 247  00B1  0080     R  	mov _SmokeDetector_2[0],a
 247  00B2  0700     E  	mov a,_FuncData[40]
 247  00B3  1300     E  	adc a,_FuncData[38]
 247  00B4  0080     R  	mov _SmokeDetector_2[1],a
 247  00B5  340A        	clr c
 247  00B6  1B80     R  	rrc _SmokeDetector_2[1]
 247  00B7  1B80     R  	rrc _SmokeDetector_2[0]
 247  00B8  0700     R  	mov a,_SmokeDetector_2[0]
 247  00B9  0080     E  	mov _FuncData[11],a
 247  00BA  0700     R  	mov a,_SmokeDetector_2[1]
 247  00BB  0080     E  	mov _FuncData[12],a
 248  00BC              #line 248 "c:\users\h469388\desktop\todo\projects\1_ngb\1_firmware\ngb_low_power_consumption_v3\source\function.c"
 248  00BC  0700     E  	mov a,_FuncData[41]
 248  00BD  0300     E  	add a,_FuncData[33]
 248  00BE  0080     E  	mov rb,a
 248  00BF  0700     E  	mov a,_FuncData[42]
 248  00C0  1300     E  	adc a,_FuncData[34]
 248  00C1  0080     E  	mov rc,a
 248  00C2  340A        	clr c
 248  00C3  1B80     E  	rrc rc
 248  00C4  1B80     E  	rrc rb
 248  00C5  0700     E  	mov a,rb
 248  00C6  0080     E  	mov _FuncData[13],a
 248  00C7  0700     E  	mov a,rc
 248  00C8  0080     E  	mov _FuncData[14],a
 252  00C9              #line 252 "c:\users\h469388\desktop\todo\projects\1_ngb\1_firmware\ngb_low_power_consumption_v3\source\function.c"
 252  00C9  0700     E  	mov a,rb
 252  00CA  0080     E  	mov _FuncData[41],a
 252  00CB  0700     E  	mov a,rc
 252  00CC  0080     E  	mov _FuncData[42],a
 254  00CD              #line 254 "c:\users\h469388\desktop\todo\projects\1_ngb\1_firmware\ngb_low_power_consumption_v3\source\function.c"
 254  00CD  0700     E  	mov a,rb
 254  00CE  0080     E  	mov _FuncData[33],a
 254  00CF  0700     E  	mov a,rc
 254  00D0  0080     E  	mov _FuncData[34],a
 255  00D1              #line 255 "c:\users\h469388\desktop\todo\projects\1_ngb\1_firmware\ngb_low_power_consumption_v3\source\function.c"
 255  00D1  0700     R  	mov a,_SmokeDetector_2[0]
 255  00D2  0080     E  	mov _FuncData[37],a
 255  00D3  0700     R  	mov a,_SmokeDetector_2[1]
 255  00D4  0080     E  	mov _FuncData[38],a
 256  00D5              #line 256 "c:\users\h469388\desktop\todo\projects\1_ngb\1_firmware\ngb_low_power_consumption_v3\source\function.c"
 256  00D5  0700     E  	mov a,rf
 256  00D6  0080     E  	mov _FuncData[35],a
 256  00D7  0700     E  	mov a,rg
 256  00D8  0080     E  	mov _FuncData[36],a
 266  00D9              #line 266 "c:\users\h469388\desktop\todo\projects\1_ngb\1_firmware\ngb_low_power_consumption_v3\source\function.c"
 266  00D9  0700     E  	mov a,rb
 266  00DA  0200     E  	sub a,rf
 266  00DB  0700     E  	mov a,rc
 266  00DC  1200     E  	sbc a,rg
"File: function.c    Assembler  Version HGASM0202      Page 10

 266  00DD  3C0A        	sz c
 266  00DE  2800     R  	jmp _L19
 268  00DF              #line 268 "c:\users\h469388\desktop\todo\projects\1_ngb\1_firmware\ngb_low_power_consumption_v3\source\function.c"
 268  00DF  0700     E  	mov a,rf
 268  00E0  0200     E  	sub a,rb
 268  00E1  0080     E  	mov rd,a
 268  00E2  0700     E  	mov a,rg
 268  00E3  1200     E  	sbc a,rc
 268  00E4  0080     E  	mov re,a
 268  00E5  0700     E  	mov a,rd
 268  00E6  0080     E  	mov _FuncData[43],a
 268  00E7  0700     E  	mov a,re
 268  00E8  0080     E  	mov _FuncData[44],a
 268  00E9  2800     R  	jmp _L20
 268  00EA              _L19:
 272  00EA              #line 272 "c:\users\h469388\desktop\todo\projects\1_ngb\1_firmware\ngb_low_power_consumption_v3\source\function.c"
 272  00EA  1F00     E  	clr _FuncData[43]
 272  00EB  1F00     E  	clr _FuncData[44]
 272  00EC              _L20:
 275  00EC              #line 275 "c:\users\h469388\desktop\todo\projects\1_ngb\1_firmware\ngb_low_power_consumption_v3\source\function.c"
 275  00EC  0700     E  	mov a,rb
 275  00ED  0200     R  	sub a,_SmokeDetector_2[0]
 275  00EE  0700     E  	mov a,rc
 275  00EF  1200     R  	sbc a,_SmokeDetector_2[1]
 275  00F0  3C0A        	sz c
 275  00F1  2800     R  	jmp _L21
 277  00F2              #line 277 "c:\users\h469388\desktop\todo\projects\1_ngb\1_firmware\ngb_low_power_consumption_v3\source\function.c"
 277  00F2  0700     R  	mov a,_SmokeDetector_2[0]
 277  00F3  0200     E  	sub a,rb
 277  00F4  0080     E  	mov rd,a
 277  00F5  0700     R  	mov a,_SmokeDetector_2[1]
 277  00F6  1200     E  	sbc a,rc
 277  00F7  0080     E  	mov re,a
 277  00F8  0700     E  	mov a,rd
 277  00F9  0080     E  	mov _FuncData[39],a
 277  00FA  0700     E  	mov a,re
 277  00FB  0080     E  	mov _FuncData[40],a
 277  00FC  2800     R  	jmp _L22
 277  00FD              _L21:
 281  00FD              #line 281 "c:\users\h469388\desktop\todo\projects\1_ngb\1_firmware\ngb_low_power_consumption_v3\source\function.c"
 281  00FD  1F00     E  	clr _FuncData[39]
 281  00FE  1F00     E  	clr _FuncData[40]
 281  00FF              _L22:
 284  00FF              #line 284 "c:\users\h469388\desktop\todo\projects\1_ngb\1_firmware\ngb_low_power_consumption_v3\source\function.c"
 284  00FF  0700     E  	mov a,_FuncData[43]
 284  0100  0080     E  	mov rf,a
 284  0101  0700     E  	mov a,_FuncData[44]
 284  0102  0080     E  	mov rg,a
 284  0103  0700     E  	mov a,_FuncData[47]
 284  0104  0080     R  	mov _SmokeDetector_2[0],a
 284  0105  1F00     R  	clr _SmokeDetector_2[1]
 284  0106  0700     R  	mov a,_SmokeDetector_2[0]
 284  0107  0200     E  	sub a,rf
 284  0108  0700     R  	mov a,_SmokeDetector_2[1]
 284  0109  1200     E  	sbc a,rg
 284  010A  3C0A        	sz c
 284  010B  2800     R  	jmp _L23
 286  010C              #line 286 "c:\users\h469388\desktop\todo\projects\1_ngb\1_firmware\ngb_low_power_consumption_v3\source\function.c"
 286  010C  0700     E  	mov a,rf
 286  010D  0200     R  	sub a,_SmokeDetector_2[0]
"File: function.c    Assembler  Version HGASM0202      Page 11

 286  010E  0080     E  	mov rd,a
 286  010F  0700     E  	mov a,rg
 286  0110  1200     R  	sbc a,_SmokeDetector_2[1]
 286  0111  0080     E  	mov re,a
 286  0112  0700     E  	mov a,rd
 286  0113  0080     E  	mov _FuncData[43],a
 286  0114  0700     E  	mov a,re
 286  0115  0080     E  	mov _FuncData[44],a
 286  0116  2800     R  	jmp _L24
 286  0117              _L23:
 290  0117              #line 290 "c:\users\h469388\desktop\todo\projects\1_ngb\1_firmware\ngb_low_power_consumption_v3\source\function.c"
 290  0117  1F00     E  	clr _FuncData[43]
 290  0118  1F00     E  	clr _FuncData[44]
 290  0119              _L24:
 292  0119              #line 292 "c:\users\h469388\desktop\todo\projects\1_ngb\1_firmware\ngb_low_power_consumption_v3\source\function.c"
 292  0119  0700     E  	mov a,_FuncData[39]
 292  011A  0080     E  	mov rf,a
 292  011B  0700     E  	mov a,_FuncData[40]
 292  011C  0080     E  	mov rg,a
 292  011D  0700     E  	mov a,_FuncData[46]
 292  011E  0080     R  	mov _SmokeDetector_2[0],a
 292  011F  1F00     R  	clr _SmokeDetector_2[1]
 292  0120  0700     R  	mov a,_SmokeDetector_2[0]
 292  0121  0200     E  	sub a,rf
 292  0122  0700     R  	mov a,_SmokeDetector_2[1]
 292  0123  1200     E  	sbc a,rg
 292  0124  3C0A        	sz c
 292  0125  2800     R  	jmp _L25
 294  0126              #line 294 "c:\users\h469388\desktop\todo\projects\1_ngb\1_firmware\ngb_low_power_consumption_v3\source\function.c"
 294  0126  0700     E  	mov a,rf
 294  0127  0200     R  	sub a,_SmokeDetector_2[0]
 294  0128  0080     E  	mov rd,a
 294  0129  0700     E  	mov a,rg
 294  012A  1200     R  	sbc a,_SmokeDetector_2[1]
 294  012B  0080     E  	mov re,a
 294  012C  0700     E  	mov a,rd
 294  012D  0080     E  	mov _FuncData[39],a
 294  012E  0700     E  	mov a,re
 294  012F  0080     E  	mov _FuncData[40],a
 294  0130  2800     R  	jmp _L26
 294  0131              _L25:
 298  0131              #line 298 "c:\users\h469388\desktop\todo\projects\1_ngb\1_firmware\ngb_low_power_consumption_v3\source\function.c"
 298  0131  1F00     E  	clr _FuncData[39]
 298  0132  1F00     E  	clr _FuncData[40]
 298  0133              _L26:
 302  0133              #line 302 "c:\users\h469388\desktop\todo\projects\1_ngb\1_firmware\ngb_low_power_consumption_v3\source\function.c"
 302  0133  0700     E  	mov a,_FuncData[6]
 302  0134  0080     E  	mov rd,a
 302  0135  0700     E  	mov a,_FuncData[7]
 302  0136  0080     E  	mov re,a
 302  0137  0F00        	mov a,0  
 302  0138  0680     E  	andm a,rd  
 302  0139  0F10        	mov a,16  
 302  013A  0680     E  	andm a,re
 302  013B  0700     E  	mov a,rd
 302  013C  0080     R  	mov _SmokeDetector_2[4],a
 302  013D  0700     E  	mov a,re
 302  013E  0080     R  	mov _SmokeDetector_2[5],a
 302  013F  0700     R  	mov a,_SmokeDetector_2[4]
 302  0140  0080     E  	mov _FuncData[6],a
"File: function.c    Assembler  Version HGASM0202      Page 12

 302  0141  0700     R  	mov a,_SmokeDetector_2[5]
 302  0142  0080     E  	mov _FuncData[7],a
 305  0143              #line 305 "c:\users\h469388\desktop\todo\projects\1_ngb\1_firmware\ngb_low_power_consumption_v3\source\function.c"
 305  0143  0700     E  	mov a,_MemData[22]
 305  0144  0080     R  	mov _SmokeDetector_2[0],a
 305  0145  1F00     R  	clr _SmokeDetector_2[1]
 305  0146  1F00     R  	clr _SmokeDetector_2[2]
 305  0147  1F00     R  	clr _SmokeDetector_2[3]
 302  0148              #line 302 "c:\users\h469388\desktop\todo\projects\1_ngb\1_firmware\ngb_low_power_consumption_v3\source\function.c"
 302  0148  0700     E  	mov a,rd
 302  0149  0500     E  	or a,re
 302  014A  3D0A        	sz z
 302  014B  2800     R  	jmp _L27
 305  014C              #line 305 "c:\users\h469388\desktop\todo\projects\1_ngb\1_firmware\ngb_low_power_consumption_v3\source\function.c"
 305  014C  0700     E  	mov a,_FuncData[43]
 305  014D  0080     E  	mov rd,a
 305  014E  0700     E  	mov a,_FuncData[44]
 305  014F  0080     E  	mov re,a
 305  0150  1F00     E  	clr rf
 305  0151  1F00     E  	clr rg
 305  0152  0700     R  	mov a,_SmokeDetector_2[0]
 305  0153  0080     E  	mov _builtin_holtek_mulsi3_2[0],a
 305  0154  0700     R  	mov a,_SmokeDetector_2[1]
 305  0155  0080     E  	mov _builtin_holtek_mulsi3_2[1],a
 305  0156  0700     R  	mov a,_SmokeDetector_2[2]
 305  0157  0080     E  	mov _builtin_holtek_mulsi3_2[2],a
 305  0158  0700     R  	mov a,_SmokeDetector_2[3]
 305  0159  0080     E  	mov _builtin_holtek_mulsi3_2[3],a
 305  015A  0700     E  	mov a,rd
 305  015B  0080     E  	mov _builtin_holtek_mulsi3_2[4],a
 305  015C  0700     E  	mov a,re
 305  015D  0080     E  	mov _builtin_holtek_mulsi3_2[5],a
 305  015E  0700     E  	mov a,rf
 305  015F  0080     E  	mov _builtin_holtek_mulsi3_2[6],a
 305  0160  0700     E  	mov a,rg
 305  0161  0080     E  	mov _builtin_holtek_mulsi3_2[7],a
 305  0162  2000     E  	call _builtin_holtek_mulsi3
 305  0163  0700     E  	mov a,_builtin_holtek_mulsi3_2[8]
 305  0164  0080     R  	mov _SmokeDetector_2[0],a
 305  0165  0700     E  	mov a,_builtin_holtek_mulsi3_2[9]
 305  0166  0080     R  	mov _SmokeDetector_2[1],a
 305  0167  0700     E  	mov a,_builtin_holtek_mulsi3_2[10]
 305  0168  0080     R  	mov _SmokeDetector_2[2],a
 305  0169  0700     E  	mov a,_builtin_holtek_mulsi3_2[11]
 305  016A  0080     R  	mov _SmokeDetector_2[3],a
 306  016B              #line 306 "c:\users\h469388\desktop\todo\projects\1_ngb\1_firmware\ngb_low_power_consumption_v3\source\function.c"
 306  016B  0700     E  	mov a,_MemData[24]
 306  016C  0080     E  	mov rd,a
 306  016D  1F00     E  	clr re
 306  016E  1F00     E  	clr rf
 306  016F  1F00     E  	clr rg
 306  0170  0700     R  	mov a,_SmokeDetector_2[0]
 306  0171  0080     E  	mov _builtin_holtek_mulsi3_2[0],a
 306  0172  0700     R  	mov a,_SmokeDetector_2[1]
 306  0173  0080     E  	mov _builtin_holtek_mulsi3_2[1],a
 306  0174  0700     R  	mov a,_SmokeDetector_2[2]
 306  0175  0080     E  	mov _builtin_holtek_mulsi3_2[2],a
 306  0176  0700     R  	mov a,_SmokeDetector_2[3]
 306  0177  0080     E  	mov _builtin_holtek_mulsi3_2[3],a
 306  0178  0700     E  	mov a,rd
"File: function.c    Assembler  Version HGASM0202      Page 13

 306  0179  0080     E  	mov _builtin_holtek_mulsi3_2[4],a
 306  017A  0700     E  	mov a,re
 306  017B  0080     E  	mov _builtin_holtek_mulsi3_2[5],a
 306  017C  0700     E  	mov a,rf
 306  017D  0080     E  	mov _builtin_holtek_mulsi3_2[6],a
 306  017E  0700     E  	mov a,rg
 306  017F  0080     E  	mov _builtin_holtek_mulsi3_2[7],a
 306  0180  2000     E  	call _builtin_holtek_mulsi3
 306  0181  0700     E  	mov a,_builtin_holtek_mulsi3_2[8]
 306  0182  0080     E  	mov rd,a
 306  0183  0700     E  	mov a,_builtin_holtek_mulsi3_2[9]
 306  0184  0080     E  	mov re,a
 306  0185  0700     E  	mov a,_builtin_holtek_mulsi3_2[10]
 306  0186  0080     E  	mov rf,a
 306  0187  0700     E  	mov a,_builtin_holtek_mulsi3_2[11]
 306  0188  0080     E  	mov rg,a
 307  0189              #line 307 "c:\users\h469388\desktop\todo\projects\1_ngb\1_firmware\ngb_low_power_consumption_v3\source\function.c"
 307  0189  0F0E        	mov a,14
 307  018A              _LI1:
 307  018A  340A        	clr c
 307  018B  1B80     E  	rrc rg
 307  018C  1B80     E  	rrc rf
 307  018D  1B80     E  	rrc re
 307  018E  1B80     E  	rrc rd
 307  018F  1785        	sdz acc
 307  0190  2800     R  	jmp _LI1
 307  0191  2800     R  	jmp _L70
 307  0192              _L27:
 314  0192              #line 314 "c:\users\h469388\desktop\todo\projects\1_ngb\1_firmware\ngb_low_power_consumption_v3\source\function.c"
 314  0192  0700     E  	mov a,_FuncData[43]
 314  0193  0080     E  	mov rd,a
 314  0194  0700     E  	mov a,_FuncData[44]
 314  0195  0080     E  	mov re,a
 314  0196  1F00     E  	clr rf
 314  0197  1F00     E  	clr rg
 314  0198  0700     R  	mov a,_SmokeDetector_2[0]
 314  0199  0080     E  	mov _builtin_holtek_mulsi3_2[0],a
 314  019A  0700     R  	mov a,_SmokeDetector_2[1]
 314  019B  0080     E  	mov _builtin_holtek_mulsi3_2[1],a
 314  019C  0700     R  	mov a,_SmokeDetector_2[2]
 314  019D  0080     E  	mov _builtin_holtek_mulsi3_2[2],a
 314  019E  0700     R  	mov a,_SmokeDetector_2[3]
 314  019F  0080     E  	mov _builtin_holtek_mulsi3_2[3],a
 314  01A0  0700     E  	mov a,rd
 314  01A1  0080     E  	mov _builtin_holtek_mulsi3_2[4],a
 314  01A2  0700     E  	mov a,re
 314  01A3  0080     E  	mov _builtin_holtek_mulsi3_2[5],a
 314  01A4  0700     E  	mov a,rf
 314  01A5  0080     E  	mov _builtin_holtek_mulsi3_2[6],a
 314  01A6  0700     E  	mov a,rg
 314  01A7  0080     E  	mov _builtin_holtek_mulsi3_2[7],a
 314  01A8  2000     E  	call _builtin_holtek_mulsi3
 314  01A9  0700     E  	mov a,_builtin_holtek_mulsi3_2[8]
 314  01AA  0080     E  	mov rd,a
 314  01AB  0700     E  	mov a,_builtin_holtek_mulsi3_2[9]
 314  01AC  0080     E  	mov re,a
 314  01AD  0700     E  	mov a,_builtin_holtek_mulsi3_2[10]
 314  01AE  0080     E  	mov rf,a
 314  01AF  0700     E  	mov a,_builtin_holtek_mulsi3_2[11]
 314  01B0  0080     E  	mov rg,a
"File: function.c    Assembler  Version HGASM0202      Page 14

 315  01B1              #line 315 "c:\users\h469388\desktop\todo\projects\1_ngb\1_firmware\ngb_low_power_consumption_v3\source\function.c"
 315  01B1  0F07        	mov a,7
 315  01B2              _LI2:
 315  01B2  340A        	clr c
 315  01B3  1B80     E  	rrc rg
 315  01B4  1B80     E  	rrc rf
 315  01B5  1B80     E  	rrc re
 315  01B6  1B80     E  	rrc rd
 315  01B7  1785        	sdz acc
 315  01B8  2800     R  	jmp _LI2
 315  01B9              _L70:
 316  01B9              #line 316 "c:\users\h469388\desktop\todo\projects\1_ngb\1_firmware\ngb_low_power_consumption_v3\source\function.c"
 316  01B9  0FFF        	mov a,255
 316  01BA  0200     E  	sub a,rd
 316  01BB  0F0F        	mov a,15
 316  01BC  1200     E  	sbc a,re
 316  01BD  0F00        	mov a,0
 316  01BE  1200     E  	sbc a,rf
 316  01BF  0F00        	mov a,0
 316  01C0  1200     E  	sbc a,rg
 316  01C1  3C0A        	sz c
 316  01C2  2800     R  	jmp _L30
 316  01C3  1F00     E  	clr rd
 316  01C4  0F10        	mov a,16
 316  01C5  0080     E  	mov re,a
 316  01C6  1F00     E  	clr rf
 316  01C7  1F00     E  	clr rg
 316  01C8              _L30:
 317  01C8              #line 317 "c:\users\h469388\desktop\todo\projects\1_ngb\1_firmware\ngb_low_power_consumption_v3\source\function.c"
 317  01C8  0700     E  	mov a,rd
 317  01C9  0080     E  	mov _FuncData[43],a
 317  01CA  0700     E  	mov a,re
 317  01CB  0080     E  	mov _FuncData[44],a
 319  01CC              #line 319 "c:\users\h469388\desktop\todo\projects\1_ngb\1_firmware\ngb_low_power_consumption_v3\source\function.c"
 319  01CC  0700     E  	mov a,_MemData[23]
 319  01CD  0080     R  	mov _SmokeDetector_2[0],a
 319  01CE  1F00     R  	clr _SmokeDetector_2[1]
 319  01CF  1F00     R  	clr _SmokeDetector_2[2]
 319  01D0  1F00     R  	clr _SmokeDetector_2[3]
 319  01D1  0700     E  	mov a,_FuncData[39]
 319  01D2  0080     E  	mov rd,a
 319  01D3  0700     E  	mov a,_FuncData[40]
 319  01D4  0080     E  	mov re,a
 319  01D5  1F00     E  	clr rf
 319  01D6  1F00     E  	clr rg
 319  01D7  0700     R  	mov a,_SmokeDetector_2[0]
 319  01D8  0080     E  	mov _builtin_holtek_mulsi3_2[0],a
 319  01D9  0700     R  	mov a,_SmokeDetector_2[1]
 319  01DA  0080     E  	mov _builtin_holtek_mulsi3_2[1],a
 319  01DB  0700     R  	mov a,_SmokeDetector_2[2]
 319  01DC  0080     E  	mov _builtin_holtek_mulsi3_2[2],a
 319  01DD  0700     R  	mov a,_SmokeDetector_2[3]
 319  01DE  0080     E  	mov _builtin_holtek_mulsi3_2[3],a
 319  01DF  0700     E  	mov a,rd
 319  01E0  0080     E  	mov _builtin_holtek_mulsi3_2[4],a
 319  01E1  0700     E  	mov a,re
 319  01E2  0080     E  	mov _builtin_holtek_mulsi3_2[5],a
 319  01E3  0700     E  	mov a,rf
 319  01E4  0080     E  	mov _builtin_holtek_mulsi3_2[6],a
 319  01E5  0700     E  	mov a,rg
"File: function.c    Assembler  Version HGASM0202      Page 15

 319  01E6  0080     E  	mov _builtin_holtek_mulsi3_2[7],a
 319  01E7  2000     E  	call _builtin_holtek_mulsi3
 319  01E8  0700     E  	mov a,_builtin_holtek_mulsi3_2[8]
 319  01E9  0080     E  	mov rd,a
 319  01EA  0700     E  	mov a,_builtin_holtek_mulsi3_2[9]
 319  01EB  0080     E  	mov re,a
 319  01EC  0700     E  	mov a,_builtin_holtek_mulsi3_2[10]
 319  01ED  0080     E  	mov rf,a
 319  01EE  0700     E  	mov a,_builtin_holtek_mulsi3_2[11]
 319  01EF  0080     E  	mov rg,a
 320  01F0              #line 320 "c:\users\h469388\desktop\todo\projects\1_ngb\1_firmware\ngb_low_power_consumption_v3\source\function.c"
 320  01F0  0F07        	mov a,7
 320  01F1              _LI3:
 320  01F1  340A        	clr c
 320  01F2  1B80     E  	rrc rg
 320  01F3  1B80     E  	rrc rf
 320  01F4  1B80     E  	rrc re
 320  01F5  1B80     E  	rrc rd
 320  01F6  1785        	sdz acc
 320  01F7  2800     R  	jmp _LI3
 321  01F8              #line 321 "c:\users\h469388\desktop\todo\projects\1_ngb\1_firmware\ngb_low_power_consumption_v3\source\function.c"
 321  01F8  0FFF        	mov a,255
 321  01F9  0200     E  	sub a,rd
 321  01FA  0F0F        	mov a,15
 321  01FB  1200     E  	sbc a,re
 321  01FC  0F00        	mov a,0
 321  01FD  1200     E  	sbc a,rf
 321  01FE  0F00        	mov a,0
 321  01FF  1200     E  	sbc a,rg
 321  0200  3C0A        	sz c
 321  0201  2800     R  	jmp _L31
 321  0202  1F00     E  	clr rd
 321  0203  0F10        	mov a,16
 321  0204  0080     E  	mov re,a
 321  0205  1F00     E  	clr rf
 321  0206  1F00     E  	clr rg
 321  0207              _L31:
 322  0207              #line 322 "c:\users\h469388\desktop\todo\projects\1_ngb\1_firmware\ngb_low_power_consumption_v3\source\function.c"
 322  0207  0700     E  	mov a,rd
 322  0208  0080     R  	mov _SmokeDetector_2[7],a
 322  0209  0700     E  	mov a,re
 322  020A  0080     R  	mov _SmokeDetector_2[8],a
 322  020B  0700     E  	mov a,rd
 322  020C  0080     E  	mov _FuncData[39],a
 322  020D  0700     E  	mov a,re
 322  020E  0080     E  	mov _FuncData[40],a
 322  020F  0700     E  	mov a,_FuncData[28]
 322  0210  0080     R  	mov _SmokeDetector_2[0],a
 322  0211  0700     E  	mov a,_FuncData[29]
 322  0212  0080     R  	mov _SmokeDetector_2[6],a
 328  0213              #line 328 "c:\users\h469388\desktop\todo\projects\1_ngb\1_firmware\ngb_low_power_consumption_v3\source\function.c"
 328  0213  0F00        	mov a,0
 328  0214  0200     E  	sub a,rb
 328  0215  0F05        	mov a,5
 328  0216  1200     E  	sbc a,rc
 328  0217  3C0A        	sz c
 328  0218  2800     R  	jmp _L32
 330  0219              #line 330 "c:\users\h469388\desktop\todo\projects\1_ngb\1_firmware\ngb_low_power_consumption_v3\source\function.c"
 330  0219  0F02        	mov a,2
 330  021A  0200     R  	sub a,_SmokeDetector_2[0]
"File: function.c    Assembler  Version HGASM0202      Page 16

 330  021B  380A        	snz c
 330  021C  2800     R  	jmp _L33
 332  021D              #line 332 "c:\users\h469388\desktop\todo\projects\1_ngb\1_firmware\ngb_low_power_consumption_v3\source\function.c"
 332  021D  1400     R  	inca _SmokeDetector_2[0]
 332  021E  0080     E  	mov _FuncData[28],a
 332  021F  2800     R  	jmp _L36
 332  0220              _L33:
 336  0220              #line 336 "c:\users\h469388\desktop\todo\projects\1_ngb\1_firmware\ngb_low_power_consumption_v3\source\function.c"
 336  0220  0700     R  	mov a,_SmokeDetector_2[5]
 336  0221  0D00        	or a,0
 336  0222  0080     E  	mov _FuncData[7],a
 336  0223  0700     R  	mov a,_SmokeDetector_2[4]
 336  0224  0D04        	or a,4
 336  0225  0080     E  	mov _FuncData[6],a
 336  0226  2800     R  	jmp _L36
 336  0227              _L32:
 341  0227              #line 341 "c:\users\h469388\desktop\todo\projects\1_ngb\1_firmware\ngb_low_power_consumption_v3\source\function.c"
 341  0227  1E00     R  	snz _SmokeDetector_2[0]
 341  0228  2800     R  	jmp _L35
 343  0229              #line 343 "c:\users\h469388\desktop\todo\projects\1_ngb\1_firmware\ngb_low_power_consumption_v3\source\function.c"
 343  0229  1500     R  	deca _SmokeDetector_2[0]
 343  022A  0080     E  	mov _FuncData[28],a
 343  022B              _L35:
 353  022B              #line 353 "c:\users\h469388\desktop\todo\projects\1_ngb\1_firmware\ngb_low_power_consumption_v3\source\function.c"
 353  022B  0F4F        	mov a,79
 353  022C  0200     E  	sub a,rb
 353  022D  0F00        	mov a,0
 353  022E  1200     E  	sbc a,rc
 353  022F  380A        	snz c
 353  0230  2800     R  	jmp _L36
 355  0231              #line 355 "c:\users\h469388\desktop\todo\projects\1_ngb\1_firmware\ngb_low_power_consumption_v3\source\function.c"
 355  0231  0F02        	mov a,2
 355  0232  0200     R  	sub a,_SmokeDetector_2[6]
 355  0233  380A        	snz c
 355  0234  2800     R  	jmp _L37
 357  0235              #line 357 "c:\users\h469388\desktop\todo\projects\1_ngb\1_firmware\ngb_low_power_consumption_v3\source\function.c"
 357  0235  1400     R  	inca _SmokeDetector_2[6]
 357  0236  0080     E  	mov _FuncData[29],a
 357  0237  2800     R  	jmp _L38
 357  0238              _L37:
 361  0238              #line 361 "c:\users\h469388\desktop\todo\projects\1_ngb\1_firmware\ngb_low_power_consumption_v3\source\function.c"
 361  0238  0700     R  	mov a,_SmokeDetector_2[5]
 361  0239  0D00        	or a,0
 361  023A  0080     E  	mov _FuncData[7],a
 361  023B  0700     R  	mov a,_SmokeDetector_2[4]
 361  023C  0D08        	or a,8
 361  023D  0080     E  	mov _FuncData[6],a
 361  023E  2800     R  	jmp _L38
 361  023F              _L36:
 367  023F              #line 367 "c:\users\h469388\desktop\todo\projects\1_ngb\1_firmware\ngb_low_power_consumption_v3\source\function.c"
 367  023F  1E00     R  	snz _SmokeDetector_2[6]
 367  0240  2800     R  	jmp _L39
 369  0241              #line 369 "c:\users\h469388\desktop\todo\projects\1_ngb\1_firmware\ngb_low_power_consumption_v3\source\function.c"
 369  0241  1500     R  	deca _SmokeDetector_2[6]
 369  0242  0080     E  	mov _FuncData[29],a
 369  0243  2800     R  	jmp _L38
 369  0244              _L39:
 373  0244              #line 373 "c:\users\h469388\desktop\todo\projects\1_ngb\1_firmware\ngb_low_power_consumption_v3\source\function.c"
 373  0244  0FF7        	mov a,247  
 373  0245  0680     E  	andm a,_FuncData[6]  
"File: function.c    Assembler  Version HGASM0202      Page 17

 373  0246  0FFF        	mov a,255  
 373  0247  0680     E  	andm a,_FuncData[7]
 373  0248              _L38:
 378  0248              #line 378 "c:\users\h469388\desktop\todo\projects\1_ngb\1_firmware\ngb_low_power_consumption_v3\source\function.c"
 378  0248  0700     E  	mov a,_FuncData[6]
 378  0249  0080     E  	mov rb,a
 378  024A  0700     E  	mov a,_FuncData[7]
 378  024B  0080     E  	mov rc,a
 378  024C  0F0C        	mov a,12  
 378  024D  0680     E  	andm a,rb  
 378  024E  0F00        	mov a,0  
 378  024F  0680     E  	andm a,rc
 378  0250  0700     E  	mov a,rb
 378  0251  0500     E  	or a,rc
 378  0252  390A        	snz z
 378  0253  2800     R  	jmp _L40
 383  0254              #line 383 "c:\users\h469388\desktop\todo\projects\1_ngb\1_firmware\ngb_low_power_consumption_v3\source\function.c"
 383  0254  0F96        	mov a,150
 383  0255  0200     R  	sub a,_SmokeDetector_2[7]
 383  0256  0F00        	mov a,0
 383  0257  1200     R  	sbc a,_SmokeDetector_2[8]
 383  0258  380A        	snz c
 383  0259  2800     R  	jmp _L41
 383  025A  0F96        	mov a,150
 383  025B  0200     E  	sub a,_FuncData[43]
 383  025C  0F00        	mov a,0
 383  025D  1200     E  	sbc a,_FuncData[44]
 383  025E  3C0A        	sz c
 383  025F  2800     R  	jmp _L42
 383  0260              _L41:
 384  0260              #line 384 "c:\users\h469388\desktop\todo\projects\1_ngb\1_firmware\ngb_low_power_consumption_v3\source\function.c"
 384  0260  0700     E  	mov a,_SdkeePotData[2]
 384  0261  0A02        	sub a,2
 384  0262  3D0A        	sz z
 384  0263  2800     R  	jmp _L42
 395  0264              #line 395 "c:\users\h469388\desktop\todo\projects\1_ngb\1_firmware\ngb_low_power_consumption_v3\source\function.c"
 395  0264  0F01        	mov a,1
 395  0265  0080     E  	mov _SdkeePotData[2],a
 396  0266              #line 396 "c:\users\h469388\desktop\todo\projects\1_ngb\1_firmware\ngb_low_power_consumption_v3\source\function.c"
 396  0266  1F00     E  	clr _SdkeePotData[1]
 400  0267              #line 400 "c:\users\h469388\desktop\todo\projects\1_ngb\1_firmware\ngb_low_power_consumption_v3\source\function.c"
 400  0267  0F05        	mov a,5
 400  0268              _LI4:
 400  0268  340A        	clr c
 400  0269  1A80     E  	rlc rd
 400  026A  1A80     E  	rlc re
 400  026B  1A80     E  	rlc rf
 400  026C  1A80     E  	rlc rg
 400  026D  1785        	sdz acc
 400  026E  2800     R  	jmp _LI4
 401  026F              #line 401 "c:\users\h469388\desktop\todo\projects\1_ngb\1_firmware\ngb_low_power_consumption_v3\source\function.c"
 401  026F  1F00     E  	clr _builtin_holtek_udivmodsi4_2[12]
 401  0270  0700     E  	mov a,rd  
 401  0271  0080     E  	mov _builtin_holtek_udivmodsi4_2[0],a  
 401  0272  0700     E  	mov a,re  
 401  0273  0080     E  	mov _builtin_holtek_udivmodsi4_2[1],a
 401  0274  0700     E  	mov a,rf  
 401  0275  0080     E  	mov _builtin_holtek_udivmodsi4_2[2],a  
 401  0276  0700     E  	mov a,rg  
 401  0277  0080     E  	mov _builtin_holtek_udivmodsi4_2[3],a
"File: function.c    Assembler  Version HGASM0202      Page 18

 401  0278  0700     E  	mov a,_FuncData[43]  
 401  0279  0080     E  	mov _builtin_holtek_udivmodsi4_2[4],a  
 401  027A  0700     E  	mov a,_FuncData[44]  
 401  027B  0080     E  	mov _builtin_holtek_udivmodsi4_2[5],a
 401  027C  1F00     E  	clr _builtin_holtek_udivmodsi4_2[6]
 401  027D  1F00     E  	clr _builtin_holtek_udivmodsi4_2[7]
 401  027E  2000     E  	call _builtin_holtek_udivmodsi4
 401  027F  0700     E  	mov a,_builtin_holtek_udivmodsi4_2[0]  
 401  0280  0080     E  	mov rd,a  
 401  0281  0700     E  	mov a,_builtin_holtek_udivmodsi4_2[1]  
 401  0282  0080     E  	mov re,a
 401  0283  0700     E  	mov a,_builtin_holtek_udivmodsi4_2[2]  
 401  0284  0080     E  	mov rf,a  
 401  0285  0700     E  	mov a,_builtin_holtek_udivmodsi4_2[3]  
 401  0286  0080     E  	mov rg,a
 401  0287  0F00        	mov a,0
 401  0288  0200     E  	sub a,rd
 401  0289  0F02        	mov a,2
 401  028A  1200     E  	sbc a,re
 401  028B  3C0A        	sz c
 401  028C  2800     R  	jmp _L43
 401  028D  1F00     E  	clr rd
 401  028E  0F02        	mov a,2
 401  028F  0080     E  	mov re,a
 401  0290              _L43:
 408  0290              #line 408 "c:\users\h469388\desktop\todo\projects\1_ngb\1_firmware\ngb_low_power_consumption_v3\source\function.c"
 408  0290  0700     E  	mov a,rd
 408  0291  0080     E  	mov _FuncData[31],a
 408  0292  0700     E  	mov a,re
 408  0293  0080     E  	mov _FuncData[32],a
 409  0294              #line 409 "c:\users\h469388\desktop\todo\projects\1_ngb\1_firmware\ngb_low_power_consumption_v3\source\function.c"
 409  0294  1400     E  	inca _SdkeePotData[0]
 409  0295  0080     E  	mov ra,a
 409  0296  0700     E  	mov a,ra
 409  0297  0080     E  	mov _SdkeePotData[0],a
 411  0298              #line 411 "c:\users\h469388\desktop\todo\projects\1_ngb\1_firmware\ngb_low_power_consumption_v3\source\function.c"
 411  0298  0F27        	mov a,39
 411  0299  0200     E  	sub a,ra
 411  029A  380A        	snz c
 411  029B  2800     R  	jmp _L44
 417  029C              #line 417 "c:\users\h469388\desktop\todo\projects\1_ngb\1_firmware\ngb_low_power_consumption_v3\source\function.c"
 417  029C  0700     E  	mov a,rd
 417  029D  0380     E  	addm a,_SdkeePotData[3]
 417  029E  0700     E  	mov a,re
 417  029F  1380     E  	adcm a,_SdkeePotData[4]
 417  02A0  1F05        	clr acc
 417  02A1  1380     E  	adcm a,_SdkeePotData[5]
 417  02A2  1380     E  	adcm a,_SdkeePotData[6]
 417  02A3  2800     R  	jmp _L45
 417  02A4              _L44:
 423  02A4              #line 423 "c:\users\h469388\desktop\todo\projects\1_ngb\1_firmware\ngb_low_power_consumption_v3\source\function.c"
 423  02A4  1F00     E  	clr _builtin_holtek_udivmodsi4_2[12]
 423  02A5  0700     E  	mov a,_SdkeePotData[3]  
 423  02A6  0080     E  	mov _builtin_holtek_udivmodsi4_2[0],a  
 423  02A7  0700     E  	mov a,_SdkeePotData[4]  
 423  02A8  0080     E  	mov _builtin_holtek_udivmodsi4_2[1],a
 423  02A9  0700     E  	mov a,_SdkeePotData[5]  
 423  02AA  0080     E  	mov _builtin_holtek_udivmodsi4_2[2],a  
 423  02AB  0700     E  	mov a,_SdkeePotData[6]  
 423  02AC  0080     E  	mov _builtin_holtek_udivmodsi4_2[3],a
"File: function.c    Assembler  Version HGASM0202      Page 19

 423  02AD  0F28        	mov a,40  
 423  02AE  0080     E  	mov _builtin_holtek_udivmodsi4_2[4],a  
 423  02AF  0F00        	mov a,0  
 423  02B0  0080     E  	mov _builtin_holtek_udivmodsi4_2[5],a
 423  02B1  1F00     E  	clr _builtin_holtek_udivmodsi4_2[6]
 423  02B2  1F00     E  	clr _builtin_holtek_udivmodsi4_2[7]
 423  02B3  2000     E  	call _builtin_holtek_udivmodsi4
 423  02B4  0700     E  	mov a,_builtin_holtek_udivmodsi4_2[0]  
 423  02B5  0080     E  	mov rd,a  
 423  02B6  0700     E  	mov a,_builtin_holtek_udivmodsi4_2[1]  
 423  02B7  0080     E  	mov re,a
 423  02B8  0700     E  	mov a,_builtin_holtek_udivmodsi4_2[2]  
 423  02B9  0080     E  	mov rf,a  
 423  02BA  0700     E  	mov a,_builtin_holtek_udivmodsi4_2[3]  
 423  02BB  0080     E  	mov rg,a
 423  02BC  0700     E  	mov a,rd
 423  02BD  0080     E  	mov _FuncData[31],a
 423  02BE  0700     E  	mov a,re
 423  02BF  0080     E  	mov _FuncData[32],a
 429  02C0              #line 429 "c:\users\h469388\desktop\todo\projects\1_ngb\1_firmware\ngb_low_power_consumption_v3\source\function.c"
 429  02C0  0F1F        	mov a,31
 429  02C1  0200     E  	sub a,rd
 429  02C2  0F00        	mov a,0
 429  02C3  1200     E  	sbc a,re
 429  02C4  3C0A        	sz c
 429  02C5  2800     R  	jmp _L46
 435  02C6              #line 435 "c:\users\h469388\desktop\todo\projects\1_ngb\1_firmware\ngb_low_power_consumption_v3\source\function.c"
 435  02C6  0F01        	mov a,1
 435  02C7  0080     E  	mov _FuncData[48],a
 435  02C8              _L46:
 437  02C8              #line 437 "c:\users\h469388\desktop\todo\projects\1_ngb\1_firmware\ngb_low_power_consumption_v3\source\function.c"
 437  02C8  1F00     E  	clr _SdkeePotData[0]
 438  02C9              #line 438 "c:\users\h469388\desktop\todo\projects\1_ngb\1_firmware\ngb_low_power_consumption_v3\source\function.c"
 438  02C9  0F02        	mov a,2
 438  02CA  0080     E  	mov _SdkeePotData[2],a
 438  02CB  2800     R  	jmp _L45
 438  02CC              _L42:
 444  02CC              #line 444 "c:\users\h469388\desktop\todo\projects\1_ngb\1_firmware\ngb_low_power_consumption_v3\source\function.c"
 444  02CC  1700     E  	sdza _SdkeePotData[2]
 444  02CD  2800     R  	jmp _L45
 446  02CE              #line 446 "c:\users\h469388\desktop\todo\projects\1_ngb\1_firmware\ngb_low_power_consumption_v3\source\function.c"
 446  02CE  1400     E  	inca _SdkeePotData[1]
 446  02CF  0080     E  	mov ra,a
 446  02D0  0700     E  	mov a,ra
 446  02D1  0080     E  	mov _SdkeePotData[1],a
 447  02D2              #line 447 "c:\users\h469388\desktop\todo\projects\1_ngb\1_firmware\ngb_low_power_consumption_v3\source\function.c"
 447  02D2  0F02        	mov a,2
 447  02D3  0200     E  	sub a,ra
 447  02D4  3C0A        	sz c
 447  02D5  2800     R  	jmp _L45
 447  02D6              _L40:
 463  02D6              #line 463 "c:\users\h469388\desktop\todo\projects\1_ngb\1_firmware\ngb_low_power_consumption_v3\source\function.c"
 463  02D6  1F00     E  	clr _SdkeePotData[1]
 464  02D7              #line 464 "c:\users\h469388\desktop\todo\projects\1_ngb\1_firmware\ngb_low_power_consumption_v3\source\function.c"
 464  02D7  1F00     E  	clr _SdkeePotData[0]
 465  02D8              #line 465 "c:\users\h469388\desktop\todo\projects\1_ngb\1_firmware\ngb_low_power_consumption_v3\source\function.c"
 465  02D8  1F00     E  	clr _SdkeePotData[2]
 466  02D9              #line 466 "c:\users\h469388\desktop\todo\projects\1_ngb\1_firmware\ngb_low_power_consumption_v3\source\function.c"
 466  02D9  1F00     E  	clr _FuncData[48]
 467  02DA              #line 467 "c:\users\h469388\desktop\todo\projects\1_ngb\1_firmware\ngb_low_power_consumption_v3\source\function.c"
"File: function.c    Assembler  Version HGASM0202      Page 20

 467  02DA  1F00     E  	clr _FuncData[31]
 467  02DB  1F00     E  	clr _FuncData[32]
 468  02DC              #line 468 "c:\users\h469388\desktop\todo\projects\1_ngb\1_firmware\ngb_low_power_consumption_v3\source\function.c"
 468  02DC  1F00     E  	clr _SdkeePotData[3]
 468  02DD  1F00     E  	clr _SdkeePotData[4]
 468  02DE  1F00     E  	clr _SdkeePotData[5]
 468  02DF  1F00     E  	clr _SdkeePotData[6]
 468  02E0              _L45:
 471  02E0              #line 471 "c:\users\h469388\desktop\todo\projects\1_ngb\1_firmware\ngb_low_power_consumption_v3\source\function.c"
 471  02E0  1700     E  	sdza _FuncData[48]
 471  02E1  2800     R  	jmp _L49
 474  02E2              #line 474 "c:\users\h469388\desktop\todo\projects\1_ngb\1_firmware\ngb_low_power_consumption_v3\source\function.c"
 474  02E2  0FB8        	mov a,-72
 474  02E3  0080     E  	mov _FuncData[22],a
 474  02E4  0F0B        	mov a,11
 474  02E5  0080     E  	mov _FuncData[23],a
 476  02E6              #line 476 "c:\users\h469388\desktop\todo\projects\1_ngb\1_firmware\ngb_low_power_consumption_v3\source\function.c"
 476  02E6  0F95        	mov a,149
 476  02E7  0200     R  	sub a,_SmokeDetector_2[7]
 476  02E8  0F00        	mov a,0
 476  02E9  1200     R  	sbc a,_SmokeDetector_2[8]
 476  02EA  380A        	snz c
 476  02EB  2800     R  	jmp _L50
 476  02EC  0F95        	mov a,149
 476  02ED  0200     E  	sub a,_FuncData[43]
 476  02EE  0F00        	mov a,0
 476  02EF  1200     E  	sbc a,_FuncData[44]
 476  02F0  380A        	snz c
 476  02F1  2800     R  	jmp _L50
 484  02F2              #line 484 "c:\users\h469388\desktop\todo\projects\1_ngb\1_firmware\ngb_low_power_consumption_v3\source\function.c"
 484  02F2  1F00     E  	clr _FuncData[48]
 485  02F3              #line 485 "c:\users\h469388\desktop\todo\projects\1_ngb\1_firmware\ngb_low_power_consumption_v3\source\function.c"
 485  02F3  1F00     E  	clr _SdkeePotData[2]
 486  02F4              #line 486 "c:\users\h469388\desktop\todo\projects\1_ngb\1_firmware\ngb_low_power_consumption_v3\source\function.c"
 486  02F4  1F00     E  	clr _FuncData[31]
 486  02F5  1F00     E  	clr _FuncData[32]
 487  02F6              #line 487 "c:\users\h469388\desktop\todo\projects\1_ngb\1_firmware\ngb_low_power_consumption_v3\source\function.c"
 487  02F6  1F00     E  	clr _SdkeePotData[1]
 488  02F7              #line 488 "c:\users\h469388\desktop\todo\projects\1_ngb\1_firmware\ngb_low_power_consumption_v3\source\function.c"
 488  02F7  1F00     E  	clr _SdkeePotData[0]
 489  02F8              #line 489 "c:\users\h469388\desktop\todo\projects\1_ngb\1_firmware\ngb_low_power_consumption_v3\source\function.c"
 489  02F8  1F00     E  	clr _SdkeePotData[3]
 489  02F9  1F00     E  	clr _SdkeePotData[4]
 489  02FA  1F00     E  	clr _SdkeePotData[5]
 489  02FB  1F00     E  	clr _SdkeePotData[6]
 489  02FC  2800     R  	jmp _L50
 489  02FD              _L49:
 494  02FD              #line 494 "c:\users\h469388\desktop\todo\projects\1_ngb\1_firmware\ngb_low_power_consumption_v3\source\function.c"
 494  02FD  0700     E  	mov a,_FuncData[43]
 494  02FE  0080     E  	mov rd,a
 494  02FF  0700     E  	mov a,_FuncData[44]
 494  0300  0080     E  	mov re,a
 494  0301  0F0F        	mov a,15
 494  0302  0200     E  	sub a,rd
 494  0303  0F00        	mov a,0
 494  0304  1200     E  	sbc a,re
 494  0305  380A        	snz c
 494  0306  2800     R  	jmp _L51
 496  0307              #line 496 "c:\users\h469388\desktop\todo\projects\1_ngb\1_firmware\ngb_low_power_consumption_v3\source\function.c"
 496  0307  0F84        	mov a,-124
"File: function.c    Assembler  Version HGASM0202      Page 21

 496  0308  0080     E  	mov _FuncData[22],a
 496  0309  0F03        	mov a,3
 496  030A  0080     E  	mov _FuncData[23],a
 496  030B  2800     R  	jmp _L50
 496  030C              _L51:
 500  030C              #line 500 "c:\users\h469388\desktop\todo\projects\1_ngb\1_firmware\ngb_low_power_consumption_v3\source\function.c"
 500  030C  0700     E  	mov a,rd
 500  030D  0080     E  	mov rd,a
 500  030E  0700     E  	mov a,re
 500  030F  0080     E  	mov re,a
 500  0310  1F00     E  	clr rf
 500  0311  1F00     E  	clr rg
 502  0312              #line 502 "c:\users\h469388\desktop\todo\projects\1_ngb\1_firmware\ngb_low_power_consumption_v3\source\function.c"
 502  0312  0700     E  	mov a,_MemData[5]
 502  0313  0A02        	sub a,2
 502  0314  390A        	snz z
 502  0315  2800     R  	jmp _L52
 504  0316              #line 504 "c:\users\h469388\desktop\todo\projects\1_ngb\1_firmware\ngb_low_power_consumption_v3\source\function.c"
 504  0316  0F06        	mov a,6
 504  0317              _LI5:
 504  0317  340A        	clr c
 504  0318  1A80     E  	rlc rd
 504  0319  1A80     E  	rlc re
 504  031A  1A80     E  	rlc rf
 504  031B  1A80     E  	rlc rg
 504  031C  1785        	sdz acc
 504  031D  2800     R  	jmp _LI5
 504  031E  2800     R  	jmp _L67
 504  031F              _L52:
 509  031F              #line 509 "c:\users\h469388\desktop\todo\projects\1_ngb\1_firmware\ngb_low_power_consumption_v3\source\function.c"
 509  031F  0F07        	mov a,7
 509  0320              _LI6:
 509  0320  340A        	clr c
 509  0321  1A80     E  	rlc rd
 509  0322  1A80     E  	rlc re
 509  0323  1A80     E  	rlc rf
 509  0324  1A80     E  	rlc rg
 509  0325  1785        	sdz acc
 509  0326  2800     R  	jmp _LI6
 509  0327              _L67:
 510  0327              #line 510 "c:\users\h469388\desktop\todo\projects\1_ngb\1_firmware\ngb_low_power_consumption_v3\source\function.c"
 510  0327  1F00     E  	clr _builtin_holtek_udivmodsi4_2[12]
 510  0328  0700     E  	mov a,rd  
 510  0329  0080     E  	mov _builtin_holtek_udivmodsi4_2[0],a  
 510  032A  0700     E  	mov a,re  
 510  032B  0080     E  	mov _builtin_holtek_udivmodsi4_2[1],a
 510  032C  0700     E  	mov a,rf  
 510  032D  0080     E  	mov _builtin_holtek_udivmodsi4_2[2],a  
 510  032E  0700     E  	mov a,rg  
 510  032F  0080     E  	mov _builtin_holtek_udivmodsi4_2[3],a
 510  0330  0F64        	mov a,100  
 510  0331  0080     E  	mov _builtin_holtek_udivmodsi4_2[4],a  
 510  0332  0F00        	mov a,0  
 510  0333  0080     E  	mov _builtin_holtek_udivmodsi4_2[5],a
 510  0334  1F00     E  	clr _builtin_holtek_udivmodsi4_2[6]
 510  0335  1F00     E  	clr _builtin_holtek_udivmodsi4_2[7]
 510  0336  2000     E  	call _builtin_holtek_udivmodsi4
 510  0337  0700     E  	mov a,_builtin_holtek_udivmodsi4_2[0]  
 510  0338  0080     E  	mov rd,a  
 510  0339  0700     E  	mov a,_builtin_holtek_udivmodsi4_2[1]  
"File: function.c    Assembler  Version HGASM0202      Page 22

 510  033A  0080     E  	mov re,a
 510  033B  0700     E  	mov a,_builtin_holtek_udivmodsi4_2[2]  
 510  033C  0080     E  	mov rf,a  
 510  033D  0700     E  	mov a,_builtin_holtek_udivmodsi4_2[3]  
 510  033E  0080     E  	mov rg,a
 517  033F              #line 517 "c:\users\h469388\desktop\todo\projects\1_ngb\1_firmware\ngb_low_power_consumption_v3\source\function.c"
 517  033F  0F4B        	mov a,75
 517  0340  0200     E  	sub a,rd
 517  0341  0F04        	mov a,4
 517  0342  1200     E  	sbc a,re
 517  0343  0F00        	mov a,0
 517  0344  1200     E  	sbc a,rf
 517  0345  0F00        	mov a,0
 517  0346  1200     E  	sbc a,rg
 517  0347  3C0A        	sz c
 517  0348  2800     R  	jmp _L54
 518  0349              #line 518 "c:\users\h469388\desktop\todo\projects\1_ngb\1_firmware\ngb_low_power_consumption_v3\source\function.c"
 518  0349  0F34        	mov a,52
 518  034A  0080     E  	mov rd,a
 518  034B  0F08        	mov a,8
 518  034C  0080     E  	mov re,a
 518  034D  1F00     E  	clr rf
 518  034E  1F00     E  	clr rg
 518  034F              _L54:
 519  034F              #line 519 "c:\users\h469388\desktop\todo\projects\1_ngb\1_firmware\ngb_low_power_consumption_v3\source\function.c"
 519  034F  0F84        	mov a,132
 519  0350  0300     E  	add a,rd
 519  0351  0080     E  	mov _FuncData[22],a
 519  0352  0F03        	mov a,3
 519  0353  1300     E  	adc a,re
 519  0354  0080     E  	mov _FuncData[23],a
 519  0355              _L50:
 527  0355              #line 527 "c:\users\h469388\desktop\todo\projects\1_ngb\1_firmware\ngb_low_power_consumption_v3\source\function.c"
 527  0355  3400     E  	clr _SysData[0].1
 530  0356              #line 530 "c:\users\h469388\desktop\todo\projects\1_ngb\1_firmware\ngb_low_power_consumption_v3\source\function.c"
 530  0356  0F80        	mov a,128
 530  0357  0080     E  	mov _FuncData[0],a
 533  0358              #line 533 "c:\users\h469388\desktop\todo\projects\1_ngb\1_firmware\ngb_low_power_consumption_v3\source\function.c"
 533  0358  0F96        	mov a,150
 533  0359  0200     E  	sub a,_FuncData[43]
 533  035A  0F00        	mov a,0
 533  035B  1200     E  	sbc a,_FuncData[44]
 533  035C  380A        	snz c
 533  035D  2800     R  	jmp _L55
 533  035E  0F96        	mov a,150
 533  035F  0200     R  	sub a,_SmokeDetector_2[7]
 533  0360  0F00        	mov a,0
 533  0361  1200     R  	sbc a,_SmokeDetector_2[8]
 533  0362  3C0A        	sz c
 533  0363  2800     R  	jmp _L56
 533  0364              _L55:
 536  0364              #line 536 "c:\users\h469388\desktop\todo\projects\1_ngb\1_firmware\ngb_low_power_consumption_v3\source\function.c"
 536  0364  0F40        	mov a,64
 536  0365  0080     E  	mov _FuncData[0],a
 536  0366              _L56:
 539  0366              #line 539 "c:\users\h469388\desktop\todo\projects\1_ngb\1_firmware\ngb_low_power_consumption_v3\source\function.c"
 539  0366  0700     E  	mov a,_FuncData[19]
 539  0367  0A55        	sub a,85
 539  0368  390A        	snz z
 539  0369  2800     R  	jmp _L5
"File: function.c    Assembler  Version HGASM0202      Page 23

 541  036A              #line 541 "c:\users\h469388\desktop\todo\projects\1_ngb\1_firmware\ngb_low_power_consumption_v3\source\function.c"
 541  036A  0F40        	mov a,64
 541  036B  0080     E  	mov _FuncData[0],a
 541  036C              _L5:
 541  036C  0003        	ret
 541  036D              _SmokeDetector endp
 541  036D              #line 541 "c:\users\h469388\desktop\todo\projects\1_ngb\1_firmware\ngb_low_power_consumption_v3\source\function.c"
 541  036D              #pragma debug scope 1 1
 541  036D              public _SmokeDetectorBuzzle
 541  036D              #pragma debug scope 4 1
 553  036D              #line 553 "c:\users\h469388\desktop\todo\projects\1_ngb\1_firmware\ngb_low_power_consumption_v3\source\function.c"
 553  0000              _SmokeDetectorBuzzle .section 'code'
 553  0000              _SmokeDetectorBuzzle proc
 553  0000  00              local _SmokeDetectorBuzzle_2 db 1 dup(?)	; 0,1
 558  0001              #line 558 "c:\users\h469388\desktop\todo\projects\1_ngb\1_firmware\ngb_low_power_consumption_v3\source\function.c"
 558  0000  0700     E  	mov a,_FuncData[8]
 558  0001  0080     E  	mov ra,a
 558  0002  0700     E  	mov a,ra
 558  0003  0200     E  	sub a,_FuncData[53]
 558  0004  3D0A        	sz z
 558  0005  2800     R  	jmp _L73
 560  0006              #line 560 "c:\users\h469388\desktop\todo\projects\1_ngb\1_firmware\ngb_low_power_consumption_v3\source\function.c"
 560  0006  0700     E  	mov a,ra
 560  0007  0080     E  	mov _FuncData[53],a
 562  0008              #line 562 "c:\users\h469388\desktop\todo\projects\1_ngb\1_firmware\ngb_low_power_consumption_v3\source\function.c"
 562  0008  1F00     E  	clr _FuncData[51]
 563  0009              #line 563 "c:\users\h469388\desktop\todo\projects\1_ngb\1_firmware\ngb_low_power_consumption_v3\source\function.c"
 563  0009  0F00        	mov a,0
 563  000A  2000     E  	call _SmokeBuzzlePwm
 564  000B              #line 564 "c:\users\h469388\desktop\todo\projects\1_ngb\1_firmware\ngb_low_power_consumption_v3\source\function.c"
 564  000B  1F00     E  	clr _FuncData[55]
 567  000C              #line 567 "c:\users\h469388\desktop\todo\projects\1_ngb\1_firmware\ngb_low_power_consumption_v3\source\function.c"
 567  000C  0700     E  	mov a,_FuncData[53]
 567  000D  0080     R  	mov _SmokeDetectorBuzzle_2[0],a
 567  000E  0700     R  	mov a,_SmokeDetectorBuzzle_2[0]
 567  000F  0AC1        	sub a,193
 567  0010  390A        	snz z
 567  0011  2800     R  	jmp _L74
 569  0012              #line 569 "c:\users\h469388\desktop\todo\projects\1_ngb\1_firmware\ngb_low_power_consumption_v3\source\function.c"
 569  0012  3000     E  	set _FuncData[54].0
 570  0013              #line 570 "c:\users\h469388\desktop\todo\projects\1_ngb\1_firmware\ngb_low_power_consumption_v3\source\function.c"
 570  0013  0F02        	mov a,2
 570  0014  0580     E  	orm a,_FuncData[7]
 570  0015  0F00        	mov a,0
 570  0016  0580     E  	orm a,_FuncData[6]
 570  0017  2800     R  	jmp _L73
 570  0018              _L74:
 572  0018              #line 572 "c:\users\h469388\desktop\todo\projects\1_ngb\1_firmware\ngb_low_power_consumption_v3\source\function.c"
 572  0018  0700     R  	mov a,_SmokeDetectorBuzzle_2[0]
 572  0019  0AC2        	sub a,194
 572  001A  390A        	snz z
 572  001B  2800     R  	jmp _L73
 574  001C              #line 574 "c:\users\h469388\desktop\todo\projects\1_ngb\1_firmware\ngb_low_power_consumption_v3\source\function.c"
 574  001C  3400     E  	clr _FuncData[54].0
 575  001D              #line 575 "c:\users\h469388\desktop\todo\projects\1_ngb\1_firmware\ngb_low_power_consumption_v3\source\function.c"
 575  001D  0FFF        	mov a,255  
 575  001E  0680     E  	andm a,_FuncData[6]  
 575  001F  0FFD        	mov a,253  
 575  0020  0680     E  	andm a,_FuncData[7]
 575  0021              _L73:
"File: function.c    Assembler  Version HGASM0202      Page 24

 581  0021              #line 581 "c:\users\h469388\desktop\todo\projects\1_ngb\1_firmware\ngb_low_power_consumption_v3\source\function.c"
 581  0021  0700     E  	mov a,_FuncData[54]
 581  0022  0080     E  	mov ra,a
 581  0023  0700     E  	mov a,ra
 581  0024  0E03        	and a,3
 581  0025  0080     E  	mov rb,a
 581  0026  1E00     E  	snz rb
 581  0027  2800     R  	jmp _L76
 582  0028              #line 582 "c:\users\h469388\desktop\todo\projects\1_ngb\1_firmware\ngb_low_power_consumption_v3\source\function.c"
 582  0028  1080     E  	sz _FuncData[30]
 582  0029  2800     R  	jmp _L76
 586  002A              #line 586 "c:\users\h469388\desktop\todo\projects\1_ngb\1_firmware\ngb_low_power_consumption_v3\source\function.c"
 586  002A  0700     E  	mov a,_FuncData[51]
 586  002B  0A00        	sub a,0
 586  002C  3D0A        	sz z
 586  002D  2800     R  	jmp _L78
 586  002E  0A01        	sub a,(1)-(0)
 586  002F  3D0A        	sz z
 586  0030  2800     R  	jmp _L79
 586  0031  0700     E  	mov a,_FuncData[51]
 586  0032  0A02        	sub a,2
 586  0033  3D0A        	sz z
 586  0034  2800     R  	jmp _L80
 586  0035  0A01        	sub a,(3)-(2)
 586  0036  3D0A        	sz z
 586  0037  2800     R  	jmp _L81
 586  0038  0700     E  	mov a,_FuncData[51]
 586  0039  0A04        	sub a,4
 586  003A  3D0A        	sz z
 586  003B  2800     R  	jmp _L82
 586  003C  0700     E  	mov a,_FuncData[51]
 586  003D  0A05        	sub a,5
 586  003E  390A        	snz z
 586  003F  2800     R  	jmp _L71
 669  0040              #line 669 "c:\users\h469388\desktop\todo\projects\1_ngb\1_firmware\ngb_low_power_consumption_v3\source\function.c"
 669  0040  0F34        	mov a,52
 669  0041  0080     E  	mov _FuncData[1],a
 670  0042              #line 670 "c:\users\h469388\desktop\todo\projects\1_ngb\1_firmware\ngb_low_power_consumption_v3\source\function.c"
 670  0042  1F00     E  	clr _FuncData[51]
 672  0043              #line 672 "c:\users\h469388\desktop\todo\projects\1_ngb\1_firmware\ngb_low_power_consumption_v3\source\function.c"
 672  0043  2800     R  	jmp _L71
 672  0044              _L78:
 590  0044              #line 590 "c:\users\h469388\desktop\todo\projects\1_ngb\1_firmware\ngb_low_power_consumption_v3\source\function.c"
 590  0044  0F01        	mov a,1
 590  0045  0080     E  	mov _FuncData[51],a
 591  0046              #line 591 "c:\users\h469388\desktop\todo\projects\1_ngb\1_firmware\ngb_low_power_consumption_v3\source\function.c"
 591  0046  0F02        	mov a,2
 591  0047  0080     E  	mov _FuncData[55],a
 591  0048  2800     R  	jmp _L102
 591  0049              _L79:
 598  0049              #line 598 "c:\users\h469388\desktop\todo\projects\1_ngb\1_firmware\ngb_low_power_consumption_v3\source\function.c"
 598  0049  0F02        	mov a,2
 598  004A  0080     E  	mov _FuncData[51],a
 602  004B              #line 602 "c:\users\h469388\desktop\todo\projects\1_ngb\1_firmware\ngb_low_power_consumption_v3\source\function.c"
 602  004B  0700     E  	mov a,_FuncData[52]
 602  004C  0300     E  	add a,_FuncData[52]
 602  004D  0080     E  	mov ra,a
 602  004E  0700     E  	mov a,_FuncData[52]
 602  004F  0380     E  	addm a,ra
 602  0050  0700     E  	mov a,ra
"File: function.c    Assembler  Version HGASM0202      Page 25

 602  0051  0380     E  	addm a,ra
 602  0052  0700     E  	mov a,ra
 602  0053  0300     E  	add a,ra
 602  0054  0080     E  	mov _FuncData[1],a
 602  0055              _L102:
 606  0055              #line 606 "c:\users\h469388\desktop\todo\projects\1_ngb\1_firmware\ngb_low_power_consumption_v3\source\function.c"
 606  0055  3000     E  	set _SysData[0].7
 608  0056              #line 608 "c:\users\h469388\desktop\todo\projects\1_ngb\1_firmware\ngb_low_power_consumption_v3\source\function.c"
 608  0056  2800     R  	jmp _L71
 608  0057              _L80:
 613  0057              #line 613 "c:\users\h469388\desktop\todo\projects\1_ngb\1_firmware\ngb_low_power_consumption_v3\source\function.c"
 613  0057  3800     E  	snz ra.0
 613  0058  2800     R  	jmp _L84
 615  0059              #line 615 "c:\users\h469388\desktop\todo\projects\1_ngb\1_firmware\ngb_low_power_consumption_v3\source\function.c"
 615  0059  0F01        	mov a,1
 615  005A  2000     E  	call _SmokeBuzzlePwm
 616  005B              #line 616 "c:\users\h469388\desktop\todo\projects\1_ngb\1_firmware\ngb_low_power_consumption_v3\source\function.c"
 616  005B  3000     E  	set _SysData[0].4
 616  005C              _L84:
 618  005C              #line 618 "c:\users\h469388\desktop\todo\projects\1_ngb\1_firmware\ngb_low_power_consumption_v3\source\function.c"
 618  005C  0F03        	mov a,3
 618  005D  0080     E  	mov _FuncData[51],a
 619  005E              #line 619 "c:\users\h469388\desktop\todo\projects\1_ngb\1_firmware\ngb_low_power_consumption_v3\source\function.c"
 619  005E  0F0B        	mov a,11
 619  005F  0080     E  	mov _FuncData[1],a
 622  0060              #line 622 "c:\users\h469388\desktop\todo\projects\1_ngb\1_firmware\ngb_low_power_consumption_v3\source\function.c"
 622  0060  2800     R  	jmp _L71
 622  0061              _L81:
 626  0061              #line 626 "c:\users\h469388\desktop\todo\projects\1_ngb\1_firmware\ngb_low_power_consumption_v3\source\function.c"
 626  0061  3800     E  	snz ra.0
 626  0062  2800     R  	jmp _L86
 628  0063              #line 628 "c:\users\h469388\desktop\todo\projects\1_ngb\1_firmware\ngb_low_power_consumption_v3\source\function.c"
 628  0063  0F00        	mov a,0
 628  0064  2000     E  	call _SmokeBuzzlePwm
 629  0065              #line 629 "c:\users\h469388\desktop\todo\projects\1_ngb\1_firmware\ngb_low_power_consumption_v3\source\function.c"
 629  0065  3400     E  	clr _SysData[0].4
 635  0066              #line 635 "c:\users\h469388\desktop\todo\projects\1_ngb\1_firmware\ngb_low_power_consumption_v3\source\function.c"
 635  0066  0700     E  	mov a,_FuncData[0]
 635  0067  0080     E  	mov ra,a
 635  0068  0F01        	mov a,1
 635  0069  0200     E  	sub a,ra
 635  006A  380A        	snz c
 635  006B  2800     R  	jmp _L86
 637  006C              #line 637 "c:\users\h469388\desktop\todo\projects\1_ngb\1_firmware\ngb_low_power_consumption_v3\source\function.c"
 637  006C  1400     E  	inca ra
 637  006D  0080     E  	mov _FuncData[0],a
 637  006E              _L86:
 641  006E              #line 641 "c:\users\h469388\desktop\todo\projects\1_ngb\1_firmware\ngb_low_power_consumption_v3\source\function.c"
 641  006E  0F04        	mov a,4
 641  006F  0080     E  	mov _FuncData[51],a
 641  0070  2800     R  	jmp _L94
 641  0071              _L82:
 648  0071              #line 648 "c:\users\h469388\desktop\todo\projects\1_ngb\1_firmware\ngb_low_power_consumption_v3\source\function.c"
 648  0071  0700     E  	mov a,_FuncData[55]
 648  0072  0080     E  	mov ra,a
 648  0073  1E00     E  	snz ra
 648  0074  2800     R  	jmp _L88
 650  0075              #line 650 "c:\users\h469388\desktop\todo\projects\1_ngb\1_firmware\ngb_low_power_consumption_v3\source\function.c"
 650  0075  0F01        	mov a,1
 650  0076  0080     E  	mov _FuncData[51],a
"File: function.c    Assembler  Version HGASM0202      Page 26

 651  0077              #line 651 "c:\users\h469388\desktop\todo\projects\1_ngb\1_firmware\ngb_low_power_consumption_v3\source\function.c"
 651  0077  1500     E  	deca ra
 651  0078  0080     E  	mov _FuncData[55],a
 651  0079  2800     R  	jmp _L89
 651  007A              _L88:
 656  007A              #line 656 "c:\users\h469388\desktop\todo\projects\1_ngb\1_firmware\ngb_low_power_consumption_v3\source\function.c"
 656  007A  0F05        	mov a,5
 656  007B  0080     E  	mov _FuncData[51],a
 656  007C              _L89:
 659  007C              #line 659 "c:\users\h469388\desktop\todo\projects\1_ngb\1_firmware\ngb_low_power_consumption_v3\source\function.c"
 659  007C  0700     E  	mov a,_FuncData[52]
 659  007D  0080     E  	mov rb,a
 659  007E  1F00     E  	clr rc
 659  007F  0180     E  	cpl rb
 659  0080  0180     E  	cpl rc
 658  0081              #line 658 "c:\users\h469388\desktop\todo\projects\1_ngb\1_firmware\ngb_low_power_consumption_v3\source\function.c"
 658  0081  0700     E  	mov a,rb
 658  0082  0300     E  	add a,rb
 658  0083  0080     E  	mov ra,a
 658  0084  0700     E  	mov a,ra
 658  0085  0380     E  	addm a,rb
 658  0086  0700     E  	mov a,rb
 658  0087  0380     E  	addm a,rb
 658  0088  0700     E  	mov a,rb
 658  0089  0380     E  	addm a,rb
 658  008A  0700     E  	mov a,rb
 658  008B  0B1A        	add a,26
 658  008C  0080     E  	mov _FuncData[1],a
 664  008D              #line 664 "c:\users\h469388\desktop\todo\projects\1_ngb\1_firmware\ngb_low_power_consumption_v3\source\function.c"
 664  008D  2800     R  	jmp _L71
 664  008E              _L76:
 683  008E              #line 683 "c:\users\h469388\desktop\todo\projects\1_ngb\1_firmware\ngb_low_power_consumption_v3\source\function.c"
 683  008E  1F00     E  	clr _FuncData[55]
 684  008F              #line 684 "c:\users\h469388\desktop\todo\projects\1_ngb\1_firmware\ngb_low_power_consumption_v3\source\function.c"
 684  008F  1F00     E  	clr _FuncData[51]
 686  0090              #line 686 "c:\users\h469388\desktop\todo\projects\1_ngb\1_firmware\ngb_low_power_consumption_v3\source\function.c"
 686  0090  0700     E  	mov a,_SysData[0]
 686  0091  0080     E  	mov ra,a
 686  0092  3400     E  	clr ra.4
 686  0093  0700     E  	mov a,ra
 686  0094  0080     E  	mov _SysData[0],a
 689  0095              #line 689 "c:\users\h469388\desktop\todo\projects\1_ngb\1_firmware\ngb_low_power_consumption_v3\source\function.c"
 689  0095  0700     E  	mov a,_FuncData[19]
 689  0096  0AB0        	sub a,176
 689  0097  3D0A        	sz z
 689  0098  2800     R  	jmp _L91
 689  0099  0A01        	sub a,(177)-(176)
 689  009A  3D0A        	sz z
 689  009B  2800     R  	jmp _L92
 689  009C  1600     E  	siza _FuncData[19]
 689  009D  2800     R  	jmp _L101
 701  009E              #line 701 "c:\users\h469388\desktop\todo\projects\1_ngb\1_firmware\ngb_low_power_consumption_v3\source\function.c"
 701  009E  3000     E  	set ra.1
 701  009F  0700     E  	mov a,ra
 701  00A0  0080     E  	mov _SysData[0],a
 703  00A1              #line 703 "c:\users\h469388\desktop\todo\projects\1_ngb\1_firmware\ngb_low_power_consumption_v3\source\function.c"
 703  00A1  2800     R  	jmp _L94
 703  00A2              _L92:
 692  00A2              #line 692 "c:\users\h469388\desktop\todo\projects\1_ngb\1_firmware\ngb_low_power_consumption_v3\source\function.c"
 692  00A2  0F02        	mov a,2
"File: function.c    Assembler  Version HGASM0202      Page 27

 692  00A3  2000     E  	call _SmokeBuzzlePwm
 693  00A4              #line 693 "c:\users\h469388\desktop\todo\projects\1_ngb\1_firmware\ngb_low_power_consumption_v3\source\function.c"
 693  00A4  3000     E  	set _SysData[0].1
 694  00A5              #line 694 "c:\users\h469388\desktop\todo\projects\1_ngb\1_firmware\ngb_low_power_consumption_v3\source\function.c"
 694  00A5  1F80     E  	set _FuncData[19]
 694  00A6  2800     R  	jmp _L94
 694  00A7              _L91:
 695  00A7              #line 695 "c:\users\h469388\desktop\todo\projects\1_ngb\1_firmware\ngb_low_power_consumption_v3\source\function.c"
 695  00A7  0F00        	mov a,0
 695  00A8  2000     E  	call _SmokeBuzzlePwm
 696  00A9              #line 696 "c:\users\h469388\desktop\todo\projects\1_ngb\1_firmware\ngb_low_power_consumption_v3\source\function.c"
 696  00A9  3400     E  	clr _SysData[0].1
 697  00AA              #line 697 "c:\users\h469388\desktop\todo\projects\1_ngb\1_firmware\ngb_low_power_consumption_v3\source\function.c"
 697  00AA  1F00     E  	clr _FuncData[19]
 697  00AB  2800     R  	jmp _L94
 697  00AC              _L101:
 708  00AC              #line 708 "c:\users\h469388\desktop\todo\projects\1_ngb\1_firmware\ngb_low_power_consumption_v3\source\function.c"
 708  00AC  1080     E  	sz _FuncData[30]
 708  00AD  2800     R  	jmp _L94
 710  00AE              #line 710 "c:\users\h469388\desktop\todo\projects\1_ngb\1_firmware\ngb_low_power_consumption_v3\source\function.c"
 710  00AE  0F00        	mov a,0
 710  00AF  2000     E  	call _SmokeBuzzlePwm
 710  00B0              _L94:
 715  00B0              #line 715 "c:\users\h469388\desktop\todo\projects\1_ngb\1_firmware\ngb_low_power_consumption_v3\source\function.c"
 715  00B0  0F01        	mov a,1
 715  00B1  0080     E  	mov _FuncData[1],a
 715  00B2              _L71:
 715  00B2  0003        	ret
 715  00B3              _SmokeDetectorBuzzle endp
 715  00B3              #line 715 "c:\users\h469388\desktop\todo\projects\1_ngb\1_firmware\ngb_low_power_consumption_v3\source\function.c"
 715  00B3              #pragma debug scope 1 1
 715  00B3              ___intc2 equ [74]
 715  00B3              ___ptmal equ [87]
 715  00B3              ___ptmah equ [88]
 715  00B3              ___ptmc0 equ [82]
 715  00B3              public _drawForPWOutputTimer
 715  00B3              #pragma debug scope 5 1
 809  00B3              #line 809 "c:\users\h469388\desktop\todo\projects\1_ngb\1_firmware\ngb_low_power_consumption_v3\source\function.c"
 809  0000              _drawForPWOutputTimer .section 'code'
 809  0000              _drawForPWOutputTimer proc
 809  0000              public _drawForPWOutputTimer_2
 809  0000  0002[           local _drawForPWOutputTimer_2 db 2 dup(?)	; 2,0
            00
            ]
 809  0002              #pragma debug variable 12 5 _drawForPWOutputTimer_2+0 "pw"
 817  0002              #line 817 "c:\users\h469388\desktop\todo\projects\1_ngb\1_firmware\ngb_low_power_consumption_v3\source\function.c"
 817  0000  0700     R  	mov a,_drawForPWOutputTimer_2[0]
 817  0001  0080     E  	mov rb,a
 817  0002  0700     R  	mov a,_drawForPWOutputTimer_2[1]
 817  0003  0080     E  	mov rc,a
 817  0004  0F04        	mov a,4
 817  0005              _LI7:
 817  0005  340A        	clr c
 817  0006  1B80     E  	rrc rc
 817  0007  1B80     E  	rrc rb
 817  0008  1785        	sdz acc
 817  0009  2800     R  	jmp _LI7
 820  000A              #line 820 "c:\users\h469388\desktop\todo\projects\1_ngb\1_firmware\ngb_low_power_consumption_v3\source\function.c"
 820  000A  36CA        	clr [74].5
 821  000B              #line 821 "c:\users\h469388\desktop\todo\projects\1_ngb\1_firmware\ngb_low_power_consumption_v3\source\function.c"
"File: function.c    Assembler  Version HGASM0202      Page 28

 821  000B  0700     E  	mov a,rb
 821  000C  0BFE        	add a,254
 821  000D  00D7        	mov [87],a
 822  000E              #line 822 "c:\users\h469388\desktop\todo\projects\1_ngb\1_firmware\ngb_low_power_consumption_v3\source\function.c"
 822  000E  1F58        	clr [88]
 824  000F              #line 824 "c:\users\h469388\desktop\todo\projects\1_ngb\1_firmware\ngb_low_power_consumption_v3\source\function.c"
 824  000F  35D2        	clr [82].3
 826  0010              #line 826 "c:\users\h469388\desktop\todo\projects\1_ngb\1_firmware\ngb_low_power_consumption_v3\source\function.c"
 826  0010  31D2        	set [82].3
 827  0011              #line 827 "c:\users\h469388\desktop\todo\projects\1_ngb\1_firmware\ngb_low_power_consumption_v3\source\function.c"
 827  0011  30CA        	set [74].1
 827  0012  0003        	ret
 827  0013              _drawForPWOutputTimer endp
 827  0013              #line 827 "c:\users\h469388\desktop\todo\projects\1_ngb\1_firmware\ngb_low_power_consumption_v3\source\function.c"
 827  0013              #pragma debug scope 1 1
 827  0013              public _AvGroupConfig
 827  0000              @crom	.section 'crom'
  13  0000              #line 13 "c:\users\h469388\desktop\todo\projects\1_ngb\1_firmware\ngb_low_power_consumption_v3\source\function.c"
  13  0000              @crom	.section	'crom'
  13  0000              _AvGroupConfig:
  13  0000              #pragma debug array 42 8 4 1
  13  0000              #pragma debug array 42 8 4 1
  13  0000              #pragma debug variable 42 1 _AvGroupConfig "AvGroupConfig"
  13  0000              	db 11
  13  0001              	db 1
  13  0001              	db 26
  13  0002              	db 3
  13  0002              #pragma debug struct_end
  13  0002              #pragma debug struct_end
  13  0002              #pragma debug union_end
  13  0002              #pragma debug union_end
  13  0002              #pragma debug variable 44 1 ___pa "__pa" 1
  13  0002              #pragma debug struct_end
  13  0002              #pragma debug struct_end
  13  0002              #pragma debug union_end
  13  0002              #pragma debug union_end
  13  0002              #pragma debug variable 46 1 ___intc2 "__intc2" 1
  13  0002              #pragma debug struct_end
  13  0002              #pragma debug struct_end
  13  0002              #pragma debug union_end
  13  0002              #pragma debug union_end
  13  0002              #pragma debug variable 48 1 ___ptmc0 "__ptmc0" 1
  13  0002              #pragma debug variable 8 1 ___ptmal "__ptmal" 1
  13  0002              #pragma debug variable 8 1 ___ptmah "__ptmah" 1
  13  0002              #pragma debug struct_end
  13  0002              #pragma debug struct_end
  13  0002              #pragma debug union_end
  13  0002              #pragma debug union_end
  13  0002              #pragma debug variable 50 1 ___isgenc "__isgenc" 1
  13  0002              
  13  0002              ; output external variables
  13  0002              extern _SdkeePotData:byte
  13  0002              extern _MemData:byte
  13  0002              extern _CommData:byte
  13  0002              extern _SysData:byte
  13  0002              extern _FuncData:byte
  13  0002              extern _AfeInit_2:byte
  13  0002              extern _AfeInit:near
  13  0002              extern _SdOpaSwitch:near
  13  0002              extern _AdcSample:near
"File: function.c    Assembler  Version HGASM0202      Page 29

  13  0002              extern _builtin_holtek_mulsi3_2:byte
  13  0002              extern _builtin_holtek_mulsi3:near
  13  0002              extern _builtin_holtek_udivmodsi4_2:byte
  13  0002              extern _builtin_holtek_udivmodsi4:near
  13  0002              extern _SmokeBuzzlePwm:near
  13  0002              
  13  0002              ; 
  13  0002              ; Generated by holtek-gcc v3.19, Mon Oct 10 15:45:31 2022
  13  0002              ; Rebuild 718
  13  0002              ; end of file


        0 Errors, 0