文件：int.c        编译器版本 HGASM 0202 页次1


   1  0000              ; Generated by holtek-gcc v3.19, Fri Jun 24 13:37:44 2022
   2  0000              ; 
   3  0000              ; Configuration:
   4  0000              ;       with long instruction
   5  0000              ;       Single ROM, Multi-RAM
   6  0000              ;       bits_per_rom_unit:16
   7  0000              ;       with mp1
   8  0000              ;       with tbhp, address(0x9)
   9  0000              ;          Use tabrd-const
  10  0000              ;       
  11  0000              ; SFR address of long-instruction arch:
  12  0000              ;    mp0 = -1,1,0
  13  0000              ;    mp1 = 4,3,2
  14  0000              ;    mp2 = 14,13,12
  15  0000              ;    tbp = 9,7,8
  16  0000              ;    acc = 5
  17  0000              ;    pcl = 6
  18  0000              ;    status = 10
  19  0000              ;    bp = 11
  20  0000              ;    intc = 72
  21  0000              ;       
  22  0000              ;       
  23  0000              ; use 'tabrdc' instead of 'tabrd'
  24  0000              ;       
  25  0000              
  26  0000              #pragma translator "holtek-gcc 4.6.4" "3.19" "build 20130711"
  27  0000              ; Rebuild 718
  28  0000              
  29  0000              ir equ [2]
  30  0000              mp equ [3]
  31  0000              sbp equ [4]
  32  0000              acc equ [5]
  33  0000              bp equ [11]
  34  0000              tblp equ [7]
  35  0000              tbhp equ [9]
  36  0000              status equ [10]
  37  0000              c equ [10].0
  38  0000              ac equ [10].1
  39  0000              z equ [10].2
  40  0000              ov equ [10].3
  41  0000              cz equ [10].6
  42  0000              sc equ [10].7
  43  0000              intc equ [72]
  44  0000              
  45  0000              extern ra:byte
  46  0000              extern rb:byte
  47  0000              extern rc:byte
  48  0000              extern rd:byte
  49  0000              extern re:byte
  50  0000              extern rf:byte
  51  0000              extern rg:byte
  52  0000              extern rh:byte
  53  0000              extern _Crom2Prom:near
  54  0000              extern _Crom2PromNext:near
  55  0000              
  56  0000              RAMBANK 0 @BITDATASEC, @BITDATASEC1
  57  0000              @HCCINIT	.section 'data'
  58  0000              @HCCINIT0	.section 'data'
  59  0000              @BITDATASEC	 .section 'data'
文件：int.ASM      编译器版本 HGASM 0202 页次2

  60  0000              @BITDATASEC1	 .section 'data'
  61  0000              
  62  0000              #pragma debug scope 1 1
  63  0000              	extern __DELAY3:near
  64  0000              	extern __DELAYX3:near
  65  0000              	extern __DELAYX6:near
  66  0000              	extern __DELAYY5:near
  67  0000              	extern __DELAYY3:near
  68  0000              	extern _builtin_holtek_delay_2:byte
  69  0000              ___intc2 equ [74]
  70  0000              ___ptmc0 equ [82]
  71  0000              ___scc equ [18]
  72  0000              ___pltchyc equ [58]
  73  0000              public _PLTCMP0
  74  0000              #pragma debug scope 2 1

  27  0000              #line 27 "G:\西安盛赛尔\项目\PRJ_NGB\参考代码\D20\侯林峰版本\S02-112447-000C\D20SeriesDevice\source\int.c"
  27  0000              @PLTCMP0_code .section at 4 'code'
  27  0000              ifdef INTERRUPT_DELAY
  27  0000              	nop
  27  0000              endif
  27  0000  0080     E  	mov r1,a
  27  0001  070A        	mov a,status
  27  0002              ifndef INTERRUPT_DELAY
  27  0002  0080     E  	mov r2,a
  27  0003              endif
  27  0003  2800     R  	jmp _PLTCMP0
  27  0004              #pragma debug scope 1 1
  27  0004              @dummy4 endp
  27  0004              #pragma debug scope 3 1
  27  0000              _PLTCMP0 .section 'code'
  27  0000              _PLTCMP0 proc
  27  0000              ifdef INTERRUPT_DELAY
  27  0000              	mov r2,a
  27  0000              endif
  27  0000  0703        	mov a,mp
  27  0001  0080     E  	mov r3,a
  27  0002  0704        	mov a,sbp
  27  0003  0080     E  	mov r4,a
  27  0004  0707        	mov a,tblp
  27  0005  0080     E  	mov r5,a
  27  0006  0709        	mov a,tbhp
  27  0007  0080     E  	mov r6,a
  28  0008              #line 28 "G:\西安盛赛尔\项目\PRJ_NGB\参考代码\D20\侯林峰版本\S02-112447-000C\D20SeriesDevice\source\int.c"
  28  0008  34CA        	clr [74].1
  30  0009              #line 30 "G:\西安盛赛尔\项目\PRJ_NGB\参考代码\D20\侯林峰版本\S02-112447-000C\D20SeriesDevice\source\int.c"
  30  0009  35D2        	clr [82].3
  31  000A              #line 31 "G:\西安盛赛尔\项目\PRJ_NGB\参考代码\D20\侯林峰版本\S02-112447-000C\D20SeriesDevice\source\int.c"
  31  000A  31D2        	set [82].3
  33  000B              #line 33 "G:\西安盛赛尔\项目\PRJ_NGB\参考代码\D20\侯林峰版本\S02-112447-000C\D20SeriesDevice\source\int.c"
  33  000B  3000     E  	set _SysData[0].0
  34  000C              #line 34 "G:\西安盛赛尔\项目\PRJ_NGB\参考代码\D20\侯林峰版本\S02-112447-000C\D20SeriesDevice\source\int.c"
  34  000C  0F01        	mov a,1
  34  000D  0080     E  	mov _FuncData[6],a
  35  000E              #line 35 "G:\西安盛赛尔\项目\PRJ_NGB\参考代码\D20\侯林峰版本\S02-112447-000C\D20SeriesDevice\source\int.c"
  35  000E  0F03        	mov a,3
  35  000F  0092        	mov [18],a
  40  0010              #line 40 "G:\西安盛赛尔\项目\PRJ_NGB\参考代码\D20\侯林峰版本\S02-112447-000C\D20SeriesDevice\source\int.c"
  40  0010  3800     E  	snz _CommData[9].7
  40  0011  2800     R  	jmp _L2
文件：int.c        编译器版本 HGASM 0202 页次3

  40  0012              #line 40 "G:\西安盛赛尔\项目\PRJ_NGB\参考代码\D20\侯林峰版本\S02-112447-000C\D20SeriesDevice\source\int.c"
  40  0012  1080     E  	sz _CommData[35]
  40  0013  2800     R  	jmp _L2
  43  0014              #line 43 "G:\西安盛赛尔\项目\PRJ_NGB\参考代码\D20\侯林峰版本\S02-112447-000C\D20SeriesDevice\source\int.c"
  43  0014  2000     E  	call _PltOpaSwitchOn
  44  0015              #line 44 "G:\西安盛赛尔\项目\PRJ_NGB\参考代码\D20\侯林峰版本\S02-112447-000C\D20SeriesDevice\source\int.c"
  44  0015  0700     E  	mov a,_CommData[0]
  44  0016  0A02        	sub a,2
  44  0017  390A        	snz z
  44  0018  2800     R  	jmp _L3
  47  0019              #line 47 "G:\西安盛赛尔\项目\PRJ_NGB\参考代码\D20\侯林峰版本\S02-112447-000C\D20SeriesDevice\source\int.c"
  47  0019  0700     E  	mov a,_CommData[20]
  47  001A  0080     E  	mov _drawForPWOutputTimer_2[0],a
  47  001B  0700     E  	mov a,_CommData[21]
  47  001C  0080     E  	mov _drawForPWOutputTimer_2[1],a
  47  001D  2800     R  	jmp _L6
  47  001E              _L3:
  52  001E              #line 52 "G:\西安盛赛尔\项目\PRJ_NGB\参考代码\D20\侯林峰版本\S02-112447-000C\D20SeriesDevice\source\int.c"
  52  001E  0F80        	mov a,-128
  52  001F  0080     E  	mov _drawForPWOutputTimer_2[0],a
  52  0020  1F00     E  	clr _drawForPWOutputTimer_2[1]
  52  0021              _L6:
  52  0021  2000     E  	call _drawForPWOutputTimer
  52  0022              _L2:
  57  0022              #line 57 "G:\西安盛赛尔\项目\PRJ_NGB\参考代码\D20\侯林峰版本\S02-112447-000C\D20SeriesDevice\source\int.c"
  57  0022  2000     E  	call _CommRxTx
  59  0023              #line 59 "G:\西安盛赛尔\项目\PRJ_NGB\参考代码\D20\侯林峰版本\S02-112447-000C\D20SeriesDevice\source\int.c"
  59  0023  3A3A        	snz [58].4
  59  0024  2800     R  	jmp _L4
  61  0025              #line 61 "G:\西安盛赛尔\项目\PRJ_NGB\参考代码\D20\侯林峰版本\S02-112447-000C\D20SeriesDevice\source\int.c"
  61  0025  363A        	clr [58].4
  61  0026  2800     R  	jmp _L1
  61  0027              _L4:
  65  0027              #line 65 "G:\西安盛赛尔\项目\PRJ_NGB\参考代码\D20\侯林峰版本\S02-112447-000C\D20SeriesDevice\source\int.c"
  65  0027  323A        	set [58].4
  65  0028              _L1:
  65  0028  0700     E  	mov a,r2
  65  0029  008A        	mov status,a
  65  002A  0700     E  	mov a,r3
  65  002B  0083        	mov mp,a
  65  002C  0700     E  	mov a,r4
  65  002D  0084        	mov sbp,a
  65  002E  0700     E  	mov a,r5
  65  002F  0087        	mov tblp,a
  65  0030  0700     E  	mov a,r6
  65  0031  0089        	mov tbhp,a
  65  0032  1D05        	tabrdc acc
  65  0033  0700     E  	mov a,r1
  65  0034  0004        	reti
  65  0035              _PLTCMP0 endp
  65  0035              
  65  0035              #line 65 "G:\西安盛赛尔\项目\PRJ_NGB\参考代码\D20\侯林峰版本\S02-112447-000C\D20SeriesDevice\source\int.c"
  65  0035              #pragma debug scope 1 1
  65  0035              public _INT0
  65  0035              #pragma debug scope 4 1
  73  0035              #line 73 "G:\西安盛赛尔\项目\PRJ_NGB\参考代码\D20\侯林峰版本\S02-112447-000C\D20SeriesDevice\source\int.c"
  73  0000              @INT0_code .section at 8 'code'
  73  0000              _INT0:
  73  0000              ifdef INTERRUPT_DELAY
  73  0000              	nop
文件：int.c        编译器版本 HGASM 0202 页次4

  73  0000              endif
  73  0000  0004        	reti
  73  0001              #line 73 "G:\西安盛赛尔\项目\PRJ_NGB\参考代码\D20\侯林峰版本\S02-112447-000C\D20SeriesDevice\source\int.c"
  73  0001              #pragma debug scope 1 1
  73  0001              public _INT1
  73  0001              #pragma debug scope 5 1
  78  0001              #line 78 "G:\西安盛赛尔\项目\PRJ_NGB\参考代码\D20\侯林峰版本\S02-112447-000C\D20SeriesDevice\source\int.c"
  78  0000              @INT1_code .section at 12 'code'
  78  0000              _INT1:
  78  0000              ifdef INTERRUPT_DELAY
  78  0000              	nop
  78  0000              endif
  78  0000  0004        	reti
  78  0001              #line 78 "G:\西安盛赛尔\项目\PRJ_NGB\参考代码\D20\侯林峰版本\S02-112447-000C\D20SeriesDevice\source\int.c"
  78  0001              #pragma debug scope 1 1
  78  0001              public _USIM
  78  0001              #pragma debug scope 6 1
  83  0001              #line 83 "G:\西安盛赛尔\项目\PRJ_NGB\参考代码\D20\侯林峰版本\S02-112447-000C\D20SeriesDevice\source\int.c"
  83  0000              @USIM_code .section at 16 'code'
  83  0000              _USIM:
  83  0000              ifdef INTERRUPT_DELAY
  83  0000              	nop
  83  0000              endif
  83  0000  0004        	reti
  83  0001              #line 83 "G:\西安盛赛尔\项目\PRJ_NGB\参考代码\D20\侯林峰版本\S02-112447-000C\D20SeriesDevice\source\int.c"
  83  0001              #pragma debug scope 1 1
  83  0001              public _LVD
  83  0001              #pragma debug scope 7 1
  89  0001              #line 89 "G:\西安盛赛尔\项目\PRJ_NGB\参考代码\D20\侯林峰版本\S02-112447-000C\D20SeriesDevice\source\int.c"
  89  0000              @LVD_code .section at 20 'code'
  89  0000              _LVD:
  89  0000              ifdef INTERRUPT_DELAY
  89  0000              	nop
  89  0000              endif
  89  0000  0004        	reti
  89  0001              #line 89 "G:\西安盛赛尔\项目\PRJ_NGB\参考代码\D20\侯林峰版本\S02-112447-000C\D20SeriesDevice\source\int.c"
  89  0001              #pragma debug scope 1 1
  89  0001              public _ADCONVERTER
  89  0001              #pragma debug scope 8 1
  95  0001              #line 95 "G:\西安盛赛尔\项目\PRJ_NGB\参考代码\D20\侯林峰版本\S02-112447-000C\D20SeriesDevice\source\int.c"
  95  0000              @ADCONVERTER_code .section at 24 'code'
  95  0000              _ADCONVERTER:
  95  0000              ifdef INTERRUPT_DELAY
  95  0000              	nop
  95  0000              endif
  95  0000  0004        	reti
  95  0001              #line 95 "G:\西安盛赛尔\项目\PRJ_NGB\参考代码\D20\侯林峰版本\S02-112447-000C\D20SeriesDevice\source\int.c"
  95  0001              #pragma debug scope 1 1
  95  0001              public _EEPROM
  95  0001              #pragma debug scope 9 1
 100  0001              #line 100 "G:\西安盛赛尔\项目\PRJ_NGB\参考代码\D20\侯林峰版本\S02-112447-000C\D20SeriesDevice\source\int.c"
 100  0000              @EEPROM_code .section at 28 'code'
 100  0000              _EEPROM:
 100  0000              ifdef INTERRUPT_DELAY
 100  0000              	nop
 100  0000              endif
 100  0000  0004        	reti
 100  0001              #line 100 "G:\西安盛赛尔\项目\PRJ_NGB\参考代码\D20\侯林峰版本\S02-112447-000C\D20SeriesDevice\source\int.c"
 100  0001              #pragma debug scope 1 1
 100  0001              ___intc0 equ [72]
文件：int.c        编译器版本 HGASM 0202 页次5

 100  0001              ___pa equ [20]
 100  0001              public _PTMCOMP_P
 100  0001              #pragma debug scope 10 1
 107  0001              #line 107 "G:\西安盛赛尔\项目\PRJ_NGB\参考代码\D20\侯林峰版本\S02-112447-000C\D20SeriesDevice\source\int.c"
 107  0000              @PTMCOMP_P_code .section at 32 'code'
 107  0000              ifdef INTERRUPT_DELAY
 107  0000              	nop
 107  0000              endif
 107  0000  0080     E  	mov r1,a
 107  0001  070A        	mov a,status
 107  0002              ifndef INTERRUPT_DELAY
 107  0002  0080     E  	mov r2,a
 107  0003              endif
 107  0003  2800     R  	jmp _PTMCOMP_P
 107  0004              #pragma debug scope 1 1
 107  0004              @dummy32 endp
 107  0004              #pragma debug scope 11 1
 107  0000              _PTMCOMP_P .section 'code'
 107  0000              _PTMCOMP_P proc
 107  0000              ifdef INTERRUPT_DELAY
 107  0000              	mov r2,a
 107  0000              endif
 111  0000              #line 111 "G:\西安盛赛尔\项目\PRJ_NGB\参考代码\D20\侯林峰版本\S02-112447-000C\D20SeriesDevice\source\int.c"
 111  0000  3048        	set [72].0
 112  0001              #line 112 "G:\西安盛赛尔\项目\PRJ_NGB\参考代码\D20\侯林峰版本\S02-112447-000C\D20SeriesDevice\source\int.c"
 112  0001  0F01        	mov a,1
 112  0002  0080     E  	mov _FuncData[6],a
 115  0003              #line 115 "G:\西安盛赛尔\项目\PRJ_NGB\参考代码\D20\侯林峰版本\S02-112447-000C\D20SeriesDevice\source\int.c"
 115  0003  1F00     E  	clr _CommData[0]
 116  0004              #line 116 "G:\西安盛赛尔\项目\PRJ_NGB\参考代码\D20\侯林峰版本\S02-112447-000C\D20SeriesDevice\source\int.c"
 116  0004  1F00     E  	clr _CommData[8]
 116  0005  1F00     E  	clr _CommData[9]
 117  0006              #line 117 "G:\西安盛赛尔\项目\PRJ_NGB\参考代码\D20\侯林峰版本\S02-112447-000C\D20SeriesDevice\source\int.c"
 117  0006  1F00     E  	clr _CommData[10]
 117  0007  1F00     E  	clr _CommData[11]
 118  0008              #line 118 "G:\西安盛赛尔\项目\PRJ_NGB\参考代码\D20\侯林峰版本\S02-112447-000C\D20SeriesDevice\source\int.c"
 118  0008  1F00     E  	clr _CommData[7]
 120  0009              #line 120 "G:\西安盛赛尔\项目\PRJ_NGB\参考代码\D20\侯林峰版本\S02-112447-000C\D20SeriesDevice\source\int.c"
 120  0009  1F00     E  	clr _CommData[35]
 124  000A              #line 124 "G:\西安盛赛尔\项目\PRJ_NGB\参考代码\D20\侯林峰版本\S02-112447-000C\D20SeriesDevice\source\int.c"
 124  000A  0F01        	mov a,1
 124  000B  0092        	mov [18],a
 125  000C              #line 125 "G:\西安盛赛尔\项目\PRJ_NGB\参考代码\D20\侯林峰版本\S02-112447-000C\D20SeriesDevice\source\int.c"
 125  000C  3E3A        	sz [58].4
 125  000D  2800     R  	jmp _L15
 126  000E              #line 126 "G:\西安盛赛尔\项目\PRJ_NGB\参考代码\D20\侯林峰版本\S02-112447-000C\D20SeriesDevice\source\int.c"
 126  000E  323A        	set [58].4
 126  000F              _L15:
 132  000F              #line 132 "G:\西安盛赛尔\项目\PRJ_NGB\参考代码\D20\侯林峰版本\S02-112447-000C\D20SeriesDevice\source\int.c"
 132  000F  364A        	clr [74].4
 134  0010              #line 134 "G:\西安盛赛尔\项目\PRJ_NGB\参考代码\D20\侯林峰版本\S02-112447-000C\D20SeriesDevice\source\int.c"
 134  0010  1F00     E  	clr _FuncData[6]
 137  0011              #line 137 "G:\西安盛赛尔\项目\PRJ_NGB\参考代码\D20\侯林峰版本\S02-112447-000C\D20SeriesDevice\source\int.c"
 137  0011  0700     E  	mov a,_CommData[14]
 137  0012  0E05        	and a,5
 137  0013  0080     E  	mov ra,a
 137  0014  0700     E  	mov a,ra
 137  0015  0A05        	sub a,5
 137  0016  3D0A        	sz z
 137  0017  2800     R  	jmp _L16
文件：int.c        编译器版本 HGASM 0202 页次6

 137  0018  3800     E  	snz _FuncData[10].3
 137  0019  2800     R  	jmp _L14
 137  001A              _L16:
 139  001A              #line 139 "G:\西安盛赛尔\项目\PRJ_NGB\参考代码\D20\侯林峰版本\S02-112447-000C\D20SeriesDevice\source\int.c"
 139  001A  3514        	clr [20].2
 140  001B              #line 140 "G:\西安盛赛尔\项目\PRJ_NGB\参考代码\D20\侯林峰版本\S02-112447-000C\D20SeriesDevice\source\int.c"
 140  001B  0FFF        	mov a,255  
 140  001C  0680     E  	andm a,_FuncData[9]  
 140  001D  0FF7        	mov a,247  
 140  001E  0680     E  	andm a,_FuncData[10]
 140  001F              _L14:
 140  001F  0700     E  	mov a,r2
 140  0020  008A        	mov status,a
 140  0021  0700     E  	mov a,r1
 140  0022  0004        	reti
 140  0023              _PTMCOMP_P endp
 140  0023              
 140  0023              #line 140 "G:\西安盛赛尔\项目\PRJ_NGB\参考代码\D20\侯林峰版本\S02-112447-000C\D20SeriesDevice\source\int.c"
 140  0023              #pragma debug scope 1 1
 140  0023              public _PTMCOMP_A
 140  0023              #pragma debug scope 12 1
 152  0023              #line 152 "G:\西安盛赛尔\项目\PRJ_NGB\参考代码\D20\侯林峰版本\S02-112447-000C\D20SeriesDevice\source\int.c"
 152  0000              @PTMCOMP_A_code .section at 36 'code'
 152  0000              ifdef INTERRUPT_DELAY
 152  0000              	nop
 152  0000              endif
 152  0000  0080     E  	mov r1,a
 152  0001  070A        	mov a,status
 152  0002              ifndef INTERRUPT_DELAY
 152  0002  0080     E  	mov r2,a
 152  0003              endif
 152  0003  2800     R  	jmp _PTMCOMP_A
 152  0004              #pragma debug scope 1 1
 152  0004              @dummy36 endp
 152  0004              #pragma debug scope 13 1
 152  0000              _PTMCOMP_A .section 'code'
 152  0000              _PTMCOMP_A proc
 152  0000              ifdef INTERRUPT_DELAY
 152  0000              	mov r2,a
 152  0000              endif
 152  0000  0703        	mov a,mp
 152  0001  0080     E  	mov r3,a
 152  0002  0704        	mov a,sbp
 152  0003  0080     E  	mov r4,a
 152  0004  0707        	mov a,tblp
 152  0005  0080     E  	mov r5,a
 152  0006  0709        	mov a,tbhp
 152  0007  0080     E  	mov r6,a
 155  0008              #line 155 "G:\西安盛赛尔\项目\PRJ_NGB\参考代码\D20\侯林峰版本\S02-112447-000C\D20SeriesDevice\source\int.c"
 155  0008  2000     E  	call _PltOpaSwitchOff
 163  0009              #line 163 "G:\西安盛赛尔\项目\PRJ_NGB\参考代码\D20\侯林峰版本\S02-112447-000C\D20SeriesDevice\source\int.c"
 163  0009  36CA        	clr [74].5
 164  000A              #line 164 "G:\西安盛赛尔\项目\PRJ_NGB\参考代码\D20\侯林峰版本\S02-112447-000C\D20SeriesDevice\source\int.c"
 164  000A  3048        	set [72].0
 164  000B  0700     E  	mov a,r2
 164  000C  008A        	mov status,a
 164  000D  0700     E  	mov a,r3
 164  000E  0083        	mov mp,a
 164  000F  0700     E  	mov a,r4
 164  0010  0084        	mov sbp,a
文件：int.c        编译器版本 HGASM 0202 页次7

 164  0011  0700     E  	mov a,r5
 164  0012  0087        	mov tblp,a
 164  0013  0700     E  	mov a,r6
 164  0014  0089        	mov tbhp,a
 164  0015  1D05        	tabrdc acc
 164  0016  0700     E  	mov a,r1
 164  0017  0004        	reti
 164  0018              _PTMCOMP_A endp
 164  0018              
 164  0018              #line 164 "G:\西安盛赛尔\项目\PRJ_NGB\参考代码\D20\侯林峰版本\S02-112447-000C\D20SeriesDevice\source\int.c"
 164  0018              #pragma debug scope 1 1
 164  0018              public _STMCOMP_P
 164  0018              #pragma debug scope 14 1
 175  0018              #line 175 "G:\西安盛赛尔\项目\PRJ_NGB\参考代码\D20\侯林峰版本\S02-112447-000C\D20SeriesDevice\source\int.c"
 175  0000              @STMCOMP_P_code .section at 40 'code'
 175  0000              _STMCOMP_P:
 175  0000              ifdef INTERRUPT_DELAY
 175  0000              	nop
 175  0000              endif
 175  0000  0004        	reti
 175  0001              #line 175 "G:\西安盛赛尔\项目\PRJ_NGB\参考代码\D20\侯林峰版本\S02-112447-000C\D20SeriesDevice\source\int.c"
 175  0001              #pragma debug scope 1 1
 175  0001              public _STMCOMP_A
 175  0001              #pragma debug scope 15 1
 181  0001              #line 181 "G:\西安盛赛尔\项目\PRJ_NGB\参考代码\D20\侯林峰版本\S02-112447-000C\D20SeriesDevice\source\int.c"
 181  0000              @STMCOMP_A_code .section at 44 'code'
 181  0000              _STMCOMP_A:
 181  0000              ifdef INTERRUPT_DELAY
 181  0000              	nop
 181  0000              endif
 181  0000  0004        	reti
 181  0001              #line 181 "G:\西安盛赛尔\项目\PRJ_NGB\参考代码\D20\侯林峰版本\S02-112447-000C\D20SeriesDevice\source\int.c"
 181  0001              #pragma debug scope 1 1
 181  0001              ___intc3 equ [75]
 181  0001              public _TIMEBASE0
 181  0001              #pragma debug scope 16 1
 186  0001              #line 186 "G:\西安盛赛尔\项目\PRJ_NGB\参考代码\D20\侯林峰版本\S02-112447-000C\D20SeriesDevice\source\int.c"
 186  0000              @TIMEBASE0_code .section at 48 'code'
 186  0000              ifdef INTERRUPT_DELAY
 186  0000              	nop
 186  0000              endif
 186  0000  0080     E  	mov r1,a
 186  0001  070A        	mov a,status
 186  0002              ifndef INTERRUPT_DELAY
 186  0002  0080     E  	mov r2,a
 186  0003              endif
 186  0003  2800     R  	jmp _TIMEBASE0
 186  0004              #pragma debug scope 1 1
 186  0004              @dummy48 endp
 186  0004              #pragma debug scope 17 1
 186  0000              _TIMEBASE0 .section 'code'
 186  0000              _TIMEBASE0 proc
 186  0000              ifdef INTERRUPT_DELAY
 186  0000              	mov r2,a
 186  0000              endif
 191  0000              #line 191 "G:\西安盛赛尔\项目\PRJ_NGB\参考代码\D20\侯林峰版本\S02-112447-000C\D20SeriesDevice\source\int.c"
 191  0000  3048        	set [72].0
 195  0001              #line 195 "G:\西安盛赛尔\项目\PRJ_NGB\参考代码\D20\侯林峰版本\S02-112447-000C\D20SeriesDevice\source\int.c"
 195  0001  0700     E  	mov a,_FuncData[1]
 195  0002  0080     E  	mov ra,a
文件：int.c        编译器版本 HGASM 0202 页次8

 195  0003  1E00     E  	snz ra
 195  0004  2800     R  	jmp _L28
 197  0005              #line 197 "G:\西安盛赛尔\项目\PRJ_NGB\参考代码\D20\侯林峰版本\S02-112447-000C\D20SeriesDevice\source\int.c"
 197  0005  1500     E  	deca ra
 197  0006  0080     E  	mov _FuncData[1],a
 197  0007              _L28:
 199  0007              #line 199 "G:\西安盛赛尔\项目\PRJ_NGB\参考代码\D20\侯林峰版本\S02-112447-000C\D20SeriesDevice\source\int.c"
 199  0007  0700     E  	mov a,_FuncData[3]
 199  0008  0080     E  	mov ra,a
 199  0009  1E00     E  	snz ra
 199  000A  2800     R  	jmp _L29
 201  000B              #line 201 "G:\西安盛赛尔\项目\PRJ_NGB\参考代码\D20\侯林峰版本\S02-112447-000C\D20SeriesDevice\source\int.c"
 201  000B  1500     E  	deca ra
 201  000C  0080     E  	mov _FuncData[3],a
 201  000D              _L29:
 207  000D              #line 207 "G:\西安盛赛尔\项目\PRJ_NGB\参考代码\D20\侯林峰版本\S02-112447-000C\D20SeriesDevice\source\int.c"
 207  000D  0700     E  	mov a,_SdkeePotData[7]
 207  000E  0080     E  	mov ra,a
 207  000F  1E00     E  	snz ra
 207  0010  2800     R  	jmp _L30
 209  0011              #line 209 "G:\西安盛赛尔\项目\PRJ_NGB\参考代码\D20\侯林峰版本\S02-112447-000C\D20SeriesDevice\source\int.c"
 209  0011  1500     E  	deca ra
 209  0012  0080     E  	mov _SdkeePotData[7],a
 209  0013              _L30:
 216  0013              #line 216 "G:\西安盛赛尔\项目\PRJ_NGB\参考代码\D20\侯林峰版本\S02-112447-000C\D20SeriesDevice\source\int.c"
 216  0013  0700     E  	mov a,_FuncData[63]
 216  0014  0080     E  	mov ra,a
 216  0015  1E00     E  	snz ra
 216  0016  2800     R  	jmp _L31
 218  0017              #line 218 "G:\西安盛赛尔\项目\PRJ_NGB\参考代码\D20\侯林峰版本\S02-112447-000C\D20SeriesDevice\source\int.c"
 218  0017  1500     E  	deca ra
 218  0018  0080     E  	mov _FuncData[63],a
 218  0019              _L31:
 224  0019              #line 224 "G:\西安盛赛尔\项目\PRJ_NGB\参考代码\D20\侯林峰版本\S02-112447-000C\D20SeriesDevice\source\int.c"
 224  0019  0700     E  	mov a,_FuncData[2]
 224  001A  0080     E  	mov ra,a
 224  001B  1E00     E  	snz ra
 224  001C  2800     R  	jmp _L32
 226  001D              #line 226 "G:\西安盛赛尔\项目\PRJ_NGB\参考代码\D20\侯林峰版本\S02-112447-000C\D20SeriesDevice\source\int.c"
 226  001D  1500     E  	deca ra
 226  001E  0080     E  	mov _FuncData[2],a
 226  001F              _L32:
 231  001F              #line 231 "G:\西安盛赛尔\项目\PRJ_NGB\参考代码\D20\侯林峰版本\S02-112447-000C\D20SeriesDevice\source\int.c"
 231  001F  3000     E  	set _SysData[0].7
 233  0020              #line 233 "G:\西安盛赛尔\项目\PRJ_NGB\参考代码\D20\侯林峰版本\S02-112447-000C\D20SeriesDevice\source\int.c"
 233  0020  364B        	clr [75].4
 233  0021  0700     E  	mov a,r2
 233  0022  008A        	mov status,a
 233  0023  0700     E  	mov a,r1
 233  0024  0004        	reti
 233  0025              _TIMEBASE0 endp
 233  0025              
 233  0025              #line 233 "G:\西安盛赛尔\项目\PRJ_NGB\参考代码\D20\侯林峰版本\S02-112447-000C\D20SeriesDevice\source\int.c"
 233  0025              #pragma debug scope 1 1
 233  0025              public _TIMEBASE1
 233  0025              #pragma debug scope 18 1
 240  0025              #line 240 "G:\西安盛赛尔\项目\PRJ_NGB\参考代码\D20\侯林峰版本\S02-112447-000C\D20SeriesDevice\source\int.c"
 240  0000              @TIMEBASE1_code .section at 52 'code'
 240  0000              _TIMEBASE1:
 240  0000              ifdef INTERRUPT_DELAY
文件：int.c        编译器版本 HGASM 0202 页次9

 240  0000              	nop
 240  0000              endif
 240  0000  0004        	reti
 240  0001              #line 240 "G:\西安盛赛尔\项目\PRJ_NGB\参考代码\D20\侯林峰版本\S02-112447-000C\D20SeriesDevice\source\int.c"
 240  0001              #pragma debug scope 1 1
 240  0001              public _PLTCMP1
 240  0001              #pragma debug scope 19 1
 246  0001              #line 246 "G:\西安盛赛尔\项目\PRJ_NGB\参考代码\D20\侯林峰版本\S02-112447-000C\D20SeriesDevice\source\int.c"
 246  0000              @PLTCMP1_code .section at 56 'code'
 246  0000              _PLTCMP1:
 246  0000              ifdef INTERRUPT_DELAY
 246  0000              	nop
 246  0000              endif
 246  0000  0004        	reti
 246  0001              #line 246 "G:\西安盛赛尔\项目\PRJ_NGB\参考代码\D20\侯林峰版本\S02-112447-000C\D20SeriesDevice\source\int.c"
 246  0001              #pragma debug scope 1 1
 246  0001              #pragma debug struct_end
 246  0001              #pragma debug struct_end
 246  0001              #pragma debug union_end
 246  0001              #pragma debug union_end
 246  0001              #pragma debug variable 43 1 ___scc "__scc" 1
 246  0001              #pragma debug struct_end
 246  0001              #pragma debug struct_end
 246  0001              #pragma debug union_end
 246  0001              #pragma debug union_end
 246  0001              #pragma debug variable 45 1 ___pa "__pa" 1
 246  0001              #pragma debug struct_end
 246  0001              #pragma debug struct_end
 246  0001              #pragma debug union_end
 246  0001              #pragma debug union_end
 246  0001              #pragma debug variable 47 1 ___pltchyc "__pltchyc" 1
 246  0001              #pragma debug struct_end
 246  0001              #pragma debug struct_end
 246  0001              #pragma debug union_end
 246  0001              #pragma debug union_end
 246  0001              #pragma debug variable 49 1 ___intc0 "__intc0" 1
 246  0001              #pragma debug struct_end
 246  0001              #pragma debug struct_end
 246  0001              #pragma debug union_end
 246  0001              #pragma debug union_end
 246  0001              #pragma debug variable 51 1 ___intc2 "__intc2" 1
 246  0001              #pragma debug struct_end
 246  0001              #pragma debug struct_end
 246  0001              #pragma debug union_end
 246  0001              #pragma debug union_end
 246  0001              #pragma debug variable 53 1 ___intc3 "__intc3" 1
 246  0001              #pragma debug struct_end
 246  0001              #pragma debug struct_end
 246  0001              #pragma debug union_end
 246  0001              #pragma debug union_end
 246  0001              #pragma debug variable 55 1 ___ptmc0 "__ptmc0" 1
 246  0001              
 246  0001              ; output external variables
 246  0001              extern _SdkeePotData:byte
 246  0001              extern _CommData:byte
 246  0001              extern _FuncData:byte
 246  0001              extern _SysData:byte
 246  0001              extern r1:byte
 246  0001              extern r2:byte
 246  0001              extern r3:byte
文件：int.c        编译器版本 HGASM 0202 页次10

 246  0001              extern r4:byte
 246  0001              extern r5:byte
 246  0001              extern r6:byte
 246  0001              extern _PltOpaSwitchOn:near
 246  0001              extern _drawForPWOutputTimer_2:byte
 246  0001              extern _drawForPWOutputTimer:near
 246  0001              extern _CommRxTx:near
 246  0001              extern _PltOpaSwitchOff:near
 246  0001              
 246  0001              ; 
 246  0001              ; Generated by holtek-gcc v3.19, Fri Jun 24 13:37:44 2022
 246  0001              ; Rebuild 718
 246  0001              ; end of file


        0 Errors, 0