"File: interrupt_5542.c  Assembler  Version HGASM0202      Page 1


   1  0000              ; Generated by holtek-gcc v3.19, Mon Oct 10 15:45:34 2022
   2  0000              ; 
   3  0000              ; Configuration:
   4  0000              ;       with long instruction
   5  0000              ;       Single ROM, Multi-RAM
   6  0000              ;       bits_per_rom_unit:16
   7  0000              ;       with mp1
   8  0000              ;       with tbhp, address(0x9)
   9  0000              ;          Use tabrd-const
  10  0000              ;       
  11  0000              ; SFR address of long-instruction arch:
  12  0000              ;    mp0 = -1,1,0
  13  0000              ;    mp1 = 4,3,2
  14  0000              ;    mp2 = 14,13,12
  15  0000              ;    tbp = 9,7,8
  16  0000              ;    acc = 5
  17  0000              ;    pcl = 6
  18  0000              ;    status = 10
  19  0000              ;    bp = 11
  20  0000              ;    intc = 72
  21  0000              ;       
  22  0000              ;       
  23  0000              ; use 'tabrdc' instead of 'tabrd'
  24  0000              ;       
  25  0000              
  26  0000              #pragma translator "holtek-gcc 4.6.4" "3.19" "build 20130711"
  27  0000              ; Rebuild 718
  28  0000              
  29  0000              ir equ [2]
  30  0000              mp equ [3]
  31  0000              sbp equ [4]
  32  0000              acc equ [5]
  33  0000              bp equ [11]
  34  0000              tblp equ [7]
  35  0000              tbhp equ [9]
  36  0000              status equ [10]
  37  0000              c equ [10].0
  38  0000              ac equ [10].1
  39  0000              z equ [10].2
  40  0000              ov equ [10].3
  41  0000              cz equ [10].6
  42  0000              sc equ [10].7
  43  0000              intc equ [72]
  44  0000              
  45  0000              extern ra:byte
  46  0000              extern rb:byte
  47  0000              extern rc:byte
  48  0000              extern rd:byte
  49  0000              extern re:byte
  50  0000              extern rf:byte
  51  0000              extern rg:byte
  52  0000              extern rh:byte
  53  0000              extern _Crom2Prom:near
  54  0000              extern _Crom2PromNext:near
  55  0000              
  56  0000              RAMBANK 0 @BITDATASEC, @BITDATASEC1
  57  0000              @HCCINIT	.section 'data'
  58  0000              @HCCINIT0	.section 'data'
  59  0000              @BITDATASEC	 .section 'data'
"File: interrupt_5542.ASM  Assembler  Version HGASM0202      Page 2

  60  0000              @BITDATASEC1	 .section 'data'
  61  0000              
  62  0000              #pragma debug scope 1 1
  63  0000              	extern __DELAY3:near
  64  0000              	extern __DELAYX3:near
  65  0000              	extern __DELAYX6:near
  66  0000              	extern __DELAYY5:near
  67  0000              	extern __DELAYY3:near
  68  0000              	extern _builtin_holtek_delay_2:byte
  69  0000              ___scc equ [18]
  70  0000              ___pltchyc equ [58]
  71  0000              ___stmc0 equ [39]
  72  0000              ___intc0 equ [72]
  73  0000              public _PLTCMP0
  74  0000              #pragma debug scope 2 1

  28  0000              #line 28 "c:\users\h469388\desktop\todo\projects\1_ngb\1_firmware\ngb_low_power_consumption_v3\source\interrupt_5542.c"
  28  0000              @PLTCMP0_code .section at 4 'code'
  28  0000              ifdef INTERRUPT_DELAY
  28  0000              	nop
  28  0000              endif
  28  0000  0080     E  	mov r1,a
  28  0001  070A        	mov a,status
  28  0002              ifndef INTERRUPT_DELAY
  28  0002  0080     E  	mov r2,a
  28  0003              endif
  28  0003  2800     R  	jmp _PLTCMP0
  28  0004              #pragma debug scope 1 1
  28  0004              @dummy4 endp
  28  0004              #pragma debug scope 3 1
  28  0000              _PLTCMP0 .section 'code'
  28  0000              _PLTCMP0 proc
  28  0000              ifdef INTERRUPT_DELAY
  28  0000              	mov r2,a
  28  0000              endif
  29  0000              #line 29 "c:\users\h469388\desktop\todo\projects\1_ngb\1_firmware\ngb_low_power_consumption_v3\source\interrupt_5542.c"
  29  0000  0F03        	mov a,3
  29  0001  0092        	mov [18],a
  67  0002              #line 67 "c:\users\h469388\desktop\todo\projects\1_ngb\1_firmware\ngb_low_power_consumption_v3\source\interrupt_5542.c"
  67  0002  3A3A        	snz [58].4
  67  0003  2800     R  	jmp _L2
  69  0004              #line 69 "c:\users\h469388\desktop\todo\projects\1_ngb\1_firmware\ngb_low_power_consumption_v3\source\interrupt_5542.c"
  69  0004  363A        	clr [58].4
  70  0005              #line 70 "c:\users\h469388\desktop\todo\projects\1_ngb\1_firmware\ngb_low_power_consumption_v3\source\interrupt_5542.c"
  70  0005  35A7        	clr [39].3
  72  0006              #line 72 "c:\users\h469388\desktop\todo\projects\1_ngb\1_firmware\ngb_low_power_consumption_v3\source\interrupt_5542.c"
  72  0006  0F02        	mov a,2
  72  0007  0092        	mov [18],a
  72  0008  2800     R  	jmp _L4
  72  0009              _L2:
  80  0009              #line 80 "c:\users\h469388\desktop\todo\projects\1_ngb\1_firmware\ngb_low_power_consumption_v3\source\interrupt_5542.c"
  80  0009  323A        	set [58].4
  81  000A              #line 81 "c:\users\h469388\desktop\todo\projects\1_ngb\1_firmware\ngb_low_power_consumption_v3\source\interrupt_5542.c"
  81  000A  35A7        	clr [39].3
  87  000B              #line 87 "c:\users\h469388\desktop\todo\projects\1_ngb\1_firmware\ngb_low_power_consumption_v3\source\interrupt_5542.c"
  87  000B  31A7        	set [39].3
  89  000C              #line 89 "c:\users\h469388\desktop\todo\projects\1_ngb\1_firmware\ngb_low_power_consumption_v3\source\interrupt_5542.c"
  89  000C  0F03        	mov a,3
  89  000D  0092        	mov [18],a
  89  000E              _L4:
"File: interrupt_5542.c  Assembler  Version HGASM0202      Page 3

  90  000E              #line 90 "c:\users\h469388\desktop\todo\projects\1_ngb\1_firmware\ngb_low_power_consumption_v3\source\interrupt_5542.c"
  90  000E  3400     E  	clr _SysData[0].0
  94  000F              #line 94 "c:\users\h469388\desktop\todo\projects\1_ngb\1_firmware\ngb_low_power_consumption_v3\source\interrupt_5542.c"
  94  000F  3648        	clr [72].4
  94  0010  0700     E  	mov a,r2
  94  0011  008A        	mov status,a
  94  0012  0700     E  	mov a,r1
  94  0013  0004        	reti
  94  0014              _PLTCMP0 endp
  94  0014              
  94  0014              #line 94 "c:\users\h469388\desktop\todo\projects\1_ngb\1_firmware\ngb_low_power_consumption_v3\source\interrupt_5542.c"
  94  0014              #pragma debug scope 1 1
  94  0014              public _INT0
  94  0014              #pragma debug scope 4 1
 102  0014              #line 102 "c:\users\h469388\desktop\todo\projects\1_ngb\1_firmware\ngb_low_power_consumption_v3\source\interrupt_5542.c"
 102  0000              @INT0_code .section at 8 'code'
 102  0000              _INT0:
 102  0000              ifdef INTERRUPT_DELAY
 102  0000              	nop
 102  0000              endif
 102  0000  0004        	reti
 102  0001              #line 102 "c:\users\h469388\desktop\todo\projects\1_ngb\1_firmware\ngb_low_power_consumption_v3\source\interrupt_5542.c"
 102  0001              #pragma debug scope 1 1
 102  0001              public _INT1
 102  0001              #pragma debug scope 5 1
 107  0001              #line 107 "c:\users\h469388\desktop\todo\projects\1_ngb\1_firmware\ngb_low_power_consumption_v3\source\interrupt_5542.c"
 107  0000              @INT1_code .section at 12 'code'
 107  0000              _INT1:
 107  0000              ifdef INTERRUPT_DELAY
 107  0000              	nop
 107  0000              endif
 107  0000  0004        	reti
 107  0001              #line 107 "c:\users\h469388\desktop\todo\projects\1_ngb\1_firmware\ngb_low_power_consumption_v3\source\interrupt_5542.c"
 107  0001              #pragma debug scope 1 1
 107  0001              public _USIM
 107  0001              #pragma debug scope 6 1
 112  0001              #line 112 "c:\users\h469388\desktop\todo\projects\1_ngb\1_firmware\ngb_low_power_consumption_v3\source\interrupt_5542.c"
 112  0000              @USIM_code .section at 16 'code'
 112  0000              _USIM:
 112  0000              ifdef INTERRUPT_DELAY
 112  0000              	nop
 112  0000              endif
 112  0000  0004        	reti
 112  0001              #line 112 "c:\users\h469388\desktop\todo\projects\1_ngb\1_firmware\ngb_low_power_consumption_v3\source\interrupt_5542.c"
 112  0001              #pragma debug scope 1 1
 112  0001              public _LVD
 112  0001              #pragma debug scope 7 1
 118  0001              #line 118 "c:\users\h469388\desktop\todo\projects\1_ngb\1_firmware\ngb_low_power_consumption_v3\source\interrupt_5542.c"
 118  0000              @LVD_code .section at 20 'code'
 118  0000              _LVD:
 118  0000              ifdef INTERRUPT_DELAY
 118  0000              	nop
 118  0000              endif
 118  0000  0004        	reti
 118  0001              #line 118 "c:\users\h469388\desktop\todo\projects\1_ngb\1_firmware\ngb_low_power_consumption_v3\source\interrupt_5542.c"
 118  0001              #pragma debug scope 1 1
 118  0001              public _ADCONVERTER
 118  0001              #pragma debug scope 8 1
 124  0001              #line 124 "c:\users\h469388\desktop\todo\projects\1_ngb\1_firmware\ngb_low_power_consumption_v3\source\interrupt_5542.c"
 124  0000              @ADCONVERTER_code .section at 24 'code'
"File: interrupt_5542.c  Assembler  Version HGASM0202      Page 4

 124  0000              _ADCONVERTER:
 124  0000              ifdef INTERRUPT_DELAY
 124  0000              	nop
 124  0000              endif
 124  0000  0004        	reti
 124  0001              #line 124 "c:\users\h469388\desktop\todo\projects\1_ngb\1_firmware\ngb_low_power_consumption_v3\source\interrupt_5542.c"
 124  0001              #pragma debug scope 1 1
 124  0001              public _EEPROM
 124  0001              #pragma debug scope 9 1
 129  0001              #line 129 "c:\users\h469388\desktop\todo\projects\1_ngb\1_firmware\ngb_low_power_consumption_v3\source\interrupt_5542.c"
 129  0000              @EEPROM_code .section at 28 'code'
 129  0000              _EEPROM:
 129  0000              ifdef INTERRUPT_DELAY
 129  0000              	nop
 129  0000              endif
 129  0000  0004        	reti
 129  0001              #line 129 "c:\users\h469388\desktop\todo\projects\1_ngb\1_firmware\ngb_low_power_consumption_v3\source\interrupt_5542.c"
 129  0001              #pragma debug scope 1 1
 129  0001              ___ptmc0 equ [82]
 129  0001              ___ptmrpl equ [91]
 129  0001              ___ptmrph equ [92]
 129  0001              ___pltc0c equ [54]
 129  0001              ___pa equ [20]
 129  0001              ___intc2 equ [74]
 129  0001              public _PTMCOMP_P
 129  0001              #pragma debug scope 10 1
 135  0001              #line 135 "c:\users\h469388\desktop\todo\projects\1_ngb\1_firmware\ngb_low_power_consumption_v3\source\interrupt_5542.c"
 135  0000              @PTMCOMP_P_code .section at 32 'code'
 135  0000              ifdef INTERRUPT_DELAY
 135  0000              	nop
 135  0000              endif
 135  0000  0080     E  	mov r1,a
 135  0001  070A        	mov a,status
 135  0002              ifndef INTERRUPT_DELAY
 135  0002  0080     E  	mov r2,a
 135  0003              endif
 135  0003  2800     R  	jmp _PTMCOMP_P
 135  0004              #pragma debug scope 1 1
 135  0004              @dummy32 endp
 135  0004              #pragma debug scope 11 1
 135  0000              _PTMCOMP_P .section 'code'
 135  0000              _PTMCOMP_P proc
 135  0000  00          local _PTMCOMP_P_2 db 1 dup(?)
 135  0000              ifdef INTERRUPT_DELAY
 135  0000              	mov r2,a
 135  0000              endif
 135  0000  0703        	mov a,mp
 135  0001  0080     E  	mov r3,a
 135  0002  0704        	mov a,sbp
 135  0003  0080     E  	mov r4,a
 135  0004  0707        	mov a,tblp
 135  0005  0080     E  	mov r5,a
 135  0006  0709        	mov a,tbhp
 135  0007  0080     E  	mov r6,a
 139  0008              #line 139 "c:\users\h469388\desktop\todo\projects\1_ngb\1_firmware\ngb_low_power_consumption_v3\source\interrupt_5542.c"
 139  0008  35D2        	clr [82].3
 140  0009              #line 140 "c:\users\h469388\desktop\todo\projects\1_ngb\1_firmware\ngb_low_power_consumption_v3\source\interrupt_5542.c"
 140  0009  31D2        	set [82].3
 141  000A              #line 141 "c:\users\h469388\desktop\todo\projects\1_ngb\1_firmware\ngb_low_power_consumption_v3\source\interrupt_5542.c"
 141  000A  33D2        	set [82].7
"File: interrupt_5542.c  Assembler  Version HGASM0202      Page 5

 145  000B              #line 145 "c:\users\h469388\desktop\todo\projects\1_ngb\1_firmware\ngb_low_power_consumption_v3\source\interrupt_5542.c"
 145  000B  0700     E  	mov a,_timeLoopCounter[0]
 145  000C  0080     R  	mov _PTMCOMP_P_2[0],a
 145  000D  0700     R  	mov a,_PTMCOMP_P_2[0]
 145  000E  0A00        	sub a,0
 145  000F  3D0A        	sz z
 145  0010  2800     R  	jmp _L14
 145  0011  0A01        	sub a,(1)-(0)
 145  0012  3D0A        	sz z
 145  0013  2800     R  	jmp _L15
 145  0014              #line 145 "c:\users\h469388\desktop\todo\projects\1_ngb\1_firmware\ngb_low_power_consumption_v3\source\interrupt_5542.c"
 145  0014  0700     R  	mov a,_PTMCOMP_P_2[0]
 145  0015  0A02        	sub a,2
 145  0016  3D0A        	sz z
 145  0017  2800     R  	jmp _L16
 145  0018  0A01        	sub a,(3)-(2)
 145  0019  3D0A        	sz z
 145  001A  2800     R  	jmp _L16
 145  001B  0700     R  	mov a,_PTMCOMP_P_2[0]
 145  001C  0A04        	sub a,4
 145  001D  3D0A        	sz z
 145  001E  2800     R  	jmp _L16
 145  001F  0700     R  	mov a,_PTMCOMP_P_2[0]
 145  0020  0A05        	sub a,5
 145  0021  390A        	snz z
 145  0022  2800     R  	jmp _L13
 145  0023  2800     R  	jmp _L16
 145  0024              _L14:
 149  0024              #line 149 "c:\users\h469388\desktop\todo\projects\1_ngb\1_firmware\ngb_low_power_consumption_v3\source\interrupt_5542.c"
 149  0024  0700     R  	mov a,_m_ptmPfunc[0]
 149  0025  0A00        	sub a,0
 149  0026  3D0A        	sz z
 149  0027  2800     R  	jmp _L17
 149  0028  0A01        	sub a,(1)-(0)
 149  0029  3D0A        	sz z
 149  002A  2800     R  	jmp _L18
 149  002B  0700     R  	mov a,_m_ptmPfunc[0]
 149  002C  0A02        	sub a,2
 149  002D  390A        	snz z
 149  002E  2800     R  	jmp _L13
 149  002F  2800     R  	jmp _L41
 149  0030              _L18:
 153  0030              #line 153 "c:\users\h469388\desktop\todo\projects\1_ngb\1_firmware\ngb_low_power_consumption_v3\source\interrupt_5542.c"
 153  0030  1F00     R  	clr _m_ptmPfunc[0]
 155  0031              #line 155 "c:\users\h469388\desktop\todo\projects\1_ngb\1_firmware\ngb_low_power_consumption_v3\source\interrupt_5542.c"
 155  0031  2000     E  	call _PltOpaSwitchOff
 156  0032              #line 156 "c:\users\h469388\desktop\todo\projects\1_ngb\1_firmware\ngb_low_power_consumption_v3\source\interrupt_5542.c"
 156  0032  0F04        	mov a,4
 156  0033  0080     E  	mov _timeLoopCounter[0],a
 157  0034              #line 157 "c:\users\h469388\desktop\todo\projects\1_ngb\1_firmware\ngb_low_power_consumption_v3\source\interrupt_5542.c"
 157  0034  1FDB        	set [91]
 158  0035              #line 158 "c:\users\h469388\desktop\todo\projects\1_ngb\1_firmware\ngb_low_power_consumption_v3\source\interrupt_5542.c"
 158  0035  0F03        	mov a,3
 158  0036  00DC        	mov [92],a
 159  0037              #line 159 "c:\users\h469388\desktop\todo\projects\1_ngb\1_firmware\ngb_low_power_consumption_v3\source\interrupt_5542.c"
 159  0037  37D2        	clr [82].7
 161  0038              #line 161 "c:\users\h469388\desktop\todo\projects\1_ngb\1_firmware\ngb_low_power_consumption_v3\source\interrupt_5542.c"
 161  0038  2800     R  	jmp _L13
 161  0039              _L41:
 165  0039              #line 165 "c:\users\h469388\desktop\todo\projects\1_ngb\1_firmware\ngb_low_power_consumption_v3\source\interrupt_5542.c"
"File: interrupt_5542.c  Assembler  Version HGASM0202      Page 6

 165  0039  3BB6        	snz [54].7
 165  003A  2800     R  	jmp _L20
 168  003B              #line 168 "c:\users\h469388\desktop\todo\projects\1_ngb\1_firmware\ngb_low_power_consumption_v3\source\interrupt_5542.c"
 168  003B  1F00     R  	clr _m_ptmPfunc[0]
 169  003C              #line 169 "c:\users\h469388\desktop\todo\projects\1_ngb\1_firmware\ngb_low_power_consumption_v3\source\interrupt_5542.c"
 169  003C  0F71        	mov a,113
 169  003D  00DB        	mov [91],a
 170  003E              #line 170 "c:\users\h469388\desktop\todo\projects\1_ngb\1_firmware\ngb_low_power_consumption_v3\source\interrupt_5542.c"
 170  003E  0F02        	mov a,2
 170  003F  00DC        	mov [92],a
 171  0040              #line 171 "c:\users\h469388\desktop\todo\projects\1_ngb\1_firmware\ngb_low_power_consumption_v3\source\interrupt_5542.c"
 171  0040  1F00     E  	clr _timeLoopCounter[0]
 172  0041              #line 172 "c:\users\h469388\desktop\todo\projects\1_ngb\1_firmware\ngb_low_power_consumption_v3\source\interrupt_5542.c"
 172  0041  35D2        	clr [82].3
 173  0042              #line 173 "c:\users\h469388\desktop\todo\projects\1_ngb\1_firmware\ngb_low_power_consumption_v3\source\interrupt_5542.c"
 173  0042  31D2        	set [82].3
 174  0043              #line 174 "c:\users\h469388\desktop\todo\projects\1_ngb\1_firmware\ngb_low_power_consumption_v3\source\interrupt_5542.c"
 174  0043  37D2        	clr [82].7
 176  0044              #line 176 "c:\users\h469388\desktop\todo\projects\1_ngb\1_firmware\ngb_low_power_consumption_v3\source\interrupt_5542.c"
 176  0044  1F00     R  	clr _timeoutDurationFlag[0]
 176  0045  2800     R  	jmp _L13
 176  0046              _L20:
 180  0046              #line 180 "c:\users\h469388\desktop\todo\projects\1_ngb\1_firmware\ngb_low_power_consumption_v3\source\interrupt_5542.c"
 180  0046  0F0A        	mov a,10
 180  0047  0080     E  	mov _CommData[0],a
 180  0048  2800     R  	jmp _L13
 180  0049              _L17:
 186  0049              #line 186 "c:\users\h469388\desktop\todo\projects\1_ngb\1_firmware\ngb_low_power_consumption_v3\source\interrupt_5542.c"
 186  0049  0700     E  	mov a,_CommData[12]
 186  004A  0A05        	sub a,5
 186  004B  390A        	snz z
 186  004C  2800     R  	jmp _L21
 188  004D              #line 188 "c:\users\h469388\desktop\todo\projects\1_ngb\1_firmware\ngb_low_power_consumption_v3\source\interrupt_5542.c"
 188  004D  0700     E  	mov a,_CommData[21]
 188  004E  0080     E  	mov ra,a
 188  004F  0700     E  	mov a,ra
 188  0050  0080     E  	mov _CommData[20],a
 189  0051              #line 189 "c:\users\h469388\desktop\todo\projects\1_ngb\1_firmware\ngb_low_power_consumption_v3\source\interrupt_5542.c"
 189  0051  0700     E  	mov a,_CommData[22]
 189  0052  0080     R  	mov _PTMCOMP_P_2[0],a
 189  0053  0700     R  	mov a,_PTMCOMP_P_2[0]
 189  0054  0080     E  	mov _CommData[21],a
 190  0055              #line 190 "c:\users\h469388\desktop\todo\projects\1_ngb\1_firmware\ngb_low_power_consumption_v3\source\interrupt_5542.c"
 190  0055  0700     E  	mov a,_CommData[10]
 190  0056  0080     E  	mov rb,a
 190  0057  0700     E  	mov a,_CommData[11]
 190  0058  0080     E  	mov rc,a
 190  0059  0700     E  	mov a,rb
 190  005A  0080     E  	mov _CommData[22],a
 191  005B              #line 191 "c:\users\h469388\desktop\todo\projects\1_ngb\1_firmware\ngb_low_power_consumption_v3\source\interrupt_5542.c"
 191  005B  0700     R  	mov a,_PTMCOMP_P_2[0]
 191  005C  0AAA        	sub a,170
 191  005D  390A        	snz z
 191  005E  2800     R  	jmp _L22
 191  005F  0700     E  	mov a,rb
 191  0060  0AA9        	sub a,169
 191  0061  390A        	snz z
 191  0062  2800     R  	jmp _L22
 193  0063              #line 193 "c:\users\h469388\desktop\todo\projects\1_ngb\1_firmware\ngb_low_power_consumption_v3\source\interrupt_5542.c"
 193  0063  0F01        	mov a,1
"File: interrupt_5542.c  Assembler  Version HGASM0202      Page 7

 193  0064  0080     E  	mov _CLIPWriteFlag[0],a
 193  0065  2800     R  	jmp _L23
 193  0066              _L22:
 197  0066              #line 197 "c:\users\h469388\desktop\todo\projects\1_ngb\1_firmware\ngb_low_power_consumption_v3\source\interrupt_5542.c"
 197  0066  1F00     E  	clr _CLIPWriteFlag[0]
 200  0067              #line 200 "c:\users\h469388\desktop\todo\projects\1_ngb\1_firmware\ngb_low_power_consumption_v3\source\interrupt_5542.c"
 200  0067  0700     E  	mov a,ra
 200  0068  0AAA        	sub a,170
 200  0069  390A        	snz z
 200  006A  2800     R  	jmp _L23
 200  006B  0700     R  	mov a,_PTMCOMP_P_2[0]
 200  006C  0AA9        	sub a,169
 200  006D  390A        	snz z
 200  006E  2800     R  	jmp _L23
 204  006F              #line 204 "c:\users\h469388\desktop\todo\projects\1_ngb\1_firmware\ngb_low_power_consumption_v3\source\interrupt_5542.c"
 204  006F  0700     E  	mov a,rb
 204  0070  0080     E  	mov rd,a
 204  0071  0700     E  	mov a,rc
 204  0072  0080     E  	mov re,a
 204  0073  0F04        	mov a,4
 204  0074              _LI1:
 204  0074  340A        	clr c
 204  0075  1B80     E  	rrc re
 204  0076  1B80     E  	rrc rd
 204  0077  1785        	sdz acc
 204  0078  2800     R  	jmp _LI1
 204  0079  0F0F        	mov a,15
 204  007A  0680     E  	andm a,rd
 206  007B              #line 206 "c:\users\h469388\desktop\todo\projects\1_ngb\1_firmware\ngb_low_power_consumption_v3\source\interrupt_5542.c"
 206  007B  0F09        	mov a,9
 206  007C  0200     E  	sub a,rd
 206  007D  380A        	snz c
 206  007E  2800     R  	jmp _L24
 205  007F              #line 205 "c:\users\h469388\desktop\todo\projects\1_ngb\1_firmware\ngb_low_power_consumption_v3\source\interrupt_5542.c"
 205  007F  0700     E  	mov a,rb
 205  0080  0E0F        	and a,15
 205  0081  0080     E  	mov re,a
 206  0082              #line 206 "c:\users\h469388\desktop\todo\projects\1_ngb\1_firmware\ngb_low_power_consumption_v3\source\interrupt_5542.c"
 206  0082  0F09        	mov a,9
 206  0083  0200     E  	sub a,re
 206  0084  380A        	snz c
 206  0085  2800     R  	jmp _L24
 208  0086              #line 208 "c:\users\h469388\desktop\todo\projects\1_ngb\1_firmware\ngb_low_power_consumption_v3\source\interrupt_5542.c"
 208  0086  0F00        	mov a,0  
 208  0087  0680     E  	andm a,rb  
 208  0088  0F01        	mov a,1  
 208  0089  0680     E  	andm a,rc
 208  008A  0700     E  	mov a,rb
 208  008B  0500     E  	or a,rc
 208  008C  3D0A        	sz z
 208  008D  2800     R  	jmp _L27
 208  008E  0F64        	mov a,100
 208  008F  0080     E  	mov rb,a
 208  0090  2800     R  	jmp _L25
 208  0091              _L27:
 208  0091  1F00     E  	clr rb
 208  0092              _L25:
 209  0092              #line 209 "c:\users\h469388\desktop\todo\projects\1_ngb\1_firmware\ngb_low_power_consumption_v3\source\interrupt_5542.c"
 209  0092  0F00     E  	mov a,low offset _CLIPAddrDecode
 209  0093  0300     E  	add a,rd
"File: interrupt_5542.c  Assembler  Version HGASM0202      Page 8

 209  0094  0083        	mov mp,a
 209  0095  0F00     E  	mov a,high offset _CLIPAddrDecode
 209  0096  1F04        	clr sbp
 209  0097  1384        	adcm a,sbp
 209  0098  2000     E  	call _Crom2Prom
 209  0099  0080     E  	mov ra,a
 209  009A  0700     E  	mov a,ra
 209  009B  0300     E  	add a,ra
 209  009C  0080     E  	mov rc,a
 209  009D  0700     E  	mov a,rc
 209  009E  0380     E  	addm a,rc
 209  009F  0700     E  	mov a,rc
 209  00A0  0380     E  	addm a,ra
 209  00A1  0700     E  	mov a,ra
 209  00A2  0380     E  	addm a,ra
 209  00A3  0700     E  	mov a,ra
 209  00A4  0380     E  	addm a,rb
 210  00A5              #line 210 "c:\users\h469388\desktop\todo\projects\1_ngb\1_firmware\ngb_low_power_consumption_v3\source\interrupt_5542.c"
 210  00A5  0F00     E  	mov a,low offset _CLIPAddrDecode
 210  00A6  0300     E  	add a,re
 210  00A7  0083        	mov mp,a
 210  00A8  0F00     E  	mov a,high offset _CLIPAddrDecode
 210  00A9  1F04        	clr sbp
 210  00AA  1384        	adcm a,sbp
 210  00AB  2000     E  	call _Crom2Prom
 210  00AC  0080     E  	mov rc,a
 211  00AD              #line 211 "c:\users\h469388\desktop\todo\projects\1_ngb\1_firmware\ngb_low_power_consumption_v3\source\interrupt_5542.c"
 211  00AD  0700     E  	mov a,rb
 211  00AE  0300     E  	add a,rc
 211  00AF  0080     E  	mov _PutDataToWriteEEBuff_2[0],a
 211  00B0  0F00        	mov a,0
 211  00B1  2000     E  	call _PutDataToWriteEEBuff
 211  00B2              _L24:
 214  00B2              #line 214 "c:\users\h469388\desktop\todo\projects\1_ngb\1_firmware\ngb_low_power_consumption_v3\source\interrupt_5542.c"
 214  00B2  1F00     E  	clr _CommData[22]
 215  00B3              #line 215 "c:\users\h469388\desktop\todo\projects\1_ngb\1_firmware\ngb_low_power_consumption_v3\source\interrupt_5542.c"
 215  00B3  1F00     E  	clr _CLIPWriteFlag[0]
 215  00B4  2800     R  	jmp _L23
 215  00B5              _L21:
 221  00B5              #line 221 "c:\users\h469388\desktop\todo\projects\1_ngb\1_firmware\ngb_low_power_consumption_v3\source\interrupt_5542.c"
 221  00B5  1F00     E  	clr _CommData[22]
 221  00B6              _L23:
 224  00B6              #line 224 "c:\users\h469388\desktop\todo\projects\1_ngb\1_firmware\ngb_low_power_consumption_v3\source\interrupt_5542.c"
 224  00B6  1E00     R  	snz _timeoutDurationFlag[0]
 224  00B7  2800     R  	jmp _L26
 226  00B8              #line 226 "c:\users\h469388\desktop\todo\projects\1_ngb\1_firmware\ngb_low_power_consumption_v3\source\interrupt_5542.c"
 226  00B8  1FDB        	set [91]
 227  00B9              #line 227 "c:\users\h469388\desktop\todo\projects\1_ngb\1_firmware\ngb_low_power_consumption_v3\source\interrupt_5542.c"
 227  00B9  0F03        	mov a,3
 227  00BA  00DC        	mov [92],a
 228  00BB              #line 228 "c:\users\h469388\desktop\todo\projects\1_ngb\1_firmware\ngb_low_power_consumption_v3\source\interrupt_5542.c"
 228  00BB  0F04        	mov a,4
 228  00BC  0080     E  	mov _timeLoopCounter[0],a
 229  00BD              #line 229 "c:\users\h469388\desktop\todo\projects\1_ngb\1_firmware\ngb_low_power_consumption_v3\source\interrupt_5542.c"
 229  00BD  2800     R  	jmp _L13
 229  00BE              _L26:
 234  00BE              #line 234 "c:\users\h469388\desktop\todo\projects\1_ngb\1_firmware\ngb_low_power_consumption_v3\source\interrupt_5542.c"
 234  00BE  1F00     E  	clr _CommData[0]
 235  00BF              #line 235 "c:\users\h469388\desktop\todo\projects\1_ngb\1_firmware\ngb_low_power_consumption_v3\source\interrupt_5542.c"
 235  00BF  1F00     E  	clr _CommData[6]
"File: interrupt_5542.c  Assembler  Version HGASM0202      Page 9

 235  00C0  1F00     E  	clr _CommData[7]
 236  00C1              #line 236 "c:\users\h469388\desktop\todo\projects\1_ngb\1_firmware\ngb_low_power_consumption_v3\source\interrupt_5542.c"
 236  00C1  1F00     E  	clr _CommData[8]
 236  00C2  1F00     E  	clr _CommData[9]
 237  00C3              #line 237 "c:\users\h469388\desktop\todo\projects\1_ngb\1_firmware\ngb_low_power_consumption_v3\source\interrupt_5542.c"
 237  00C3  1F00     E  	clr _CommData[5]
 238  00C4              #line 238 "c:\users\h469388\desktop\todo\projects\1_ngb\1_firmware\ngb_low_power_consumption_v3\source\interrupt_5542.c"
 238  00C4  1F00     E  	clr _CommData[18]
 238  00C5  1F00     E  	clr _CommData[19]
 239  00C6              #line 239 "c:\users\h469388\desktop\todo\projects\1_ngb\1_firmware\ngb_low_power_consumption_v3\source\interrupt_5542.c"
 239  00C6  1F00     E  	clr _CommData[15]
 240  00C7              #line 240 "c:\users\h469388\desktop\todo\projects\1_ngb\1_firmware\ngb_low_power_consumption_v3\source\interrupt_5542.c"
 240  00C7  1F00     R  	clr _CLIPDLIPFlag[0]
 241  00C8              #line 241 "c:\users\h469388\desktop\todo\projects\1_ngb\1_firmware\ngb_low_power_consumption_v3\source\interrupt_5542.c"
 241  00C8  0F01        	mov a,1
 241  00C9  0080     E  	mov _CommData[26],a
 242  00CA              #line 242 "c:\users\h469388\desktop\todo\projects\1_ngb\1_firmware\ngb_low_power_consumption_v3\source\interrupt_5542.c"
 242  00CA  33D2        	set [82].7
 243  00CB              #line 243 "c:\users\h469388\desktop\todo\projects\1_ngb\1_firmware\ngb_low_power_consumption_v3\source\interrupt_5542.c"
 243  00CB  1F00     R  	clr _timeoutDurationFlag[0]
 247  00CC              #line 247 "c:\users\h469388\desktop\todo\projects\1_ngb\1_firmware\ngb_low_power_consumption_v3\source\interrupt_5542.c"
 247  00CC  0F01        	mov a,1
 247  00CD  0092        	mov [18],a
 248  00CE              #line 248 "c:\users\h469388\desktop\todo\projects\1_ngb\1_firmware\ngb_low_power_consumption_v3\source\interrupt_5542.c"
 248  00CE  3400     E  	clr _SysData[0].0
 249  00CF              #line 249 "c:\users\h469388\desktop\todo\projects\1_ngb\1_firmware\ngb_low_power_consumption_v3\source\interrupt_5542.c"
 249  00CF  1F00     E  	clr _FuncData[3]
 251  00D0              #line 251 "c:\users\h469388\desktop\todo\projects\1_ngb\1_firmware\ngb_low_power_consumption_v3\source\interrupt_5542.c"
 251  00D0  0700     E  	mov a,_CommData[12]
 251  00D1  0E05        	and a,5
 251  00D2  0080     E  	mov ra,a
 251  00D3  0700     E  	mov a,ra
 251  00D4  0A05        	sub a,5
 251  00D5  390A        	snz z
 251  00D6  2800     R  	jmp _L13
 253  00D7              #line 253 "c:\users\h469388\desktop\todo\projects\1_ngb\1_firmware\ngb_low_power_consumption_v3\source\interrupt_5542.c"
 253  00D7  3514        	clr [20].2
 255  00D8              #line 255 "c:\users\h469388\desktop\todo\projects\1_ngb\1_firmware\ngb_low_power_consumption_v3\source\interrupt_5542.c"
 255  00D8  3714        	clr [20].6
 257  00D9              #line 257 "c:\users\h469388\desktop\todo\projects\1_ngb\1_firmware\ngb_low_power_consumption_v3\source\interrupt_5542.c"
 257  00D9  0FFF        	mov a,255  
 257  00DA  0680     E  	andm a,_FuncData[6]  
 257  00DB  0FF7        	mov a,247  
 257  00DC  0680     E  	andm a,_FuncData[7]
 257  00DD  2800     R  	jmp _L13
 257  00DE              _L15:
 268  00DE              #line 268 "c:\users\h469388\desktop\todo\projects\1_ngb\1_firmware\ngb_low_power_consumption_v3\source\interrupt_5542.c"
 268  00DE  0FDD        	mov a,221
 268  00DF  00DB        	mov [91],a
 269  00E0              #line 269 "c:\users\h469388\desktop\todo\projects\1_ngb\1_firmware\ngb_low_power_consumption_v3\source\interrupt_5542.c"
 269  00E0  0F01        	mov a,1
 269  00E1  00DC        	mov [92],a
 270  00E2              #line 270 "c:\users\h469388\desktop\todo\projects\1_ngb\1_firmware\ngb_low_power_consumption_v3\source\interrupt_5542.c"
 270  00E2  1F00     E  	clr _timeLoopCounter[0]
 270  00E3  2800     R  	jmp _L40
 270  00E4              _L16:
 282  00E4              #line 282 "c:\users\h469388\desktop\todo\projects\1_ngb\1_firmware\ngb_low_power_consumption_v3\source\interrupt_5542.c"
 282  00E4  1FDB        	set [91]
 283  00E5              #line 283 "c:\users\h469388\desktop\todo\projects\1_ngb\1_firmware\ngb_low_power_consumption_v3\source\interrupt_5542.c"
 283  00E5  0F03        	mov a,3
"File: interrupt_5542.c  Assembler  Version HGASM0202      Page 10

 283  00E6  00DC        	mov [92],a
 284  00E7              #line 284 "c:\users\h469388\desktop\todo\projects\1_ngb\1_firmware\ngb_low_power_consumption_v3\source\interrupt_5542.c"
 284  00E7  1500     R  	deca _PTMCOMP_P_2[0]
 284  00E8  0080     E  	mov _timeLoopCounter[0],a
 284  00E9              _L40:
 285  00E9              #line 285 "c:\users\h469388\desktop\todo\projects\1_ngb\1_firmware\ngb_low_power_consumption_v3\source\interrupt_5542.c"
 285  00E9  37D2        	clr [82].7
 286  00EA              #line 286 "c:\users\h469388\desktop\todo\projects\1_ngb\1_firmware\ngb_low_power_consumption_v3\source\interrupt_5542.c"
 286  00EA  35D2        	clr [82].3
 287  00EB              #line 287 "c:\users\h469388\desktop\todo\projects\1_ngb\1_firmware\ngb_low_power_consumption_v3\source\interrupt_5542.c"
 287  00EB  31D2        	set [82].3
 287  00EC              _L13:
 295  00EC              #line 295 "c:\users\h469388\desktop\todo\projects\1_ngb\1_firmware\ngb_low_power_consumption_v3\source\interrupt_5542.c"
 295  00EC  364A        	clr [74].4
 295  00ED  0700     E  	mov a,r2
 295  00EE  008A        	mov status,a
 295  00EF  0700     E  	mov a,r3
 295  00F0  0083        	mov mp,a
 295  00F1  0700     E  	mov a,r4
 295  00F2  0084        	mov sbp,a
 295  00F3  0700     E  	mov a,r5
 295  00F4  0087        	mov tblp,a
 295  00F5  0700     E  	mov a,r6
 295  00F6  0089        	mov tbhp,a
 295  00F7  1D05        	tabrdc acc
 295  00F8  0700     E  	mov a,r1
 295  00F9  0004        	reti
 295  00FA              _PTMCOMP_P endp
 295  00FA              
 295  00FA              #line 295 "c:\users\h469388\desktop\todo\projects\1_ngb\1_firmware\ngb_low_power_consumption_v3\source\interrupt_5542.c"
 295  00FA              #pragma debug scope 1 1
 295  00FA              ___ptmc2 equ [84]
 295  00FA              ___pltsw equ [49]
 295  00FA              ___pltda2l equ [53]
 295  00FA              ___isgenc equ [93]
 295  00FA              ___tb0c equ [16]
 295  00FA              ___stmc1 equ [40]
 295  00FA              ___stmal equ [43]
 295  00FA              ___stmah equ [44]
 295  00FA              ___pltdacc equ [50]
 295  00FA              ___pltac equ [59]
 295  00FA              ___pltc1c equ [56]
 295  00FA              public _PTMCOMP_A
 295  00FA              #pragma debug scope 12 1
 300  00FA              #line 300 "c:\users\h469388\desktop\todo\projects\1_ngb\1_firmware\ngb_low_power_consumption_v3\source\interrupt_5542.c"
 300  0000              @PTMCOMP_A_code .section at 36 'code'
 300  0000              ifdef INTERRUPT_DELAY
 300  0000              	nop
 300  0000              endif
 300  0000  0080     E  	mov r1,a
 300  0001  070A        	mov a,status
 300  0002              ifndef INTERRUPT_DELAY
 300  0002  0080     E  	mov r2,a
 300  0003              endif
 300  0003  2800     R  	jmp _PTMCOMP_A
 300  0004              #pragma debug scope 1 1
 300  0004              @dummy36 endp
 300  0004              #pragma debug scope 13 1
 300  0000              _PTMCOMP_A .section 'code'
 300  0000              _PTMCOMP_A proc
"File: interrupt_5542.c  Assembler  Version HGASM0202      Page 11

 300  0000  0002[       local _PTMCOMP_A_2 db 2 dup(?)
            00
            ]
 300  0000              ifdef INTERRUPT_DELAY
 300  0000              	mov r2,a
 300  0000              endif
 300  0000  0703        	mov a,mp
 300  0001  0080     E  	mov r3,a
 300  0002  0704        	mov a,sbp
 300  0003  0080     E  	mov r4,a
 300  0004  0707        	mov a,tblp
 300  0005  0080     E  	mov r5,a
 300  0006  0709        	mov a,tbhp
 300  0007  0080     E  	mov r6,a
 310  0008              #line 310 "c:\users\h469388\desktop\todo\projects\1_ngb\1_firmware\ngb_low_power_consumption_v3\source\interrupt_5542.c"
 310  0008  0F03        	mov a,3
 310  0009  0092        	mov [18],a
 311  000A              #line 311 "c:\users\h469388\desktop\todo\projects\1_ngb\1_firmware\ngb_low_power_consumption_v3\source\interrupt_5542.c"
 311  000A  35D2        	clr [82].3
 312  000B              #line 312 "c:\users\h469388\desktop\todo\projects\1_ngb\1_firmware\ngb_low_power_consumption_v3\source\interrupt_5542.c"
 312  000B  31D2        	set [82].3
 313  000C              #line 313 "c:\users\h469388\desktop\todo\projects\1_ngb\1_firmware\ngb_low_power_consumption_v3\source\interrupt_5542.c"
 313  000C  37D2        	clr [82].7
 314  000D              #line 314 "c:\users\h469388\desktop\todo\projects\1_ngb\1_firmware\ngb_low_power_consumption_v3\source\interrupt_5542.c"
 314  000D  0F01        	mov a,1
 314  000E  0080     E  	mov _FuncData[3],a
 315  000F              #line 315 "c:\users\h469388\desktop\todo\projects\1_ngb\1_firmware\ngb_low_power_consumption_v3\source\interrupt_5542.c"
 315  000F  35A7        	clr [39].3
 317  0010              #line 317 "c:\users\h469388\desktop\todo\projects\1_ngb\1_firmware\ngb_low_power_consumption_v3\source\interrupt_5542.c"
 317  0010  3C54        	sz [84].0
 317  0011  2800     R  	jmp _L43
 320  0012              #line 320 "c:\users\h469388\desktop\todo\projects\1_ngb\1_firmware\ngb_low_power_consumption_v3\source\interrupt_5542.c"
 320  0012  3800     E  	snz _CommData[7].7
 320  0013  2800     R  	jmp _L43
 320  0014  1700     E  	sdza _CommData[26]
 320  0015  2800     R  	jmp _L43
 322  0016              #line 322 "c:\users\h469388\desktop\todo\projects\1_ngb\1_firmware\ngb_low_power_consumption_v3\source\interrupt_5542.c"
 322  0016  3031        	set [49].0
 323  0017              #line 323 "c:\users\h469388\desktop\todo\projects\1_ngb\1_firmware\ngb_low_power_consumption_v3\source\interrupt_5542.c"
 323  0017  0F1A        	mov a,26
 323  0018  00B5        	mov [53],a
 324  0019              #line 324 "c:\users\h469388\desktop\todo\projects\1_ngb\1_firmware\ngb_low_power_consumption_v3\source\interrupt_5542.c"
 324  0019  0F01        	mov a,1
 324  001A  0080     R  	mov _m_ptmPfunc[0],a
 325  001B              #line 325 "c:\users\h469388\desktop\todo\projects\1_ngb\1_firmware\ngb_low_power_consumption_v3\source\interrupt_5542.c"
 325  001B  0700     E  	mov a,_CommData[0]
 325  001C  0A02        	sub a,2
 325  001D  390A        	snz z
 325  001E  2800     R  	jmp _L44
 327  001F              #line 327 "c:\users\h469388\desktop\todo\projects\1_ngb\1_firmware\ngb_low_power_consumption_v3\source\interrupt_5542.c"
 327  001F  0700     E  	mov a,_CommData[18]
 327  0020  0080     E  	mov rb,a
 327  0021  0700     E  	mov a,_CommData[19]
 327  0022  0080     E  	mov rc,a
 327  0023  0700     E  	mov a,rb
 327  0024  0500     E  	or a,rc
 327  0025  3D0A        	sz z
 327  0026  2800     R  	jmp _L45
 330  0027              #line 330 "c:\users\h469388\desktop\todo\projects\1_ngb\1_firmware\ngb_low_power_consumption_v3\source\interrupt_5542.c"
 330  0027              ;# 330 "c:\users\h469388\desktop\todo\projects\1_ngb\1_firmware\ngb_low_power_consumption_v3\source\interrupt_5542.c" 1
"File: interrupt_5542.c  Assembler  Version HGASM0202      Page 12

 330  0027              	IF 15>263690
 330  0027              ;# 330 "c:\users\h469388\desktop\todo\projects\1_ngb\1_firmware\ngb_low_power_consumption_v3\source\interrupt_5542.c" 1
 330  0027              	ERRMESSAGE 'the value 15of the argument exceeds the maxinum 263690'
 330  0027              	ENDIF
 330  0027              ;# 330 "c:\users\h469388\desktop\todo\projects\1_ngb\1_firmware\ngb_low_power_consumption_v3\source\interrupt_5542.c" 1
 330  0027              	IF 15<0
 330  0027              ;# 330 "c:\users\h469388\desktop\todo\projects\1_ngb\1_firmware\ngb_low_power_consumption_v3\source\interrupt_5542.c" 1
 330  0027              	ERRMESSAGE 'the value 15 of the argument exceeds the mininum 0'
 330  0027              	ENDIF
 330  0027              ;# 330 "c:\users\h469388\desktop\todo\projects\1_ngb\1_firmware\ngb_low_power_consumption_v3\source\interrupt_5542.c" 1
 330  0027              	IF 15==0
 330  0027              ;# 330 "c:\users\h469388\desktop\todo\projects\1_ngb\1_firmware\ngb_low_power_consumption_v3\source\interrupt_5542.c" 1
 330  0027              	JMP $
 330  0027              	ENDIF
 330  0027              ;# 330 "c:\users\h469388\desktop\todo\projects\1_ngb\1_firmware\ngb_low_power_consumption_v3\source\interrupt_5542.c" 1
 330  0027              	IF 15==1
 330  0027              ;# 330 "c:\users\h469388\desktop\todo\projects\1_ngb\1_firmware\ngb_low_power_consumption_v3\source\interrupt_5542.c" 1
 330  0027              	NOP
 330  0027              	ENDIF
 330  0027              ;# 330 "c:\users\h469388\desktop\todo\projects\1_ngb\1_firmware\ngb_low_power_consumption_v3\source\interrupt_5542.c" 1
 330  0027              	IF 15==2
 330  0027              ;# 330 "c:\users\h469388\desktop\todo\projects\1_ngb\1_firmware\ngb_low_power_consumption_v3\source\interrupt_5542.c" 1
 330  0027              	NOP
 330  0027              ;# 330 "c:\users\h469388\desktop\todo\projects\1_ngb\1_firmware\ngb_low_power_consumption_v3\source\interrupt_5542.c" 1
 330  0027              	NOP
 330  0027              	ENDIF
 330  0027              ;# 330 "c:\users\h469388\desktop\todo\projects\1_ngb\1_firmware\ngb_low_power_consumption_v3\source\interrupt_5542.c" 1
 330  0027              	IF 15==3
 330  0027              ;# 330 "c:\users\h469388\desktop\todo\projects\1_ngb\1_firmware\ngb_low_power_consumption_v3\source\interrupt_5542.c" 1
 330  0027              	NOP
 330  0027              ;# 330 "c:\users\h469388\desktop\todo\projects\1_ngb\1_firmware\ngb_low_power_consumption_v3\source\interrupt_5542.c" 1
 330  0027              	NOP
 330  0027              ;# 330 "c:\users\h469388\desktop\todo\projects\1_ngb\1_firmware\ngb_low_power_consumption_v3\source\interrupt_5542.c" 1
 330  0027              	NOP
 330  0027              	ENDIF
 330  0027              ;# 330 "c:\users\h469388\desktop\todo\projects\1_ngb\1_firmware\ngb_low_power_consumption_v3\source\interrupt_5542.c" 1
 330  0027              	IF (15<8) AND (15>3)
 330  0027              ;# 330 "c:\users\h469388\desktop\todo\projects\1_ngb\1_firmware\ngb_low_power_consumption_v3\source\interrupt_5542.c" 1
 330  0027              	CALL __DELAY3 + 7 -15
 330  0027              	ENDIF
 330  0027              ;# 330 "c:\users\h469388\desktop\todo\projects\1_ngb\1_firmware\ngb_low_power_consumption_v3\source\interrupt_5542.c" 1
 330  0027              	IF (15< 0404h) AND (15>7)
 330  0027              ;# 330 "c:\users\h469388\desktop\todo\projects\1_ngb\1_firmware\ngb_low_power_consumption_v3\source\interrupt_5542.c" 1
 330  0027  0F02        	MOV A,15/4-1
 330  0028              ;# 330 "c:\users\h469388\desktop\todo\projects\1_ngb\1_firmware\ngb_low_power_consumption_v3\source\interrupt_5542.c" 1
 330  0028  2000     E  	CALL __DELAYX3 + 3 -(15 MOD 4)
 330  0029              	ENDIF
 330  0029              ;# 330 "c:\users\h469388\desktop\todo\projects\1_ngb\1_firmware\ngb_low_power_consumption_v3\source\interrupt_5542.c" 1
 330  0029              	IF (15< 0x40B) AND (15> 0403h)
 330  0029              ;# 330 "c:\users\h469388\desktop\todo\projects\1_ngb\1_firmware\ngb_low_power_consumption_v3\source\interrupt_5542.c" 1
 330  0029              	MOV A,0 
 330  0029              ;# 330 "c:\users\h469388\desktop\todo\projects\1_ngb\1_firmware\ngb_low_power_consumption_v3\source\interrupt_5542.c" 1
 330  0029              	CALL __DELAYX6 + 0x40a -15
 330  0029              	ENDIF
 330  0029              ;# 330 "c:\users\h469388\desktop\todo\projects\1_ngb\1_firmware\ngb_low_power_consumption_v3\source\interrupt_5542.c" 1
 330  0029              	IF (15 >= 0x40b) AND ((((15-9)%0402h)/4+1)>256)
 330  0029              ;# 330 "c:\users\h469388\desktop\todo\projects\1_ngb\1_firmware\ngb_low_power_consumption_v3\source\interrupt_5542.c" 1
 330  0029              	MOV A,(15-9)/0402h
 330  0029              ;# 330 "c:\users\h469388\desktop\todo\projects\1_ngb\1_firmware\ngb_low_power_consumption_v3\source\interrupt_5542.c" 1
 330  0029              	MOV _builtin_holtek_delay_2,A
"File: interrupt_5542.c  Assembler  Version HGASM0202      Page 13

 330  0029              ;# 330 "c:\users\h469388\desktop\todo\projects\1_ngb\1_firmware\ngb_low_power_consumption_v3\source\interrupt_5542.c" 1
 330  0029              	MOV A,0
 330  0029              ;# 330 "c:\users\h469388\desktop\todo\projects\1_ngb\1_firmware\ngb_low_power_consumption_v3\source\interrupt_5542.c" 1
 330  0029              	CALL __DELAYY5 +5- (((15-9)%0402h)%6)
 330  0029              	ENDIF
 330  0029              ;# 330 "c:\users\h469388\desktop\todo\projects\1_ngb\1_firmware\ngb_low_power_consumption_v3\source\interrupt_5542.c" 1
 330  0029              	IF (15 >= 0x40b) AND ((((15-9)%0402h)/4+1)<=256)
 330  0029              ;# 330 "c:\users\h469388\desktop\todo\projects\1_ngb\1_firmware\ngb_low_power_consumption_v3\source\interrupt_5542.c" 1
 330  0029              	MOV A,(15-9)/0402h
 330  0029              ;# 330 "c:\users\h469388\desktop\todo\projects\1_ngb\1_firmware\ngb_low_power_consumption_v3\source\interrupt_5542.c" 1
 330  0029              	MOV _builtin_holtek_delay_2,A
 330  0029              ;# 330 "c:\users\h469388\desktop\todo\projects\1_ngb\1_firmware\ngb_low_power_consumption_v3\source\interrupt_5542.c" 1
 330  0029              	MOV A,((15-9)%0402h)/4+1
 330  0029              ;# 330 "c:\users\h469388\desktop\todo\projects\1_ngb\1_firmware\ngb_low_power_consumption_v3\source\interrupt_5542.c" 1
 330  0029              	CALL __DELAYY3 +3-(((15-9)%0402h)%4)
 330  0029              	ENDIF
 332  0029              #line 332 "c:\users\h469388\desktop\todo\projects\1_ngb\1_firmware\ngb_low_power_consumption_v3\source\interrupt_5542.c"
 332  0029  3031        	set [49].0
 333  002A              #line 333 "c:\users\h469388\desktop\todo\projects\1_ngb\1_firmware\ngb_low_power_consumption_v3\source\interrupt_5542.c"
 333  002A  0F08        	mov a,8
 333  002B  00B5        	mov [53],a
 335  002C              #line 335 "c:\users\h469388\desktop\todo\projects\1_ngb\1_firmware\ngb_low_power_consumption_v3\source\interrupt_5542.c"
 335  002C  1F00     E  	clr _timeLoopCounter[0]
 336  002D              #line 336 "c:\users\h469388\desktop\todo\projects\1_ngb\1_firmware\ngb_low_power_consumption_v3\source\interrupt_5542.c"
 336  002D  0FED        	mov a,237
 336  002E  0380     E  	addm a,rb
 336  002F  0FFF        	mov a,255
 336  0030  1380     E  	adcm a,rc
 337  0031              #line 337 "c:\users\h469388\desktop\todo\projects\1_ngb\1_firmware\ngb_low_power_consumption_v3\source\interrupt_5542.c"
 337  0031  0700     E  	mov a,rb
 337  0032  00DB        	mov [91],a
 338  0033              #line 338 "c:\users\h469388\desktop\todo\projects\1_ngb\1_firmware\ngb_low_power_consumption_v3\source\interrupt_5542.c"
 338  0033  0700     E  	mov a,rc
 338  0034  00DC        	mov [92],a
 338  0035  2800     R  	jmp _L46
 338  0036              _L45:
 342  0036              #line 342 "c:\users\h469388\desktop\todo\projects\1_ngb\1_firmware\ngb_low_power_consumption_v3\source\interrupt_5542.c"
 342  0036  2000     E  	call _PltOpaSwitchOff
 343  0037              #line 343 "c:\users\h469388\desktop\todo\projects\1_ngb\1_firmware\ngb_low_power_consumption_v3\source\interrupt_5542.c"
 343  0037  1F00     R  	clr _m_ptmPfunc[0]
 343  0038  2800     R  	jmp _L46
 343  0039              _L44:
 348  0039              #line 348 "c:\users\h469388\desktop\todo\projects\1_ngb\1_firmware\ngb_low_power_consumption_v3\source\interrupt_5542.c"
 348  0039  3031        	set [49].0
 349  003A              #line 349 "c:\users\h469388\desktop\todo\projects\1_ngb\1_firmware\ngb_low_power_consumption_v3\source\interrupt_5542.c"
 349  003A  0F08        	mov a,8
 349  003B  00B5        	mov [53],a
 349  003C              _L46:
 352  003C              #line 352 "c:\users\h469388\desktop\todo\projects\1_ngb\1_firmware\ngb_low_power_consumption_v3\source\interrupt_5542.c"
 352  003C  35D2        	clr [82].3
 353  003D              #line 353 "c:\users\h469388\desktop\todo\projects\1_ngb\1_firmware\ngb_low_power_consumption_v3\source\interrupt_5542.c"
 353  003D  31D2        	set [82].3
 353  003E              _L43:
 359  003E              #line 359 "c:\users\h469388\desktop\todo\projects\1_ngb\1_firmware\ngb_low_power_consumption_v3\source\interrupt_5542.c"
 359  003E  345D        	clr [93].0
 360  003F              #line 360 "c:\users\h469388\desktop\todo\projects\1_ngb\1_firmware\ngb_low_power_consumption_v3\source\interrupt_5542.c"
 360  003F  34DD        	clr [93].1
 364  0040              #line 364 "c:\users\h469388\desktop\todo\projects\1_ngb\1_firmware\ngb_low_power_consumption_v3\source\interrupt_5542.c"
 364  0040  1836        	rla [54]
 364  0041  0E01        	and a,1
"File: interrupt_5542.c  Assembler  Version HGASM0202      Page 14

 364  0042  0080     E  	mov rb,a
 363  0043              #line 363 "c:\users\h469388\desktop\todo\projects\1_ngb\1_firmware\ngb_low_power_consumption_v3\source\interrupt_5542.c"
 363  0043  1836        	rla [54]
 363  0044  0E01        	and a,1
 363  0045  0080     E  	mov ra,a
 364  0046              #line 364 "c:\users\h469388\desktop\todo\projects\1_ngb\1_firmware\ngb_low_power_consumption_v3\source\interrupt_5542.c"
 364  0046  0700     E  	mov a,ra
 364  0047  0380     E  	addm a,rb
 365  0048              #line 365 "c:\users\h469388\desktop\todo\projects\1_ngb\1_firmware\ngb_low_power_consumption_v3\source\interrupt_5542.c"
 365  0048  1836        	rla [54]
 365  0049  0E01        	and a,1
 365  004A  0080     E  	mov ra,a
 365  004B  0700     E  	mov a,ra
 365  004C  0380     E  	addm a,rb
 366  004D              #line 366 "c:\users\h469388\desktop\todo\projects\1_ngb\1_firmware\ngb_low_power_consumption_v3\source\interrupt_5542.c"
 366  004D  1836        	rla [54]
 366  004E  0E01        	and a,1
 366  004F  0080     E  	mov ra,a
 366  0050  0700     E  	mov a,ra
 366  0051  0380     E  	addm a,rb
 367  0052              #line 367 "c:\users\h469388\desktop\todo\projects\1_ngb\1_firmware\ngb_low_power_consumption_v3\source\interrupt_5542.c"
 367  0052  1836        	rla [54]
 367  0053  0E01        	and a,1
 367  0054  0080     E  	mov ra,a
 367  0055  0700     E  	mov a,ra
 367  0056  0380     E  	addm a,rb
 368  0057              #line 368 "c:\users\h469388\desktop\todo\projects\1_ngb\1_firmware\ngb_low_power_consumption_v3\source\interrupt_5542.c"
 368  0057  1836        	rla [54]
 368  0058  0E01        	and a,1
 368  0059  0080     E  	mov ra,a
 368  005A  0700     E  	mov a,rb
 368  005B  0300     E  	add a,ra
 368  005C  0080     R  	mov _PTMCOMP_A_2[0],a
 370  005D              #line 370 "c:\users\h469388\desktop\todo\projects\1_ngb\1_firmware\ngb_low_power_consumption_v3\source\interrupt_5542.c"
 370  005D  0F03        	mov a,3
 370  005E  0200     R  	sub a,_PTMCOMP_A_2[0]
 370  005F  3C0A        	sz c
 370  0060  2800     R  	jmp _L47
 370  0061  1080     E  	sz _CommData[26]
 370  0062  2800     R  	jmp _L48
 372  0063              #line 372 "c:\users\h469388\desktop\todo\projects\1_ngb\1_firmware\ngb_low_power_consumption_v3\source\interrupt_5542.c"
 372  0063  2000     E  	call _PltOpaSwitchOff
 373  0064              #line 373 "c:\users\h469388\desktop\todo\projects\1_ngb\1_firmware\ngb_low_power_consumption_v3\source\interrupt_5542.c"
 373  0064  0F01        	mov a,1
 373  0065  0080     E  	mov _CommData[26],a
 376  0066              #line 376 "c:\users\h469388\desktop\todo\projects\1_ngb\1_firmware\ngb_low_power_consumption_v3\source\interrupt_5542.c"
 376  0066  0700     E  	mov a,_CommData[5]
 376  0067  0080     E  	mov ra,a
 376  0068  0F63        	mov a,99
 376  0069  0200     E  	sub a,ra
 376  006A  380A        	snz c
 376  006B  2800     R  	jmp _L49
 378  006C              #line 378 "c:\users\h469388\desktop\todo\projects\1_ngb\1_firmware\ngb_low_power_consumption_v3\source\interrupt_5542.c"
 378  006C  1400     E  	inca ra
 378  006D  0080     E  	mov _CommData[5],a
 378  006E              _L49:
 380  006E              #line 380 "c:\users\h469388\desktop\todo\projects\1_ngb\1_firmware\ngb_low_power_consumption_v3\source\interrupt_5542.c"
 380  006E  2000     E  	call _CommProtocol
 382  006F              #line 382 "c:\users\h469388\desktop\todo\projects\1_ngb\1_firmware\ngb_low_power_consumption_v3\source\interrupt_5542.c"
 382  006F  0700     R  	mov a,_CLIPDLIPFlag[0]
"File: interrupt_5542.c  Assembler  Version HGASM0202      Page 15

 382  0070  0A04        	sub a,4
 382  0071  390A        	snz z
 382  0072  2800     R  	jmp _L50
 384  0073              #line 384 "c:\users\h469388\desktop\todo\projects\1_ngb\1_firmware\ngb_low_power_consumption_v3\source\interrupt_5542.c"
 384  0073  3790        	clr [16].7
 388  0074              #line 388 "c:\users\h469388\desktop\todo\projects\1_ngb\1_firmware\ngb_low_power_consumption_v3\source\interrupt_5542.c"
 388  0074  1F00     R  	clr _m_ptmPfunc[0]
 389  0075              #line 389 "c:\users\h469388\desktop\todo\projects\1_ngb\1_firmware\ngb_low_power_consumption_v3\source\interrupt_5542.c"
 389  0075  1F00     R  	clr _timeoutDurationFlag[0]
 390  0076              #line 390 "c:\users\h469388\desktop\todo\projects\1_ngb\1_firmware\ngb_low_power_consumption_v3\source\interrupt_5542.c"
 390  0076  1F00     R  	clr _CLIPDLIPFlag[0]
 393  0077              #line 393 "c:\users\h469388\desktop\todo\projects\1_ngb\1_firmware\ngb_low_power_consumption_v3\source\interrupt_5542.c"
 393  0077  0F30        	mov a,48
 393  0078  00A7        	mov [39],a
 394  0079              #line 394 "c:\users\h469388\desktop\todo\projects\1_ngb\1_firmware\ngb_low_power_consumption_v3\source\interrupt_5542.c"
 394  0079  0FC1        	mov a,193
 394  007A  00A8        	mov [40],a
 396  007B              #line 396 "c:\users\h469388\desktop\todo\projects\1_ngb\1_firmware\ngb_low_power_consumption_v3\source\interrupt_5542.c"
 396  007B  0F64        	mov a,100
 396  007C  00AB        	mov [43],a
 397  007D              #line 397 "c:\users\h469388\desktop\todo\projects\1_ngb\1_firmware\ngb_low_power_consumption_v3\source\interrupt_5542.c"
 397  007D  1F2C        	clr [44]
 399  007E              #line 399 "c:\users\h469388\desktop\todo\projects\1_ngb\1_firmware\ngb_low_power_consumption_v3\source\interrupt_5542.c"
 399  007E  35D2        	clr [82].3
 400  007F              #line 400 "c:\users\h469388\desktop\todo\projects\1_ngb\1_firmware\ngb_low_power_consumption_v3\source\interrupt_5542.c"
 400  007F  37CA        	clr [74].7
 401  0080              #line 401 "c:\users\h469388\desktop\todo\projects\1_ngb\1_firmware\ngb_low_power_consumption_v3\source\interrupt_5542.c"
 401  0080  31CA        	set [74].3
 402  0081              #line 402 "c:\users\h469388\desktop\todo\projects\1_ngb\1_firmware\ngb_low_power_consumption_v3\source\interrupt_5542.c"
 402  0081  3648        	clr [72].4
 403  0082              #line 403 "c:\users\h469388\desktop\todo\projects\1_ngb\1_firmware\ngb_low_power_consumption_v3\source\interrupt_5542.c"
 403  0082  30C8        	set [72].1
 408  0083              #line 408 "c:\users\h469388\desktop\todo\projects\1_ngb\1_firmware\ngb_low_power_consumption_v3\source\interrupt_5542.c"
 408  0083  0F03        	mov a,3
 408  0084  0092        	mov [18],a
 409  0085              #line 409 "c:\users\h469388\desktop\todo\projects\1_ngb\1_firmware\ngb_low_power_consumption_v3\source\interrupt_5542.c"
 409  0085  3400     E  	clr _SysData[0].0
 412  0086              #line 412 "c:\users\h469388\desktop\todo\projects\1_ngb\1_firmware\ngb_low_power_consumption_v3\source\interrupt_5542.c"
 412  0086  2800     R  	jmp _L42
 412  0087              _L50:
 415  0087              #line 415 "c:\users\h469388\desktop\todo\projects\1_ngb\1_firmware\ngb_low_power_consumption_v3\source\interrupt_5542.c"
 415  0087  3800     E  	snz _CommData[7].7
 415  0088  2800     R  	jmp _L52
 418  0089              #line 418 "c:\users\h469388\desktop\todo\projects\1_ngb\1_firmware\ngb_low_power_consumption_v3\source\interrupt_5542.c"
 418  0089  1F35        	clr [53]
 419  008A              #line 419 "c:\users\h469388\desktop\todo\projects\1_ngb\1_firmware\ngb_low_power_consumption_v3\source\interrupt_5542.c"
 419  008A  3132        	set [50].2
 420  008B              #line 420 "c:\users\h469388\desktop\todo\projects\1_ngb\1_firmware\ngb_low_power_consumption_v3\source\interrupt_5542.c"
 420  008B  333B        	set [59].6
 420  008C              _L52:
 423  008C              #line 423 "c:\users\h469388\desktop\todo\projects\1_ngb\1_firmware\ngb_low_power_consumption_v3\source\interrupt_5542.c"
 423  008C  1F00     R  	clr _m_ptmPfunc[0]
 424  008D              #line 424 "c:\users\h469388\desktop\todo\projects\1_ngb\1_firmware\ngb_low_power_consumption_v3\source\interrupt_5542.c"
 424  008D  0FFA        	mov a,250
 424  008E  00DB        	mov [91],a
 425  008F              #line 425 "c:\users\h469388\desktop\todo\projects\1_ngb\1_firmware\ngb_low_power_consumption_v3\source\interrupt_5542.c"
 425  008F  1F5C        	clr [92]
 426  0090              #line 426 "c:\users\h469388\desktop\todo\projects\1_ngb\1_firmware\ngb_low_power_consumption_v3\source\interrupt_5542.c"
 426  0090  1F00     E  	clr _timeLoopCounter[0]
 427  0091              #line 427 "c:\users\h469388\desktop\todo\projects\1_ngb\1_firmware\ngb_low_power_consumption_v3\source\interrupt_5542.c"
"File: interrupt_5542.c  Assembler  Version HGASM0202      Page 16

 427  0091  35D2        	clr [82].3
 428  0092              #line 428 "c:\users\h469388\desktop\todo\projects\1_ngb\1_firmware\ngb_low_power_consumption_v3\source\interrupt_5542.c"
 428  0092  31D2        	set [82].3
 430  0093              #line 430 "c:\users\h469388\desktop\todo\projects\1_ngb\1_firmware\ngb_low_power_consumption_v3\source\interrupt_5542.c"
 430  0093  1F00     R  	clr _timeoutDurationFlag[0]
 430  0094  2800     R  	jmp _L53
 430  0095              _L47:
 432  0095              #line 432 "c:\users\h469388\desktop\todo\projects\1_ngb\1_firmware\ngb_low_power_consumption_v3\source\interrupt_5542.c"
 432  0095  0F01        	mov a,1
 432  0096  0200     R  	sub a,_PTMCOMP_A_2[0]
 432  0097  380A        	snz c
 432  0098  2800     R  	jmp _L48
 432  0099  1700     E  	sdza _CommData[26]
 432  009A  2800     R  	jmp _L48
 434  009B              #line 434 "c:\users\h469388\desktop\todo\projects\1_ngb\1_firmware\ngb_low_power_consumption_v3\source\interrupt_5542.c"
 434  009B  0F01        	mov a,1
 434  009C  0080     R  	mov _timeoutDurationFlag[0],a
 436  009D              #line 436 "c:\users\h469388\desktop\todo\projects\1_ngb\1_firmware\ngb_low_power_consumption_v3\source\interrupt_5542.c"
 436  009D  0700     E  	mov a,_CommData[6]
 436  009E  0080     E  	mov rb,a
 436  009F  0700     E  	mov a,_CommData[7]
 436  00A0  0080     E  	mov rc,a
 436  00A1  0700     E  	mov a,rb
 436  00A2  0500     E  	or a,rc
 436  00A3  390A        	snz z
 436  00A4  2800     R  	jmp _L54
 438  00A5              #line 438 "c:\users\h469388\desktop\todo\projects\1_ngb\1_firmware\ngb_low_power_consumption_v3\source\interrupt_5542.c"
 438  00A5  0FF4        	mov a,244
 438  00A6  00DB        	mov [91],a
 439  00A7              #line 439 "c:\users\h469388\desktop\todo\projects\1_ngb\1_firmware\ngb_low_power_consumption_v3\source\interrupt_5542.c"
 439  00A7  0F01        	mov a,1
 439  00A8  00DC        	mov [92],a
 440  00A9              #line 440 "c:\users\h469388\desktop\todo\projects\1_ngb\1_firmware\ngb_low_power_consumption_v3\source\interrupt_5542.c"
 440  00A9  1F00     E  	clr _timeLoopCounter[0]
 441  00AA              #line 441 "c:\users\h469388\desktop\todo\projects\1_ngb\1_firmware\ngb_low_power_consumption_v3\source\interrupt_5542.c"
 441  00AA  35D2        	clr [82].3
 442  00AB              #line 442 "c:\users\h469388\desktop\todo\projects\1_ngb\1_firmware\ngb_low_power_consumption_v3\source\interrupt_5542.c"
 442  00AB  31D2        	set [82].3
 443  00AC              #line 443 "c:\users\h469388\desktop\todo\projects\1_ngb\1_firmware\ngb_low_power_consumption_v3\source\interrupt_5542.c"
 443  00AC  0F02        	mov a,2
 443  00AD  0080     R  	mov _m_ptmPfunc[0],a
 443  00AE              _L54:
 447  00AE              #line 447 "c:\users\h469388\desktop\todo\projects\1_ngb\1_firmware\ngb_low_power_consumption_v3\source\interrupt_5542.c"
 447  00AE  1080     E  	sz _CommData[0]
 447  00AF  2800     R  	jmp _L55
 449  00B0              #line 449 "c:\users\h469388\desktop\todo\projects\1_ngb\1_firmware\ngb_low_power_consumption_v3\source\interrupt_5542.c"
 449  00B0  0F01        	mov a,1
 449  00B1  0080     E  	mov _CommData[0],a
 449  00B2              _L55:
 456  00B2              #line 456 "c:\users\h469388\desktop\todo\projects\1_ngb\1_firmware\ngb_low_power_consumption_v3\source\interrupt_5542.c"
 456  00B2  1836        	rla [54]
 456  00B3  0E01        	and a,1
 456  00B4  0080     E  	mov rf,a
 459  00B5              #line 459 "c:\users\h469388\desktop\todo\projects\1_ngb\1_firmware\ngb_low_power_consumption_v3\source\interrupt_5542.c"
 459  00B5  1836        	rla [54]
 459  00B6  0E01        	and a,1
 459  00B7  0080     E  	mov rg,a
 462  00B8              #line 462 "c:\users\h469388\desktop\todo\projects\1_ngb\1_firmware\ngb_low_power_consumption_v3\source\interrupt_5542.c"
 462  00B8  1836        	rla [54]
 462  00B9  0E01        	and a,1
"File: interrupt_5542.c  Assembler  Version HGASM0202      Page 17

 462  00BA  0080     E  	mov re,a
 465  00BB              #line 465 "c:\users\h469388\desktop\todo\projects\1_ngb\1_firmware\ngb_low_power_consumption_v3\source\interrupt_5542.c"
 465  00BB  1836        	rla [54]
 465  00BC  0E01        	and a,1
 465  00BD  0080     E  	mov rd,a
 458  00BE              #line 458 "c:\users\h469388\desktop\todo\projects\1_ngb\1_firmware\ngb_low_power_consumption_v3\source\interrupt_5542.c"
 458  00BE  1838        	rla [56]
 458  00BF  0E01        	and a,1
 458  00C0  0080     E  	mov rh,a
 455  00C1              #line 455 "c:\users\h469388\desktop\todo\projects\1_ngb\1_firmware\ngb_low_power_consumption_v3\source\interrupt_5542.c"
 455  00C1  1838        	rla [56]
 455  00C2  0E01        	and a,1
 455  00C3  0080     E  	mov ra,a
 458  00C4              #line 458 "c:\users\h469388\desktop\todo\projects\1_ngb\1_firmware\ngb_low_power_consumption_v3\source\interrupt_5542.c"
 458  00C4  0700     E  	mov a,rh
 458  00C5  0380     E  	addm a,ra
 461  00C6              #line 461 "c:\users\h469388\desktop\todo\projects\1_ngb\1_firmware\ngb_low_power_consumption_v3\source\interrupt_5542.c"
 461  00C6  1838        	rla [56]
 461  00C7  0E01        	and a,1
 461  00C8  0080     E  	mov rh,a
 461  00C9  0700     E  	mov a,rh
 461  00CA  0380     E  	addm a,ra
 464  00CB              #line 464 "c:\users\h469388\desktop\todo\projects\1_ngb\1_firmware\ngb_low_power_consumption_v3\source\interrupt_5542.c"
 464  00CB  1838        	rla [56]
 464  00CC  0E01        	and a,1
 464  00CD  0080     E  	mov rh,a
 464  00CE  0700     E  	mov a,rh
 464  00CF  0380     E  	addm a,ra
 467  00D0              #line 467 "c:\users\h469388\desktop\todo\projects\1_ngb\1_firmware\ngb_low_power_consumption_v3\source\interrupt_5542.c"
 467  00D0  1838        	rla [56]
 467  00D1  0E01        	and a,1
 467  00D2  0080     E  	mov rh,a
 467  00D3  0700     E  	mov a,rh
 467  00D4  0380     E  	addm a,ra
 467  00D5  0700     E  	mov a,ra
 467  00D6  0080     R  	mov _sucTmpDin[0],a
 468  00D7              #line 468 "c:\users\h469388\desktop\todo\projects\1_ngb\1_firmware\ngb_low_power_consumption_v3\source\interrupt_5542.c"
 468  00D7  1836        	rla [54]
 468  00D8  0E01        	and a,1
 468  00D9  0080     R  	mov _PTMCOMP_A_2[1],a
 470  00DA              #line 470 "c:\users\h469388\desktop\todo\projects\1_ngb\1_firmware\ngb_low_power_consumption_v3\source\interrupt_5542.c"
 470  00DA  0700     R  	mov a,_PW4ErrorFlag[0]
 470  00DB  0A02        	sub a,2
 470  00DC  390A        	snz z
 470  00DD  2800     R  	jmp _L56
 472  00DE              #line 472 "c:\users\h469388\desktop\todo\projects\1_ngb\1_firmware\ngb_low_power_consumption_v3\source\interrupt_5542.c"
 472  00DE  1F35        	clr [53]
 473  00DF              #line 473 "c:\users\h469388\desktop\todo\projects\1_ngb\1_firmware\ngb_low_power_consumption_v3\source\interrupt_5542.c"
 473  00DF  3431        	clr [49].0
 474  00E0              #line 474 "c:\users\h469388\desktop\todo\projects\1_ngb\1_firmware\ngb_low_power_consumption_v3\source\interrupt_5542.c"
 474  00E0  3532        	clr [50].2
 475  00E1              #line 475 "c:\users\h469388\desktop\todo\projects\1_ngb\1_firmware\ngb_low_power_consumption_v3\source\interrupt_5542.c"
 475  00E1  373B        	clr [59].6
 476  00E2              #line 476 "c:\users\h469388\desktop\todo\projects\1_ngb\1_firmware\ngb_low_power_consumption_v3\source\interrupt_5542.c"
 476  00E2  1F00     R  	clr _PW4ErrorFlag[0]
 476  00E3              _L56:
 479  00E3              #line 479 "c:\users\h469388\desktop\todo\projects\1_ngb\1_firmware\ngb_low_power_consumption_v3\source\interrupt_5542.c"
 479  00E3  1838        	rla [56]
 479  00E4  0E01        	and a,1
 479  00E5  0080     E  	mov rh,a
"File: interrupt_5542.c  Assembler  Version HGASM0202      Page 18

 479  00E6  0700     E  	mov a,rh
 479  00E7  0380     E  	addm a,ra
 479  00E8  0700     E  	mov a,ra
 479  00E9  0080     R  	mov _sucTmpDin[0],a
 456  00EA              #line 456 "c:\users\h469388\desktop\todo\projects\1_ngb\1_firmware\ngb_low_power_consumption_v3\source\interrupt_5542.c"
 456  00EA  0700     E  	mov a,rg
 456  00EB  0380     E  	addm a,rf
 459  00EC              #line 459 "c:\users\h469388\desktop\todo\projects\1_ngb\1_firmware\ngb_low_power_consumption_v3\source\interrupt_5542.c"
 459  00EC  0700     E  	mov a,rf
 459  00ED  0380     E  	addm a,re
 462  00EE              #line 462 "c:\users\h469388\desktop\todo\projects\1_ngb\1_firmware\ngb_low_power_consumption_v3\source\interrupt_5542.c"
 462  00EE  0700     E  	mov a,re
 462  00EF  0380     E  	addm a,rd
 465  00F0              #line 465 "c:\users\h469388\desktop\todo\projects\1_ngb\1_firmware\ngb_low_power_consumption_v3\source\interrupt_5542.c"
 465  00F0  0700     R  	mov a,_PTMCOMP_A_2[1]
 465  00F1  0380     E  	addm a,rd
 480  00F2              #line 480 "c:\users\h469388\desktop\todo\projects\1_ngb\1_firmware\ngb_low_power_consumption_v3\source\interrupt_5542.c"
 480  00F2  1836        	rla [54]
 480  00F3  0E01        	and a,1
 480  00F4  0080     E  	mov rh,a
 468  00F5              #line 468 "c:\users\h469388\desktop\todo\projects\1_ngb\1_firmware\ngb_low_power_consumption_v3\source\interrupt_5542.c"
 468  00F5  0700     E  	mov a,rh
 468  00F6  0380     E  	addm a,rd
 480  00F7              #line 480 "c:\users\h469388\desktop\todo\projects\1_ngb\1_firmware\ngb_low_power_consumption_v3\source\interrupt_5542.c"
 480  00F7  0700     R  	mov a,_PTMCOMP_A_2[0]
 480  00F8  0380     E  	addm a,rd
 485  00F9              #line 485 "c:\users\h469388\desktop\todo\projects\1_ngb\1_firmware\ngb_low_power_consumption_v3\source\interrupt_5542.c"
 485  00F9  0F03        	mov a,3
 485  00FA  0200     E  	sub a,rd
 485  00FB  380A        	snz c
 485  00FC  2800     R  	jmp _L57
 488  00FD              #line 488 "c:\users\h469388\desktop\todo\projects\1_ngb\1_firmware\ngb_low_power_consumption_v3\source\interrupt_5542.c"
 488  00FD  0F01        	mov a,1
 488  00FE  0080     E  	mov rf,a
 488  00FF  0F03        	mov a,3
 488  0100  0200     E  	sub a,ra
 488  0101  380A        	snz c
 488  0102  2800     R  	jmp _L58
 488  0103  1F00     E  	clr rf
 488  0104              _L58:
 488  0104  0700     E  	mov a,rf
 488  0105  0080     R  	mov _sucTmpDin[0],a
 491  0106              #line 491 "c:\users\h469388\desktop\todo\projects\1_ngb\1_firmware\ngb_low_power_consumption_v3\source\interrupt_5542.c"
 491  0106  340A        	clr c
 491  0107  1A00     E  	rlca _CommData[8]
 491  0108  0080     E  	mov rd,a
 491  0109  1A00     E  	rlca _CommData[9]
 491  010A  0080     E  	mov re,a
 492  010B              #line 492 "c:\users\h469388\desktop\todo\projects\1_ngb\1_firmware\ngb_low_power_consumption_v3\source\interrupt_5542.c"
 492  010B  0700     E  	mov a,re
 492  010C  0080     E  	mov _CommData[9],a
 492  010D  0700     E  	mov a,rf
 492  010E  0500     E  	or a,rd
 492  010F  0080     E  	mov _CommData[8],a
 493  0110              #line 493 "c:\users\h469388\desktop\todo\projects\1_ngb\1_firmware\ngb_low_power_consumption_v3\source\interrupt_5542.c"
 493  0110  0700     E  	mov a,rf
 493  0111  0380     E  	addm a,_CommData[15]
 495  0112              #line 495 "c:\users\h469388\desktop\todo\projects\1_ngb\1_firmware\ngb_low_power_consumption_v3\source\interrupt_5542.c"
 495  0112  340A        	clr c
 495  0113  1A00     E  	rlca rb
"File: interrupt_5542.c  Assembler  Version HGASM0202      Page 19

 495  0114  0080     E  	mov _CommData[6],a
 495  0115  1A00     E  	rlca rc
 495  0116  0080     E  	mov _CommData[7],a
 496  0117              #line 496 "c:\users\h469388\desktop\todo\projects\1_ngb\1_firmware\ngb_low_power_consumption_v3\source\interrupt_5542.c"
 496  0117  1F00     E  	clr _CommData[26]
 496  0118  2800     R  	jmp _L59
 496  0119              _L57:
 502  0119              #line 502 "c:\users\h469388\desktop\todo\projects\1_ngb\1_firmware\ngb_low_power_consumption_v3\source\interrupt_5542.c"
 502  0119  2000     E  	call _PltOpaSwitchOff
 504  011A              #line 504 "c:\users\h469388\desktop\todo\projects\1_ngb\1_firmware\ngb_low_power_consumption_v3\source\interrupt_5542.c"
 504  011A  0F09        	mov a,9
 504  011B  0080     E  	mov _CommData[0],a
 505  011C              #line 505 "c:\users\h469388\desktop\todo\projects\1_ngb\1_firmware\ngb_low_power_consumption_v3\source\interrupt_5542.c"
 505  011C  1F00     E  	clr _CommData[6]
 505  011D  1F00     E  	clr _CommData[7]
 506  011E              #line 506 "c:\users\h469388\desktop\todo\projects\1_ngb\1_firmware\ngb_low_power_consumption_v3\source\interrupt_5542.c"
 506  011E  1F00     E  	clr _CommData[8]
 506  011F  1F00     E  	clr _CommData[9]
 507  0120              #line 507 "c:\users\h469388\desktop\todo\projects\1_ngb\1_firmware\ngb_low_power_consumption_v3\source\interrupt_5542.c"
 507  0120  1F00     E  	clr _CommData[5]
 507  0121              _L59:
 511  0121              #line 511 "c:\users\h469388\desktop\todo\projects\1_ngb\1_firmware\ngb_low_power_consumption_v3\source\interrupt_5542.c"
 511  0121  0700     E  	mov a,_CommData[0]
 511  0122  0A06        	sub a,6
 511  0123  390A        	snz z
 511  0124  2800     R  	jmp _L53
 511  0125              _L48:
 513  0125              #line 513 "c:\users\h469388\desktop\todo\projects\1_ngb\1_firmware\ngb_low_power_consumption_v3\source\interrupt_5542.c"
 513  0125  2000     E  	call _PltOpaSwitchOff
 513  0126              _L53:
 522  0126              #line 522 "c:\users\h469388\desktop\todo\projects\1_ngb\1_firmware\ngb_low_power_consumption_v3\source\interrupt_5542.c"
 522  0126  3000     E  	set _SysData[0].0
 523  0127              #line 523 "c:\users\h469388\desktop\todo\projects\1_ngb\1_firmware\ngb_low_power_consumption_v3\source\interrupt_5542.c"
 523  0127  36CA        	clr [74].5
 523  0128              _L42:
 523  0128  0700     E  	mov a,r2
 523  0129  008A        	mov status,a
 523  012A  0700     E  	mov a,r3
 523  012B  0083        	mov mp,a
 523  012C  0700     E  	mov a,r4
 523  012D  0084        	mov sbp,a
 523  012E  0700     E  	mov a,r5
 523  012F  0087        	mov tblp,a
 523  0130  0700     E  	mov a,r6
 523  0131  0089        	mov tbhp,a
 523  0132  1D05        	tabrdc acc
 523  0133  0700     E  	mov a,r1
 523  0134  0004        	reti
 523  0135              _PTMCOMP_A endp
 523  0135              
 523  0135              #line 523 "c:\users\h469388\desktop\todo\projects\1_ngb\1_firmware\ngb_low_power_consumption_v3\source\interrupt_5542.c"
 523  0135              #pragma debug scope 1 1
 523  0135              public _STMCOMP_P
 523  0135              #pragma debug scope 14 1
 530  0135              #line 530 "c:\users\h469388\desktop\todo\projects\1_ngb\1_firmware\ngb_low_power_consumption_v3\source\interrupt_5542.c"
 530  0000              @STMCOMP_P_code .section at 40 'code'
 530  0000              _STMCOMP_P:
 530  0000              ifdef INTERRUPT_DELAY
 530  0000              	nop
 530  0000              endif
"File: interrupt_5542.c  Assembler  Version HGASM0202      Page 20

 530  0000  0004        	reti
 530  0001              #line 530 "c:\users\h469388\desktop\todo\projects\1_ngb\1_firmware\ngb_low_power_consumption_v3\source\interrupt_5542.c"
 530  0001              #pragma debug scope 1 1
 530  0001              public _STMCOMP_A
 530  0001              #pragma debug scope 15 1
 536  0001              #line 536 "c:\users\h469388\desktop\todo\projects\1_ngb\1_firmware\ngb_low_power_consumption_v3\source\interrupt_5542.c"
 536  0000              @STMCOMP_A_code .section at 44 'code'
 536  0000              ifdef INTERRUPT_DELAY
 536  0000              	nop
 536  0000              endif
 536  0000  0080     E  	mov r1,a
 536  0001  070A        	mov a,status
 536  0002              ifndef INTERRUPT_DELAY
 536  0002  0080     E  	mov r2,a
 536  0003              endif
 536  0003  2800     R  	jmp _STMCOMP_A
 536  0004              #pragma debug scope 1 1
 536  0004              @dummy44 endp
 536  0004              #pragma debug scope 16 1
 536  0000              _STMCOMP_A .section 'code'
 536  0000              _STMCOMP_A proc
 536  0000              ifdef INTERRUPT_DELAY
 536  0000              	mov r2,a
 536  0000              endif
 548  0000              #line 548 "c:\users\h469388\desktop\todo\projects\1_ngb\1_firmware\ngb_low_power_consumption_v3\source\interrupt_5542.c"
 548  0000  35A7        	clr [39].3
 549  0001              #line 549 "c:\users\h469388\desktop\todo\projects\1_ngb\1_firmware\ngb_low_power_consumption_v3\source\interrupt_5542.c"
 549  0001  31D2        	set [82].3
 551  0002              #line 551 "c:\users\h469388\desktop\todo\projects\1_ngb\1_firmware\ngb_low_power_consumption_v3\source\interrupt_5542.c"
 551  0002  1F00     E  	clr _CommData[0]
 552  0003              #line 552 "c:\users\h469388\desktop\todo\projects\1_ngb\1_firmware\ngb_low_power_consumption_v3\source\interrupt_5542.c"
 552  0003  1F00     E  	clr _CommData[6]
 552  0004  1F00     E  	clr _CommData[7]
 553  0005              #line 553 "c:\users\h469388\desktop\todo\projects\1_ngb\1_firmware\ngb_low_power_consumption_v3\source\interrupt_5542.c"
 553  0005  1F00     E  	clr _CommData[8]
 553  0006  1F00     E  	clr _CommData[9]
 554  0007              #line 554 "c:\users\h469388\desktop\todo\projects\1_ngb\1_firmware\ngb_low_power_consumption_v3\source\interrupt_5542.c"
 554  0007  1F00     E  	clr _CommData[5]
 555  0008              #line 555 "c:\users\h469388\desktop\todo\projects\1_ngb\1_firmware\ngb_low_power_consumption_v3\source\interrupt_5542.c"
 555  0008  1F00     E  	clr _CommData[18]
 555  0009  1F00     E  	clr _CommData[19]
 556  000A              #line 556 "c:\users\h469388\desktop\todo\projects\1_ngb\1_firmware\ngb_low_power_consumption_v3\source\interrupt_5542.c"
 556  000A  1F00     E  	clr _CommData[15]
 557  000B              #line 557 "c:\users\h469388\desktop\todo\projects\1_ngb\1_firmware\ngb_low_power_consumption_v3\source\interrupt_5542.c"
 557  000B  1F00     R  	clr _CLIPDLIPFlag[0]
 558  000C              #line 558 "c:\users\h469388\desktop\todo\projects\1_ngb\1_firmware\ngb_low_power_consumption_v3\source\interrupt_5542.c"
 558  000C  0F01        	mov a,1
 558  000D  0080     E  	mov _CommData[26],a
 559  000E              #line 559 "c:\users\h469388\desktop\todo\projects\1_ngb\1_firmware\ngb_low_power_consumption_v3\source\interrupt_5542.c"
 559  000E  33D2        	set [82].7
 560  000F              #line 560 "c:\users\h469388\desktop\todo\projects\1_ngb\1_firmware\ngb_low_power_consumption_v3\source\interrupt_5542.c"
 560  000F  1F00     R  	clr _timeoutDurationFlag[0]
 562  0010              #line 562 "c:\users\h469388\desktop\todo\projects\1_ngb\1_firmware\ngb_low_power_consumption_v3\source\interrupt_5542.c"
 562  0010  34C8        	clr [72].1
 563  0011              #line 563 "c:\users\h469388\desktop\todo\projects\1_ngb\1_firmware\ngb_low_power_consumption_v3\source\interrupt_5542.c"
 563  0011  1F00     E  	clr _FuncData[3]
 565  0012              #line 565 "c:\users\h469388\desktop\todo\projects\1_ngb\1_firmware\ngb_low_power_consumption_v3\source\interrupt_5542.c"
 565  0012  3390        	set [16].7
 567  0013              #line 567 "c:\users\h469388\desktop\todo\projects\1_ngb\1_firmware\ngb_low_power_consumption_v3\source\interrupt_5542.c"
 567  0013  363A        	clr [58].4
"File: interrupt_5542.c  Assembler  Version HGASM0202      Page 21

 576  0014              #line 576 "c:\users\h469388\desktop\todo\projects\1_ngb\1_firmware\ngb_low_power_consumption_v3\source\interrupt_5542.c"
 576  0014  37CA        	clr [74].7
 577  0015              #line 577 "c:\users\h469388\desktop\todo\projects\1_ngb\1_firmware\ngb_low_power_consumption_v3\source\interrupt_5542.c"
 577  0015  0F01        	mov a,1
 577  0016  0092        	mov [18],a
 578  0017              #line 578 "c:\users\h469388\desktop\todo\projects\1_ngb\1_firmware\ngb_low_power_consumption_v3\source\interrupt_5542.c"
 578  0017  3400     E  	clr _SysData[0].0
 578  0018  0700     E  	mov a,r2
 578  0019  008A        	mov status,a
 578  001A  0700     E  	mov a,r1
 578  001B  0004        	reti
 578  001C              _STMCOMP_A endp
 578  001C              
 578  001C              #line 578 "c:\users\h469388\desktop\todo\projects\1_ngb\1_firmware\ngb_low_power_consumption_v3\source\interrupt_5542.c"
 578  001C              #pragma debug scope 1 1
 578  001C              ___intc3 equ [75]
 578  001C              public _TIMEBASE0
 578  001C              #pragma debug scope 17 1
 584  001C              #line 584 "c:\users\h469388\desktop\todo\projects\1_ngb\1_firmware\ngb_low_power_consumption_v3\source\interrupt_5542.c"
 584  0000              @TIMEBASE0_code .section at 48 'code'
 584  0000              ifdef INTERRUPT_DELAY
 584  0000              	nop
 584  0000              endif
 584  0000  0080     E  	mov r1,a
 584  0001  070A        	mov a,status
 584  0002              ifndef INTERRUPT_DELAY
 584  0002  0080     E  	mov r2,a
 584  0003              endif
 584  0003  2800     R  	jmp _TIMEBASE0
 584  0004              #pragma debug scope 1 1
 584  0004              @dummy48 endp
 584  0004              #pragma debug scope 18 1
 584  0000              _TIMEBASE0 .section 'code'
 584  0000              _TIMEBASE0 proc
 584  0000              ifdef INTERRUPT_DELAY
 584  0000              	mov r2,a
 584  0000              endif
 589  0000              #line 589 "c:\users\h469388\desktop\todo\projects\1_ngb\1_firmware\ngb_low_power_consumption_v3\source\interrupt_5542.c"
 589  0000  3048        	set [72].0
 593  0001              #line 593 "c:\users\h469388\desktop\todo\projects\1_ngb\1_firmware\ngb_low_power_consumption_v3\source\interrupt_5542.c"
 593  0001  0700     E  	mov a,_FuncData[0]
 593  0002  0080     E  	mov ra,a
 593  0003  1E00     E  	snz ra
 593  0004  2800     R  	jmp _L63
 595  0005              #line 595 "c:\users\h469388\desktop\todo\projects\1_ngb\1_firmware\ngb_low_power_consumption_v3\source\interrupt_5542.c"
 595  0005  1500     E  	deca ra
 595  0006  0080     E  	mov _FuncData[0],a
 595  0007              _L63:
 602  0007              #line 602 "c:\users\h469388\desktop\todo\projects\1_ngb\1_firmware\ngb_low_power_consumption_v3\source\interrupt_5542.c"
 602  0007  0700     E  	mov a,_SdkeePotData[7]
 602  0008  0080     E  	mov ra,a
 602  0009  1E00     E  	snz ra
 602  000A  2800     R  	jmp _L64
 604  000B              #line 604 "c:\users\h469388\desktop\todo\projects\1_ngb\1_firmware\ngb_low_power_consumption_v3\source\interrupt_5542.c"
 604  000B  1500     E  	deca ra
 604  000C  0080     E  	mov _SdkeePotData[7],a
 604  000D              _L64:
 611  000D              #line 611 "c:\users\h469388\desktop\todo\projects\1_ngb\1_firmware\ngb_low_power_consumption_v3\source\interrupt_5542.c"
 611  000D  0700     E  	mov a,_FuncData[49]
 611  000E  0080     E  	mov ra,a
"File: interrupt_5542.c  Assembler  Version HGASM0202      Page 22

 611  000F  1E00     E  	snz ra
 611  0010  2800     R  	jmp _L65
 613  0011              #line 613 "c:\users\h469388\desktop\todo\projects\1_ngb\1_firmware\ngb_low_power_consumption_v3\source\interrupt_5542.c"
 613  0011  1500     E  	deca ra
 613  0012  0080     E  	mov _FuncData[49],a
 613  0013              _L65:
 619  0013              #line 619 "c:\users\h469388\desktop\todo\projects\1_ngb\1_firmware\ngb_low_power_consumption_v3\source\interrupt_5542.c"
 619  0013  0700     E  	mov a,_FuncData[1]
 619  0014  0080     E  	mov ra,a
 619  0015  1E00     E  	snz ra
 619  0016  2800     R  	jmp _L66
 621  0017              #line 621 "c:\users\h469388\desktop\todo\projects\1_ngb\1_firmware\ngb_low_power_consumption_v3\source\interrupt_5542.c"
 621  0017  1500     E  	deca ra
 621  0018  0080     E  	mov _FuncData[1],a
 621  0019              _L66:
 626  0019              #line 626 "c:\users\h469388\desktop\todo\projects\1_ngb\1_firmware\ngb_low_power_consumption_v3\source\interrupt_5542.c"
 626  0019  3000     E  	set _SysData[0].7
 628  001A              #line 628 "c:\users\h469388\desktop\todo\projects\1_ngb\1_firmware\ngb_low_power_consumption_v3\source\interrupt_5542.c"
 628  001A  364B        	clr [75].4
 628  001B  0700     E  	mov a,r2
 628  001C  008A        	mov status,a
 628  001D  0700     E  	mov a,r1
 628  001E  0004        	reti
 628  001F              _TIMEBASE0 endp
 628  001F              
 628  001F              #line 628 "c:\users\h469388\desktop\todo\projects\1_ngb\1_firmware\ngb_low_power_consumption_v3\source\interrupt_5542.c"
 628  001F              #pragma debug scope 1 1
 628  001F              public _TIMEBASE1
 628  001F              #pragma debug scope 19 1
 635  001F              #line 635 "c:\users\h469388\desktop\todo\projects\1_ngb\1_firmware\ngb_low_power_consumption_v3\source\interrupt_5542.c"
 635  0000              @TIMEBASE1_code .section at 52 'code'
 635  0000              _TIMEBASE1:
 635  0000              ifdef INTERRUPT_DELAY
 635  0000              	nop
 635  0000              endif
 635  0000  0004        	reti
 635  0001              #line 635 "c:\users\h469388\desktop\todo\projects\1_ngb\1_firmware\ngb_low_power_consumption_v3\source\interrupt_5542.c"
 635  0001              #pragma debug scope 1 1
 635  0001              public _PLTCMP1
 635  0001              #pragma debug scope 20 1
 641  0001              #line 641 "c:\users\h469388\desktop\todo\projects\1_ngb\1_firmware\ngb_low_power_consumption_v3\source\interrupt_5542.c"
 641  0000              @PLTCMP1_code .section at 56 'code'
 641  0000              _PLTCMP1:
 641  0000              ifdef INTERRUPT_DELAY
 641  0000              	nop
 641  0000              endif
 641  0000  0004        	reti
 641  0001              #line 641 "c:\users\h469388\desktop\todo\projects\1_ngb\1_firmware\ngb_low_power_consumption_v3\source\interrupt_5542.c"
 641  0001              #pragma debug scope 1 1
 641  0001              public _resetInd
 641  0000              @HCCINIT	.section 'data'
  25  0000              #line 25 "c:\users\h469388\desktop\todo\projects\1_ngb\1_firmware\ngb_low_power_consumption_v3\source\interrupt_5542.c"
  25  0000              @HCCINIT_resetInd .section 'data'
  25  0000              _resetInd label byte
  25  0000              #pragma debug variable 8 1 _resetInd "resetInd"
  25  0000              	db 0
  25  0000              @ROMDATA_BASE .section inpage 'code'
  25  0000              	db 0
  25  0001              @HCCINIT_resetInd .section 'data'
  25  0001              public _PW4ErrorFlag
"File: interrupt_5542.c  Assembler  Version HGASM0202      Page 23

  18  0001              #line 18 "c:\users\h469388\desktop\todo\projects\1_ngb\1_firmware\ngb_low_power_consumption_v3\source\interrupt_5542.c"
  18  0000              @HCCINIT_PW4ErrorFlag .section 'data'
  18  0000              _PW4ErrorFlag label byte
  18  0000              #pragma debug variable 8 1 _PW4ErrorFlag "PW4ErrorFlag"
  18  0000              	db 0
  18  0001              @ROMDATA_BASE .section inpage 'code'
  18  0001              	db 0
  18  0001              @HCCINIT_PW4ErrorFlag .section 'data'
  18  0001              public _CLIPDLIPFlag
  17  0001              #line 17 "c:\users\h469388\desktop\todo\projects\1_ngb\1_firmware\ngb_low_power_consumption_v3\source\interrupt_5542.c"
  17  0000              @HCCINIT_CLIPDLIPFlag .section 'data'
  17  0000              _CLIPDLIPFlag label byte
  17  0000              #pragma debug variable 8 1 _CLIPDLIPFlag "CLIPDLIPFlag"
  17  0000              	db 0
  17  0001              @ROMDATA_BASE .section inpage 'code'
  17  0001              	db 0
  17  0001              @HCCINIT_CLIPDLIPFlag .section 'data'
  17  0001              public _timeoutDurationFlag
  16  0001              #line 16 "c:\users\h469388\desktop\todo\projects\1_ngb\1_firmware\ngb_low_power_consumption_v3\source\interrupt_5542.c"
  16  0000              @HCCINIT_timeoutDurationFlag .section 'data'
  16  0000              _timeoutDurationFlag label byte
  16  0000              #pragma debug variable 8 1 _timeoutDurationFlag "timeoutDurationFlag"
  16  0000              	db 0
  16  0002              @ROMDATA_BASE .section inpage 'code'
  16  0002              	db 0
  16  0001              @HCCINIT_timeoutDurationFlag .section 'data'
  16  0001              public _m_ptmPfunc
  15  0001              #line 15 "c:\users\h469388\desktop\todo\projects\1_ngb\1_firmware\ngb_low_power_consumption_v3\source\interrupt_5542.c"
  15  0000              @HCCINIT_m_ptmPfunc .section 'data'
  15  0000              _m_ptmPfunc label byte
  15  0000              #pragma debug variable 8 1 _m_ptmPfunc "m_ptmPfunc"
  15  0000              	db 0
  15  0002              @ROMDATA_BASE .section inpage 'code'
  15  0002              	db 0
  15  0001              @HCCINIT_m_ptmPfunc .section 'data'
  14  0001              #line 14 "c:\users\h469388\desktop\todo\projects\1_ngb\1_firmware\ngb_low_power_consumption_v3\source\interrupt_5542.c"
  14  0000              @HCCINIT_sucTmpDin .section 'data'
  14  0000              _sucTmpDin label byte
  14  0000              #pragma debug variable 8 1 _sucTmpDin "sucTmpDin"
  14  0000              	db 0
  14  0003              @ROMDATA_BASE .section inpage 'code'
  14  0003              	db 0
  14  0001              @HCCINIT_sucTmpDin .section 'data'
  14  0001              #pragma debug struct_end
  14  0001              #pragma debug struct_end
  14  0001              #pragma debug union_end
  14  0001              #pragma debug union_end
  14  0001              #pragma debug variable 43 1 ___tb0c "__tb0c" 1
  14  0001              #pragma debug struct_end
  14  0001              #pragma debug struct_end
  14  0001              #pragma debug union_end
  14  0001              #pragma debug union_end
  14  0001              #pragma debug variable 45 1 ___scc "__scc" 1
  14  0001              #pragma debug struct_end
  14  0001              #pragma debug struct_end
  14  0001              #pragma debug union_end
  14  0001              #pragma debug union_end
  14  0001              #pragma debug variable 47 1 ___pa "__pa" 1
  14  0001              #pragma debug struct_end
  14  0001              #pragma debug struct_end
"File: interrupt_5542.c  Assembler  Version HGASM0202      Page 24

  14  0001              #pragma debug union_end
  14  0001              #pragma debug union_end
  14  0001              #pragma debug variable 49 1 ___stmc0 "__stmc0" 1
  14  0001              #pragma debug struct_end
  14  0001              #pragma debug struct_end
  14  0001              #pragma debug union_end
  14  0001              #pragma debug union_end
  14  0001              #pragma debug variable 51 1 ___stmc1 "__stmc1" 1
  14  0001              #pragma debug variable 8 1 ___stmal "__stmal" 1
  14  0001              #pragma debug variable 8 1 ___stmah "__stmah" 1
  14  0001              #pragma debug struct_end
  14  0001              #pragma debug struct_end
  14  0001              #pragma debug union_end
  14  0001              #pragma debug union_end
  14  0001              #pragma debug variable 53 1 ___pltsw "__pltsw" 1
  14  0001              #pragma debug struct_end
  14  0001              #pragma debug struct_end
  14  0001              #pragma debug union_end
  14  0001              #pragma debug union_end
  14  0001              #pragma debug variable 55 1 ___pltdacc "__pltdacc" 1
  14  0001              #pragma debug variable 8 1 ___pltda2l "__pltda2l" 1
  14  0001              #pragma debug struct_end
  14  0001              #pragma debug struct_end
  14  0001              #pragma debug union_end
  14  0001              #pragma debug union_end
  14  0001              #pragma debug variable 57 1 ___pltc0c "__pltc0c" 1
  14  0001              #pragma debug struct_end
  14  0001              #pragma debug struct_end
  14  0001              #pragma debug union_end
  14  0001              #pragma debug union_end
  14  0001              #pragma debug variable 59 1 ___pltc1c "__pltc1c" 1
  14  0001              #pragma debug struct_end
  14  0001              #pragma debug struct_end
  14  0001              #pragma debug union_end
  14  0001              #pragma debug union_end
  14  0001              #pragma debug variable 61 1 ___pltchyc "__pltchyc" 1
  14  0001              #pragma debug struct_end
  14  0001              #pragma debug struct_end
  14  0001              #pragma debug union_end
  14  0001              #pragma debug union_end
  14  0001              #pragma debug variable 63 1 ___pltac "__pltac" 1
  14  0001              #pragma debug struct_end
  14  0001              #pragma debug struct_end
  14  0001              #pragma debug union_end
  14  0001              #pragma debug union_end
  14  0001              #pragma debug variable 65 1 ___intc0 "__intc0" 1
  14  0001              #pragma debug struct_end
  14  0001              #pragma debug struct_end
  14  0001              #pragma debug union_end
  14  0001              #pragma debug union_end
  14  0001              #pragma debug variable 67 1 ___intc2 "__intc2" 1
  14  0001              #pragma debug struct_end
  14  0001              #pragma debug struct_end
  14  0001              #pragma debug union_end
  14  0001              #pragma debug union_end
  14  0001              #pragma debug variable 69 1 ___intc3 "__intc3" 1
  14  0001              #pragma debug struct_end
  14  0001              #pragma debug struct_end
  14  0001              #pragma debug union_end
  14  0001              #pragma debug union_end
"File: interrupt_5542.c  Assembler  Version HGASM0202      Page 25

  14  0001              #pragma debug variable 71 1 ___ptmc0 "__ptmc0" 1
  14  0001              #pragma debug struct_end
  14  0001              #pragma debug struct_end
  14  0001              #pragma debug union_end
  14  0001              #pragma debug union_end
  14  0001              #pragma debug variable 73 1 ___ptmc2 "__ptmc2" 1
  14  0001              #pragma debug variable 8 1 ___ptmrpl "__ptmrpl" 1
  14  0001              #pragma debug variable 8 1 ___ptmrph "__ptmrph" 1
  14  0001              #pragma debug struct_end
  14  0001              #pragma debug struct_end
  14  0001              #pragma debug union_end
  14  0001              #pragma debug union_end
  14  0001              #pragma debug variable 75 1 ___isgenc "__isgenc" 1
  14  0001              
  14  0001              ; output external variables
  14  0001              extern _SdkeePotData:byte
  14  0001              extern _FuncData:byte
  14  0001              extern _CLIPAddrDecode:near
  14  0001              extern _CLIPWriteFlag:byte
  14  0001              extern _CommData:byte
  14  0001              extern _timeLoopCounter:byte
  14  0001              extern _SysData:byte
  14  0001              extern r1:byte
  14  0001              extern r2:byte
  14  0001              extern r3:byte
  14  0001              extern r4:byte
  14  0001              extern r5:byte
  14  0001              extern r6:byte
  14  0001              extern _PltOpaSwitchOff:near
  14  0001              extern _PutDataToWriteEEBuff_2:byte
  14  0001              extern _PutDataToWriteEEBuff:near
  14  0001              extern _CommProtocol:near
  14  0001              
  14  0001              ; 
  14  0001              ; Generated by holtek-gcc v3.19, Mon Oct 10 15:45:34 2022
  14  0001              ; Rebuild 718
  14  0001              ; end of file


        0 Errors, 0