"File: main.c        Assembler  Version HGASM0202      Page 1


   1  0000              ; Generated by holtek-gcc v3.19, Mon Oct 10 15:45:32 2022
   2  0000              ; 
   3  0000              ; Configuration:
   4  0000              ;       with long instruction
   5  0000              ;       Single ROM, Multi-RAM
   6  0000              ;       bits_per_rom_unit:16
   7  0000              ;       with mp1
   8  0000              ;       with tbhp, address(0x9)
   9  0000              ;          Use tabrd-const
  10  0000              ;       
  11  0000              ; SFR address of long-instruction arch:
  12  0000              ;    mp0 = -1,1,0
  13  0000              ;    mp1 = 4,3,2
  14  0000              ;    mp2 = 14,13,12
  15  0000              ;    tbp = 9,7,8
  16  0000              ;    acc = 5
  17  0000              ;    pcl = 6
  18  0000              ;    status = 10
  19  0000              ;    bp = 11
  20  0000              ;    intc = 72
  21  0000              ;       
  22  0000              ;       
  23  0000              ; use 'tabrdc' instead of 'tabrd'
  24  0000              ;       
  25  0000              
  26  0000              #pragma translator "holtek-gcc 4.6.4" "3.19" "build 20130711"
  27  0000              ; Rebuild 718
  28  0000              
  29  0000              ir equ [2]
  30  0000              mp equ [3]
  31  0000              sbp equ [4]
  32  0000              acc equ [5]
  33  0000              bp equ [11]
  34  0000              tblp equ [7]
  35  0000              tbhp equ [9]
  36  0000              status equ [10]
  37  0000              c equ [10].0
  38  0000              ac equ [10].1
  39  0000              z equ [10].2
  40  0000              ov equ [10].3
  41  0000              cz equ [10].6
  42  0000              sc equ [10].7
  43  0000              intc equ [72]
  44  0000              
  45  0000              extern ra:byte
  46  0000              extern rb:byte
  47  0000              extern rc:byte
  48  0000              extern rd:byte
  49  0000              extern re:byte
  50  0000              extern rf:byte
  51  0000              extern rg:byte
  52  0000              extern rh:byte
  53  0000              extern _Crom2Prom:near
  54  0000              extern _Crom2PromNext:near
  55  0000              
  56  0000              RAMBANK 0 @BITDATASEC, @BITDATASEC1
  57  0000              @HCCINIT	.section 'data'
  58  0000              @HCCINIT0	.section 'data'
  59  0000              @BITDATASEC	 .section 'data'
"File: main.ASM      Assembler  Version HGASM0202      Page 2

  60  0000              @BITDATASEC1	 .section 'data'
  61  0000              
  62  0000              #pragma debug scope 1 1
  63  0000              	extern __DELAY3:near
  64  0000              	extern __DELAYX3:near
  65  0000              	extern __DELAYX6:near
  66  0000              	extern __DELAYY5:near
  67  0000              	extern __DELAYY3:near
  68  0000              	extern _builtin_holtek_delay_2:byte
  69  0000              ___pac equ [21]
  70  0000              ___pas0 equ [76]
  71  0000              ___pas1 equ [77]
  72  0000              public _ConfigType
  73  0000              #pragma debug scope 2 1

 257  0000              #line 257 "c:\users\h469388\desktop\todo\projects\1_ngb\1_firmware\ngb_low_power_consumption_v3\source\main.c"
 257  0000              _ConfigType .section 'code'
 257  0000              _ConfigType proc
 257  0000  00              local _ConfigType_2 db 1 dup(?)	; 0,1
 257  0000  0080     E  	mov ra,a
 257  0001  0080     R  	mov _ConfigType_2[0],a
 257  0002              #pragma debug variable 8 2 _ConfigType_2+0 "Typetmp"
 258  0002              #line 258 "c:\users\h469388\desktop\todo\projects\1_ngb\1_firmware\ngb_low_power_consumption_v3\source\main.c"
 258  0002  0700     E  	mov a,ra
 258  0003  0A14        	sub a,20
 258  0004  3D0A        	sz z
 258  0005  2800     R  	jmp _L3
 258  0006              #line 258 "c:\users\h469388\desktop\todo\projects\1_ngb\1_firmware\ngb_low_power_consumption_v3\source\main.c"
 258  0006  0700     E  	mov a,ra
 258  0007  0A15        	sub a,21
 258  0008  390A        	snz z
 258  0009  2800     R  	jmp _L1
 258  000A              _L3:
 267  000A              #line 267 "c:\users\h469388\desktop\todo\projects\1_ngb\1_firmware\ngb_low_power_consumption_v3\source\main.c"
 267  000A  0F80        	mov a,128
 267  000B  0080     R  	mov _FuncData[0],a
 269  000C              #line 269 "c:\users\h469388\desktop\todo\projects\1_ngb\1_firmware\ngb_low_power_consumption_v3\source\main.c"
 269  000C  0F60        	mov a,96
 269  000D  0080     R  	mov _FuncData[49],a
 270  000E              #line 270 "c:\users\h469388\desktop\todo\projects\1_ngb\1_firmware\ngb_low_power_consumption_v3\source\main.c"
 270  000E  1F00     R  	clr _FuncData[50]
 271  000F              #line 271 "c:\users\h469388\desktop\todo\projects\1_ngb\1_firmware\ngb_low_power_consumption_v3\source\main.c"
 271  000F  0700     R  	mov a,_MemData[20]
 271  0010  0080     R  	mov _FuncData[47],a
 272  0011              #line 272 "c:\users\h469388\desktop\todo\projects\1_ngb\1_firmware\ngb_low_power_consumption_v3\source\main.c"
 272  0011  0700     R  	mov a,_MemData[21]
 272  0012  0080     R  	mov _FuncData[46],a
 277  0013              #line 277 "c:\users\h469388\desktop\todo\projects\1_ngb\1_firmware\ngb_low_power_consumption_v3\source\main.c"
 277  0013  3095        	set [21].1
 278  0014              #line 278 "c:\users\h469388\desktop\todo\projects\1_ngb\1_firmware\ngb_low_power_consumption_v3\source\main.c"
 278  0014  31CC        	set [76].3
 279  0015              #line 279 "c:\users\h469388\desktop\todo\projects\1_ngb\1_firmware\ngb_low_power_consumption_v3\source\main.c"
 279  0015  354C        	clr [76].2
 292  0016              #line 292 "c:\users\h469388\desktop\todo\projects\1_ngb\1_firmware\ngb_low_power_consumption_v3\source\main.c"
 292  0016  0700     R  	mov a,_ConfigType_2[0]
 292  0017  0A15        	sub a,21
 292  0018  390A        	snz z
 292  0019  2800     R  	jmp _L4
 295  001A              #line 295 "c:\users\h469388\desktop\todo\projects\1_ngb\1_firmware\ngb_low_power_consumption_v3\source\main.c"
 295  001A  34CD        	clr [77].1
"File: main.c        Assembler  Version HGASM0202      Page 3

 296  001B              #line 296 "c:\users\h469388\desktop\todo\projects\1_ngb\1_firmware\ngb_low_power_consumption_v3\source\main.c"
 296  001B  304D        	set [77].0
 296  001C              _L4:
 298  001C              #line 298 "c:\users\h469388\desktop\todo\projects\1_ngb\1_firmware\ngb_low_power_consumption_v3\source\main.c"
 298  001C  1F00     R  	clr _FuncData[52]
 307  001D              #line 307 "c:\users\h469388\desktop\todo\projects\1_ngb\1_firmware\ngb_low_power_consumption_v3\source\main.c"
 307  001D  0F03        	mov a,3
 307  001E  0080     R  	mov _SdkeePotData[8],a
 307  001F              _L1:
 307  001F  0003        	ret
 307  0020              _ConfigType endp
 307  0020              #line 307 "c:\users\h469388\desktop\todo\projects\1_ngb\1_firmware\ngb_low_power_consumption_v3\source\main.c"
 307  0020              #pragma debug scope 1 1
 307  0020              public _DataInit
 307  0020              #pragma debug scope 3 1
 225  0020              #line 225 "c:\users\h469388\desktop\todo\projects\1_ngb\1_firmware\ngb_low_power_consumption_v3\source\main.c"
 225  0000              _DataInit .section 'code'
 225  0000              _DataInit proc
 228  0000              #line 228 "c:\users\h469388\desktop\todo\projects\1_ngb\1_firmware\ngb_low_power_consumption_v3\source\main.c"
 228  0000  0F0A        	mov a,10
 228  0001  0080     E  	mov _memset_2[4],a
 228  0002  1F00     E  	clr _memset_2[5]
 228  0003  1F00     E  	clr _memset_2[2]
 228  0004  1F00     E  	clr _memset_2[3]
 228  0005  0F00     R  	mov a,low offset _SdkeePotData
 228  0006  0080     E  	mov _memset_2[0],a
 228  0007  0F00     R  	mov a,high offset _SdkeePotData
 228  0008  0080     E  	mov _memset_2[1],a
 228  0009  2000     E  	call _memset
 230  000A              #line 230 "c:\users\h469388\desktop\todo\projects\1_ngb\1_firmware\ngb_low_power_consumption_v3\source\main.c"
 230  000A  0F04        	mov a,4
 230  000B  0080     E  	mov _memset_2[4],a
 230  000C  1F00     E  	clr _memset_2[5]
 230  000D  1F00     E  	clr _memset_2[2]
 230  000E  1F00     E  	clr _memset_2[3]
 230  000F  0F00     R  	mov a,low offset _SysData
 230  0010  0080     E  	mov _memset_2[0],a
 230  0011  0F00     R  	mov a,high offset _SysData
 230  0012  0080     E  	mov _memset_2[1],a
 230  0013  2000     E  	call _memset
 231  0014              #line 231 "c:\users\h469388\desktop\todo\projects\1_ngb\1_firmware\ngb_low_power_consumption_v3\source\main.c"
 231  0014  0F2B        	mov a,43
 231  0015  0080     E  	mov _memset_2[4],a
 231  0016  1F00     E  	clr _memset_2[5]
 231  0017  1F00     E  	clr _memset_2[2]
 231  0018  1F00     E  	clr _memset_2[3]
 231  0019  0F00     R  	mov a,low offset _MemData
 231  001A  0080     E  	mov _memset_2[0],a
 231  001B  0F00     R  	mov a,high offset _MemData
 231  001C  0080     E  	mov _memset_2[1],a
 231  001D  2000     E  	call _memset
 232  001E              #line 232 "c:\users\h469388\desktop\todo\projects\1_ngb\1_firmware\ngb_low_power_consumption_v3\source\main.c"
 232  001E  0F1B        	mov a,27
 232  001F  0080     E  	mov _memset_2[4],a
 232  0020  1F00     E  	clr _memset_2[5]
 232  0021  1F00     E  	clr _memset_2[2]
 232  0022  1F00     E  	clr _memset_2[3]
 232  0023  0F00     R  	mov a,low offset _CommData
 232  0024  0080     E  	mov _memset_2[0],a
 232  0025  0F00     R  	mov a,high offset _CommData
"File: main.c        Assembler  Version HGASM0202      Page 4

 232  0026  0080     E  	mov _memset_2[1],a
 232  0027  2000     E  	call _memset
 233  0028              #line 233 "c:\users\h469388\desktop\todo\projects\1_ngb\1_firmware\ngb_low_power_consumption_v3\source\main.c"
 233  0028  0F39        	mov a,57
 233  0029  0080     E  	mov _memset_2[4],a
 233  002A  1F00     E  	clr _memset_2[5]
 233  002B  1F00     E  	clr _memset_2[2]
 233  002C  1F00     E  	clr _memset_2[3]
 233  002D  0F00     R  	mov a,low offset _FuncData
 233  002E  0080     E  	mov _memset_2[0],a
 233  002F  0F00     R  	mov a,high offset _FuncData
 233  0030  0080     E  	mov _memset_2[1],a
 233  0031  2000     E  	call _memset
 235  0032              #line 235 "c:\users\h469388\desktop\todo\projects\1_ngb\1_firmware\ngb_low_power_consumption_v3\source\main.c"
 235  0032  2000     E  	call _MemoryInit
 238  0033              #line 238 "c:\users\h469388\desktop\todo\projects\1_ngb\1_firmware\ngb_low_power_consumption_v3\source\main.c"
 238  0033  2000     E  	call _RefreshData
 241  0034              #line 241 "c:\users\h469388\desktop\todo\projects\1_ngb\1_firmware\ngb_low_power_consumption_v3\source\main.c"
 241  0034  1F00     R  	clr _FuncData[6]
 241  0035  0F60        	mov a,96
 241  0036  0080     R  	mov _FuncData[7],a
 242  0037              #line 242 "c:\users\h469388\desktop\todo\projects\1_ngb\1_firmware\ngb_low_power_consumption_v3\source\main.c"
 242  0037  0F20        	mov a,32
 242  0038  0080     R  	mov _FuncData[0],a
 244  0039              #line 244 "c:\users\h469388\desktop\todo\projects\1_ngb\1_firmware\ngb_low_power_consumption_v3\source\main.c"
 244  0039  1F00     R  	clr _FuncData[45]
 246  003A              #line 246 "c:\users\h469388\desktop\todo\projects\1_ngb\1_firmware\ngb_low_power_consumption_v3\source\main.c"
 246  003A  0F84        	mov a,-124
 246  003B  0080     R  	mov _FuncData[22],a
 246  003C  0F03        	mov a,3
 246  003D  0080     R  	mov _FuncData[23],a
 248  003E              #line 248 "c:\users\h469388\desktop\todo\projects\1_ngb\1_firmware\ngb_low_power_consumption_v3\source\main.c"
 248  003E  0700     R  	mov a,_SysData[2]
 248  003F  2000     R  	call _ConfigType
 249  0040              #line 249 "c:\users\h469388\desktop\todo\projects\1_ngb\1_firmware\ngb_low_power_consumption_v3\source\main.c"
 249  0040  1F00     R  	clr _FuncData[4]
 250  0041              #line 250 "c:\users\h469388\desktop\todo\projects\1_ngb\1_firmware\ngb_low_power_consumption_v3\source\main.c"
 250  0041  0F01        	mov a,1
 250  0042  0080     R  	mov _CommData[24],a
 250  0043  0003        	ret
 250  0044              _DataInit endp
 250  0044              #line 250 "c:\users\h469388\desktop\todo\projects\1_ngb\1_firmware\ngb_low_power_consumption_v3\source\main.c"
 250  0044              #pragma debug scope 1 1
 250  0044              ___intc0 equ [72]
 250  0044              ___pa equ [20]
 250  0044              ___wdtc equ [61]
 250  0044              public _main
 250  0044              #pragma debug scope 4 1
  71  0044              #line 71 "c:\users\h469388\desktop\todo\projects\1_ngb\1_firmware\ngb_low_power_consumption_v3\source\main.c"
  71  0044              IFDEF WITH_DEFAULT_STARTUP
  71  0044              extern _main_initial0:near
  71  0044              extern _main_startup:near
  71  0044              ENDIF
  71  0044              
  71  0044              ROMBANK 0 @start
  71  0000              @start .section com_l 'code'
  71  0000              _main_startup1:
  71  0000              @start .section com_e 'code'
  71  0000  2800     R  	jmp _main
  71  0001              
"File: main.c        Assembler  Version HGASM0202      Page 5

  71  0000              _main .section 'code'
  71  0000              _main proc
  71  0000  00              local _main_2 db 1 dup(?)
  73  0001              #line 73 "c:\users\h469388\desktop\todo\projects\1_ngb\1_firmware\ngb_low_power_consumption_v3\source\main.c"
  73  0000  2000     E  	call _SystemInit
  75  0001              #line 75 "c:\users\h469388\desktop\todo\projects\1_ngb\1_firmware\ngb_low_power_consumption_v3\source\main.c"
  75  0001  2000     R  	call _DataInit
  77  0002              #line 77 "c:\users\h469388\desktop\todo\projects\1_ngb\1_firmware\ngb_low_power_consumption_v3\source\main.c"
  77  0002  3048        	set [72].0
  77  0003              _L8:
  86  0003              #line 86 "c:\users\h469388\desktop\todo\projects\1_ngb\1_firmware\ngb_low_power_consumption_v3\source\main.c"
  86  0003  1080     R  	sz _FuncData[50]
  86  0004  2800     R  	jmp _L9
  90  0005              #line 90 "c:\users\h469388\desktop\todo\projects\1_ngb\1_firmware\ngb_low_power_consumption_v3\source\main.c"
  90  0005  1080     R  	sz _FuncData[49]
  90  0006  2800     R  	jmp _L9
  92  0007              #line 92 "c:\users\h469388\desktop\todo\projects\1_ngb\1_firmware\ngb_low_power_consumption_v3\source\main.c"
  92  0007  2000     E  	call _SdCaliOpa
  92  0008              _L9:
 101  0008              #line 101 "c:\users\h469388\desktop\todo\projects\1_ngb\1_firmware\ngb_low_power_consumption_v3\source\main.c"
 101  0008  1080     R  	sz _SdkeePotData[7]
 101  0009  2800     R  	jmp _L10
 106  000A              #line 106 "c:\users\h469388\desktop\todo\projects\1_ngb\1_firmware\ngb_low_power_consumption_v3\source\main.c"
 106  000A  0700     R  	mov a,_SdkeePotData[8]
 106  000B  0080     E  	mov ra,a
 106  000C  1E00     E  	snz ra
 106  000D  2800     R  	jmp _L10
 108  000E              #line 108 "c:\users\h469388\desktop\todo\projects\1_ngb\1_firmware\ngb_low_power_consumption_v3\source\main.c"
 108  000E  1500     E  	deca ra
 108  000F  0080     R  	mov _SdkeePotData[8],a
 109  0010              #line 109 "c:\users\h469388\desktop\todo\projects\1_ngb\1_firmware\ngb_low_power_consumption_v3\source\main.c"
 109  0010  0F10        	mov a,16
 109  0011  0080     R  	mov _SdkeePotData[7],a
 110  0012              #line 110 "c:\users\h469388\desktop\todo\projects\1_ngb\1_firmware\ngb_low_power_consumption_v3\source\main.c"
 110  0012  3114        	set [20].2
 111  0013              #line 111 "c:\users\h469388\desktop\todo\projects\1_ngb\1_firmware\ngb_low_power_consumption_v3\source\main.c"
 111  0013  3314        	set [20].6
 112  0014              #line 112 "c:\users\h469388\desktop\todo\projects\1_ngb\1_firmware\ngb_low_power_consumption_v3\source\main.c"
 112  0014              ;# 112 "c:\users\h469388\desktop\todo\projects\1_ngb\1_firmware\ngb_low_power_consumption_v3\source\main.c" 1
 112  0014              	IF 10000>263690
 112  0014              ;# 112 "c:\users\h469388\desktop\todo\projects\1_ngb\1_firmware\ngb_low_power_consumption_v3\source\main.c" 1
 112  0014              	ERRMESSAGE 'the value 10000of the argument exceeds the maxinum 263690'
 112  0014              	ENDIF
 112  0014              ;# 112 "c:\users\h469388\desktop\todo\projects\1_ngb\1_firmware\ngb_low_power_consumption_v3\source\main.c" 1
 112  0014              	IF 10000<0
 112  0014              ;# 112 "c:\users\h469388\desktop\todo\projects\1_ngb\1_firmware\ngb_low_power_consumption_v3\source\main.c" 1
 112  0014              	ERRMESSAGE 'the value 10000 of the argument exceeds the mininum 0'
 112  0014              	ENDIF
 112  0014              ;# 112 "c:\users\h469388\desktop\todo\projects\1_ngb\1_firmware\ngb_low_power_consumption_v3\source\main.c" 1
 112  0014              	IF 10000==0
 112  0014              ;# 112 "c:\users\h469388\desktop\todo\projects\1_ngb\1_firmware\ngb_low_power_consumption_v3\source\main.c" 1
 112  0014              	JMP $
 112  0014              	ENDIF
 112  0014              ;# 112 "c:\users\h469388\desktop\todo\projects\1_ngb\1_firmware\ngb_low_power_consumption_v3\source\main.c" 1
 112  0014              	IF 10000==1
 112  0014              ;# 112 "c:\users\h469388\desktop\todo\projects\1_ngb\1_firmware\ngb_low_power_consumption_v3\source\main.c" 1
 112  0014              	NOP
 112  0014              	ENDIF
 112  0014              ;# 112 "c:\users\h469388\desktop\todo\projects\1_ngb\1_firmware\ngb_low_power_consumption_v3\source\main.c" 1
 112  0014              	IF 10000==2
"File: main.c        Assembler  Version HGASM0202      Page 6

 112  0014              ;# 112 "c:\users\h469388\desktop\todo\projects\1_ngb\1_firmware\ngb_low_power_consumption_v3\source\main.c" 1
 112  0014              	NOP
 112  0014              ;# 112 "c:\users\h469388\desktop\todo\projects\1_ngb\1_firmware\ngb_low_power_consumption_v3\source\main.c" 1
 112  0014              	NOP
 112  0014              	ENDIF
 112  0014              ;# 112 "c:\users\h469388\desktop\todo\projects\1_ngb\1_firmware\ngb_low_power_consumption_v3\source\main.c" 1
 112  0014              	IF 10000==3
 112  0014              ;# 112 "c:\users\h469388\desktop\todo\projects\1_ngb\1_firmware\ngb_low_power_consumption_v3\source\main.c" 1
 112  0014              	NOP
 112  0014              ;# 112 "c:\users\h469388\desktop\todo\projects\1_ngb\1_firmware\ngb_low_power_consumption_v3\source\main.c" 1
 112  0014              	NOP
 112  0014              ;# 112 "c:\users\h469388\desktop\todo\projects\1_ngb\1_firmware\ngb_low_power_consumption_v3\source\main.c" 1
 112  0014              	NOP
 112  0014              	ENDIF
 112  0014              ;# 112 "c:\users\h469388\desktop\todo\projects\1_ngb\1_firmware\ngb_low_power_consumption_v3\source\main.c" 1
 112  0014              	IF (10000<8) AND (10000>3)
 112  0014              ;# 112 "c:\users\h469388\desktop\todo\projects\1_ngb\1_firmware\ngb_low_power_consumption_v3\source\main.c" 1
 112  0014              	CALL __DELAY3 + 7 -10000
 112  0014              	ENDIF
 112  0014              ;# 112 "c:\users\h469388\desktop\todo\projects\1_ngb\1_firmware\ngb_low_power_consumption_v3\source\main.c" 1
 112  0014              	IF (10000< 0404h) AND (10000>7)
 112  0014              ;# 112 "c:\users\h469388\desktop\todo\projects\1_ngb\1_firmware\ngb_low_power_consumption_v3\source\main.c" 1
 112  0014              	MOV A,10000/4-1
 112  0014              ;# 112 "c:\users\h469388\desktop\todo\projects\1_ngb\1_firmware\ngb_low_power_consumption_v3\source\main.c" 1
 112  0014              	CALL __DELAYX3 + 3 -(10000 MOD 4)
 112  0014              	ENDIF
 112  0014              ;# 112 "c:\users\h469388\desktop\todo\projects\1_ngb\1_firmware\ngb_low_power_consumption_v3\source\main.c" 1
 112  0014              	IF (10000< 0x40B) AND (10000> 0403h)
 112  0014              ;# 112 "c:\users\h469388\desktop\todo\projects\1_ngb\1_firmware\ngb_low_power_consumption_v3\source\main.c" 1
 112  0014              	MOV A,0 
 112  0014              ;# 112 "c:\users\h469388\desktop\todo\projects\1_ngb\1_firmware\ngb_low_power_consumption_v3\source\main.c" 1
 112  0014              	CALL __DELAYX6 + 0x40a -10000
 112  0014              	ENDIF
 112  0014              ;# 112 "c:\users\h469388\desktop\todo\projects\1_ngb\1_firmware\ngb_low_power_consumption_v3\source\main.c" 1
 112  0014              	IF (10000 >= 0x40b) AND ((((10000-9)%0402h)/4+1)>256)
 112  0014              ;# 112 "c:\users\h469388\desktop\todo\projects\1_ngb\1_firmware\ngb_low_power_consumption_v3\source\main.c" 1
 112  0014              	MOV A,(10000-9)/0402h
 112  0014              ;# 112 "c:\users\h469388\desktop\todo\projects\1_ngb\1_firmware\ngb_low_power_consumption_v3\source\main.c" 1
 112  0014              	MOV _builtin_holtek_delay_2,A
 112  0014              ;# 112 "c:\users\h469388\desktop\todo\projects\1_ngb\1_firmware\ngb_low_power_consumption_v3\source\main.c" 1
 112  0014              	MOV A,0
 112  0014              ;# 112 "c:\users\h469388\desktop\todo\projects\1_ngb\1_firmware\ngb_low_power_consumption_v3\source\main.c" 1
 112  0014              	CALL __DELAYY5 +5- (((10000-9)%0402h)%6)
 112  0014              	ENDIF
 112  0014              ;# 112 "c:\users\h469388\desktop\todo\projects\1_ngb\1_firmware\ngb_low_power_consumption_v3\source\main.c" 1
 112  0014              	IF (10000 >= 0x40b) AND ((((10000-9)%0402h)/4+1)<=256)
 112  0014              ;# 112 "c:\users\h469388\desktop\todo\projects\1_ngb\1_firmware\ngb_low_power_consumption_v3\source\main.c" 1
 112  0014  0F09        	MOV A,(10000-9)/0402h
 112  0015              ;# 112 "c:\users\h469388\desktop\todo\projects\1_ngb\1_firmware\ngb_low_power_consumption_v3\source\main.c" 1
 112  0015  0080     E  	MOV _builtin_holtek_delay_2,A
 112  0016              ;# 112 "c:\users\h469388\desktop\todo\projects\1_ngb\1_firmware\ngb_low_power_consumption_v3\source\main.c" 1
 112  0016  0FBE        	MOV A,((10000-9)%0402h)/4+1
 112  0017              ;# 112 "c:\users\h469388\desktop\todo\projects\1_ngb\1_firmware\ngb_low_power_consumption_v3\source\main.c" 1
 112  0017  2000     E  	CALL __DELAYY3 +3-(((10000-9)%0402h)%4)
 112  0018              	ENDIF
 113  0018              #line 113 "c:\users\h469388\desktop\todo\projects\1_ngb\1_firmware\ngb_low_power_consumption_v3\source\main.c"
 113  0018  3514        	clr [20].2
 114  0019              #line 114 "c:\users\h469388\desktop\todo\projects\1_ngb\1_firmware\ngb_low_power_consumption_v3\source\main.c"
 114  0019  3714        	clr [20].6
 114  001A              _L10:
"File: main.c        Assembler  Version HGASM0202      Page 7

 126  001A              #line 126 "c:\users\h469388\desktop\todo\projects\1_ngb\1_firmware\ngb_low_power_consumption_v3\source\main.c"
 126  001A  1080     R  	sz _FuncData[3]
 126  001B  2800     R  	jmp _L11
 130  001C              #line 130 "c:\users\h469388\desktop\todo\projects\1_ngb\1_firmware\ngb_low_power_consumption_v3\source\main.c"
 130  001C  1080     R  	sz _FuncData[0]
 130  001D  2800     R  	jmp _L12
 132  001E              #line 132 "c:\users\h469388\desktop\todo\projects\1_ngb\1_firmware\ngb_low_power_consumption_v3\source\main.c"
 132  001E  0700     R  	mov a,_SysData[2]
 132  001F  0A14        	sub a,20
 132  0020  3D0A        	sz z
 132  0021  2800     R  	jmp _L13
 132  0022  0700     R  	mov a,_SysData[2]
 132  0023  0A15        	sub a,21
 132  0024  390A        	snz z
 132  0025  2800     R  	jmp _L14
 132  0026              _L13:
 141  0026              #line 141 "c:\users\h469388\desktop\todo\projects\1_ngb\1_firmware\ngb_low_power_consumption_v3\source\main.c"
 141  0026  2000     E  	call _SmokeDetector
 141  0027              _L12:
 163  0027              #line 163 "c:\users\h469388\desktop\todo\projects\1_ngb\1_firmware\ngb_low_power_consumption_v3\source\main.c"
 163  0027  0700     R  	mov a,_SysData[2]
 163  0028  0A15        	sub a,21
 163  0029  390A        	snz z
 163  002A  2800     R  	jmp _L14
 165  002B              #line 165 "c:\users\h469388\desktop\todo\projects\1_ngb\1_firmware\ngb_low_power_consumption_v3\source\main.c"
 165  002B  1080     R  	sz _FuncData[1]
 165  002C  2800     R  	jmp _L14
 167  002D              #line 167 "c:\users\h469388\desktop\todo\projects\1_ngb\1_firmware\ngb_low_power_consumption_v3\source\main.c"
 167  002D  2000     E  	call _SmokeDetectorBuzzle
 167  002E              _L14:
 172  002E              #line 172 "c:\users\h469388\desktop\todo\projects\1_ngb\1_firmware\ngb_low_power_consumption_v3\source\main.c"
 172  002E  2000     E  	call _LedCtrl
 174  002F              #line 174 "c:\users\h469388\desktop\todo\projects\1_ngb\1_firmware\ngb_low_power_consumption_v3\source\main.c"
 174  002F  2000     E  	call _RefreshData
 174  0030              _L11:
 180  0030              #line 180 "c:\users\h469388\desktop\todo\projects\1_ngb\1_firmware\ngb_low_power_consumption_v3\source\main.c"
 180  0030  1E00     R  	snz _MemData[42]
 180  0031  2800     R  	jmp _L15
 182  0032              #line 182 "c:\users\h469388\desktop\todo\projects\1_ngb\1_firmware\ngb_low_power_consumption_v3\source\main.c"
 182  0032  2000     E  	call _MemoryWrite
 182  0033              _L15:
 184  0033              #line 184 "c:\users\h469388\desktop\todo\projects\1_ngb\1_firmware\ngb_low_power_consumption_v3\source\main.c"
 184  0033  2000     E  	call _MemoryProcess
 186  0034              #line 186 "c:\users\h469388\desktop\todo\projects\1_ngb\1_firmware\ngb_low_power_consumption_v3\source\main.c"
 186  0034  1E00     R  	snz _SysData[1]
 186  0035  2800     R  	jmp _L16
 188  0036              #line 188 "c:\users\h469388\desktop\todo\projects\1_ngb\1_firmware\ngb_low_power_consumption_v3\source\main.c"
 188  0036  1080     R  	sz _CommData[0]
 188  0037  2800     R  	jmp _L16
 190  0038              #line 190 "c:\users\h469388\desktop\todo\projects\1_ngb\1_firmware\ngb_low_power_consumption_v3\source\main.c"
 190  0038  0F07        	mov a,7
 190  0039  00BD        	mov [61],a
 190  003A              _L16:
 196  003A              #line 196 "c:\users\h469388\desktop\todo\projects\1_ngb\1_firmware\ngb_low_power_consumption_v3\source\main.c"
 196  003A              ;# 196 "c:\users\h469388\desktop\todo\projects\1_ngb\1_firmware\ngb_low_power_consumption_v3\source\main.c" 1
 196  003A  0001        	clr wdt
 205  003B              #line 205 "c:\users\h469388\desktop\todo\projects\1_ngb\1_firmware\ngb_low_power_consumption_v3\source\main.c"
 205  003B  0700     R  	mov a,_SysData[0]
 205  003C  0080     R  	mov _main_2[0],a
 205  003D  3800     R  	snz _main_2[0].7
"File: main.c        Assembler  Version HGASM0202      Page 8

 205  003E  2800     R  	jmp _L17
 207  003F              #line 207 "c:\users\h469388\desktop\todo\projects\1_ngb\1_firmware\ngb_low_power_consumption_v3\source\main.c"
 207  003F  0700     R  	mov a,_main_2[0]
 207  0040  0B80        	add a,128
 207  0041  0080     R  	mov _SysData[0],a
 207  0042  2800     R  	jmp _L8
 207  0043              _L17:
 211  0043              #line 211 "c:\users\h469388\desktop\todo\projects\1_ngb\1_firmware\ngb_low_power_consumption_v3\source\main.c"
 211  0043  1080     R  	sz _main_2[0]
 211  0044  2800     R  	jmp _L8
 213  0045              #line 213 "c:\users\h469388\desktop\todo\projects\1_ngb\1_firmware\ngb_low_power_consumption_v3\source\main.c"
 213  0045              ;# 213 "c:\users\h469388\desktop\todo\projects\1_ngb\1_firmware\ngb_low_power_consumption_v3\source\main.c" 1
 213  0045  0002        	halt
 214  0046              #line 214 "c:\users\h469388\desktop\todo\projects\1_ngb\1_firmware\ngb_low_power_consumption_v3\source\main.c"
 214  0046              ;# 214 "c:\users\h469388\desktop\todo\projects\1_ngb\1_firmware\ngb_low_power_consumption_v3\source\main.c" 1
 214  0046  0000        	nop
 214  0047  2800     R  	jmp _L8
 214  0048  2800     R  	jmp $
 214  0049              _main endp
 214  0049              
 214  0049              @dummy endp
 214  0049              
 214  0049              #line 214 "c:\users\h469388\desktop\todo\projects\1_ngb\1_firmware\ngb_low_power_consumption_v3\source\main.c"
 214  0049              #pragma debug scope 1 1
  65  0049              #line 65 "c:\users\h469388\desktop\todo\projects\1_ngb\1_firmware\ngb_low_power_consumption_v3\source\main.c"
  65  0049              public _FuncData
  65  0000              @HCCINIT0_FuncData .section 'data'
  65  0000  0039[       _FuncData	db 57 dup(0)
            00
            ]
  65  0039              #pragma debug struct_end
  65  0039              #pragma debug struct_end
  65  0039              #pragma debug variable 42 1 _FuncData "FuncData"
  65  0039              
  65  0000              @HCCINIT .section 'data'
  64  0000              #line 64 "c:\users\h469388\desktop\todo\projects\1_ngb\1_firmware\ngb_low_power_consumption_v3\source\main.c"
  64  0000              public _CommData
  64  0000              @HCCINIT0_CommData .section 'data'
  64  0000  001B[       _CommData	db 27 dup(0)
            00
            ]
  64  001B              #pragma debug struct_end
  64  001B              #pragma debug struct_end
  64  001B              #pragma debug variable 43 1 _CommData "CommData"
  64  001B              
  64  0000              @HCCINIT .section 'data'
  63  0000              #line 63 "c:\users\h469388\desktop\todo\projects\1_ngb\1_firmware\ngb_low_power_consumption_v3\source\main.c"
  63  0000              public _MemData
  63  0000              @HCCINIT0_MemData .section 'data'
  63  0000  002B[       _MemData	db 43 dup(0)
            00
            ]
  63  002B              #pragma debug struct_end
  63  002B              #pragma debug struct_end
  63  002B              #pragma debug variable 44 1 _MemData "MemData"
  63  002B              
  63  0000              @HCCINIT .section 'data'
  62  0000              #line 62 "c:\users\h469388\desktop\todo\projects\1_ngb\1_firmware\ngb_low_power_consumption_v3\source\main.c"
  62  0000              public _SysData
  62  0000              @HCCINIT0_SysData .section 'data'
"File: main.c        Assembler  Version HGASM0202      Page 9

  62  0000  0004[       _SysData	db 4 dup(0)
            00
            ]
  62  0004              #pragma debug struct_end
  62  0004              #pragma debug struct_end
  62  0004              #pragma debug variable 45 1 _SysData "SysData"
  62  0004              
  62  0000              @HCCINIT .section 'data'
  59  0000              #line 59 "c:\users\h469388\desktop\todo\projects\1_ngb\1_firmware\ngb_low_power_consumption_v3\source\main.c"
  59  0000              public _SdkeePotData
  59  0000              @HCCINIT0_SdkeePotData .section 'data'
  59  0000  000A[       _SdkeePotData	db 10 dup(0)
            00
            ]
  59  000A              #pragma debug struct_end
  59  000A              #pragma debug struct_end
  59  000A              #pragma debug variable 46 1 _SdkeePotData "SdkeePotData"
  59  000A              
  59  0000              @HCCINIT .section 'data'
  59  0000              #pragma debug struct_end
  59  0000              #pragma debug struct_end
  59  0000              #pragma debug union_end
  59  0000              #pragma debug union_end
  59  0000              #pragma debug variable 48 1 ___pa "__pa" 1
  59  0000              #pragma debug struct_end
  59  0000              #pragma debug struct_end
  59  0000              #pragma debug union_end
  59  0000              #pragma debug union_end
  59  0000              #pragma debug variable 50 1 ___pac "__pac" 1
  59  0000              #pragma debug struct_end
  59  0000              #pragma debug struct_end
  59  0000              #pragma debug union_end
  59  0000              #pragma debug union_end
  59  0000              #pragma debug variable 52 1 ___wdtc "__wdtc" 1
  59  0000              #pragma debug struct_end
  59  0000              #pragma debug struct_end
  59  0000              #pragma debug union_end
  59  0000              #pragma debug union_end
  59  0000              #pragma debug variable 54 1 ___intc0 "__intc0" 1
  59  0000              #pragma debug struct_end
  59  0000              #pragma debug struct_end
  59  0000              #pragma debug union_end
  59  0000              #pragma debug union_end
  59  0000              #pragma debug variable 56 1 ___pas0 "__pas0" 1
  59  0000              #pragma debug struct_end
  59  0000              #pragma debug struct_end
  59  0000              #pragma debug union_end
  59  0000              #pragma debug union_end
  59  0000              #pragma debug variable 58 1 ___pas1 "__pas1" 1
  71  0000              #line 71 "c:\users\h469388\desktop\todo\projects\1_ngb\1_firmware\ngb_low_power_consumption_v3\source\main.c"
  71  0000              @code .section at 0 'code'
  71  0000  2800     R  	jmp _main_startup1
  71  0001              
  71  0001              extern _memset_2:byte
  71  0001              extern _memset:near
  71  0001              extern _MemoryInit:near
  71  0001              extern _RefreshData:near
  71  0001              extern _SystemInit:near
  71  0001              extern _SdCaliOpa:near
  71  0001              extern _SmokeDetector:near
"File: main.c        Assembler  Version HGASM0202      Page 10

  71  0001              extern _SmokeDetectorBuzzle:near
  71  0001              extern _LedCtrl:near
  71  0001              extern _MemoryWrite:near
  71  0001              extern _MemoryProcess:near
  71  0001              
  71  0001              ; 
  71  0001              ; Generated by holtek-gcc v3.19, Mon Oct 10 15:45:32 2022
  71  0001              ; Rebuild 718
  71  0001              ; end of file


        0 Errors, 0