"File: memory.c      Assembler  Version HGASM0202      Page 1


   1  0000              ; Generated by holtek-gcc v3.19, Mon Oct 10 15:45:33 2022
   2  0000              ; 
   3  0000              ; Configuration:
   4  0000              ;       with long instruction
   5  0000              ;       Single ROM, Multi-RAM
   6  0000              ;       bits_per_rom_unit:16
   7  0000              ;       with mp1
   8  0000              ;       with tbhp, address(0x9)
   9  0000              ;          Use tabrd-const
  10  0000              ;       
  11  0000              ; SFR address of long-instruction arch:
  12  0000              ;    mp0 = -1,1,0
  13  0000              ;    mp1 = 4,3,2
  14  0000              ;    mp2 = 14,13,12
  15  0000              ;    tbp = 9,7,8
  16  0000              ;    acc = 5
  17  0000              ;    pcl = 6
  18  0000              ;    status = 10
  19  0000              ;    bp = 11
  20  0000              ;    intc = 72
  21  0000              ;       
  22  0000              ;       
  23  0000              ; use 'tabrdc' instead of 'tabrd'
  24  0000              ;       
  25  0000              
  26  0000              #pragma translator "holtek-gcc 4.6.4" "3.19" "build 20130711"
  27  0000              ; Rebuild 718
  28  0000              
  29  0000              ir equ [2]
  30  0000              mp equ [3]
  31  0000              sbp equ [4]
  32  0000              acc equ [5]
  33  0000              bp equ [11]
  34  0000              tblp equ [7]
  35  0000              tbhp equ [9]
  36  0000              status equ [10]
  37  0000              c equ [10].0
  38  0000              ac equ [10].1
  39  0000              z equ [10].2
  40  0000              ov equ [10].3
  41  0000              cz equ [10].6
  42  0000              sc equ [10].7
  43  0000              intc equ [72]
  44  0000              
  45  0000              extern ra:byte
  46  0000              extern rb:byte
  47  0000              extern rc:byte
  48  0000              extern rd:byte
  49  0000              extern re:byte
  50  0000              extern rf:byte
  51  0000              extern rg:byte
  52  0000              extern rh:byte
  53  0000              extern _Crom2Prom:near
  54  0000              extern _Crom2PromNext:near
  55  0000              
  56  0000              RAMBANK 0 @BITDATASEC, @BITDATASEC1
  57  0000              @HCCINIT	.section 'data'
  58  0000              @HCCINIT0	.section 'data'
  59  0000              @BITDATASEC	 .section 'data'
"File: memory.ASM    Assembler  Version HGASM0202      Page 2

  60  0000              @BITDATASEC1	 .section 'data'
  61  0000              
  62  0000              #pragma debug scope 1 1
  63  0000              	extern __DELAY3:near
  64  0000              	extern __DELAYX3:near
  65  0000              	extern __DELAYX6:near
  66  0000              	extern __DELAYY5:near
  67  0000              	extern __DELAYY3:near
  68  0000              	extern _builtin_holtek_delay_2:byte
  69  0000              ___eea equ [62]
  70  0000              ___mp1l equ [3]
  71  0000              ___mp1h equ [4]
  72  0000              ___iar1 equ [2]
  73  0000              ___eed equ [63]
  74  0000              public _MemoryInit
  75  0000              #pragma debug scope 2 1

  17  0000              #line 17 "c:\users\h469388\desktop\todo\projects\1_ngb\1_firmware\ngb_low_power_consumption_v3\source\memory.c"
  17  0000              _MemoryInit .section 'code'
  17  0000              _MemoryInit proc
  17  0000  0F20        	mov a,32
  17  0001  0080     E  	mov rb,a
  19  0002              #line 19 "c:\users\h469388\desktop\todo\projects\1_ngb\1_firmware\ngb_low_power_consumption_v3\source\memory.c"
  19  0002  1F00     E  	clr ra
  19  0003              _L3:
  21  0003              #line 21 "c:\users\h469388\desktop\todo\projects\1_ngb\1_firmware\ngb_low_power_consumption_v3\source\memory.c"
  21  0003  0700     E  	mov a,ra
  21  0004  00BE        	mov [62],a
  22  0005              #line 22 "c:\users\h469388\desktop\todo\projects\1_ngb\1_firmware\ngb_low_power_consumption_v3\source\memory.c"
  22  0005  0F40        	mov a,64
  22  0006  0083        	mov [3],a
  23  0007              #line 23 "c:\users\h469388\desktop\todo\projects\1_ngb\1_firmware\ngb_low_power_consumption_v3\source\memory.c"
  23  0007  0F01        	mov a,1
  23  0008  0084        	mov [4],a
  25  0009              #line 25 "c:\users\h469388\desktop\todo\projects\1_ngb\1_firmware\ngb_low_power_consumption_v3\source\memory.c"
  25  0009              ;# 25 "c:\users\h469388\desktop\todo\projects\1_ngb\1_firmware\ngb_low_power_consumption_v3\source\memory.c" 1
  25  0009              	IAR1 EQU [02H]
  26  0009              #line 26 "c:\users\h469388\desktop\todo\projects\1_ngb\1_firmware\ngb_low_power_consumption_v3\source\memory.c"
  26  0009              ;# 26 "c:\users\h469388\desktop\todo\projects\1_ngb\1_firmware\ngb_low_power_consumption_v3\source\memory.c" 1
  26  0009  3082        	SET IAR1.1 
  27  000A              #line 27 "c:\users\h469388\desktop\todo\projects\1_ngb\1_firmware\ngb_low_power_consumption_v3\source\memory.c"
  27  000A              ;# 27 "c:\users\h469388\desktop\todo\projects\1_ngb\1_firmware\ngb_low_power_consumption_v3\source\memory.c" 1
  27  000A  3002        	SET IAR1.0 
  28  000B              #line 28 "c:\users\h469388\desktop\todo\projects\1_ngb\1_firmware\ngb_low_power_consumption_v3\source\memory.c"
  28  000B              ;# 28 "c:\users\h469388\desktop\todo\projects\1_ngb\1_firmware\ngb_low_power_consumption_v3\source\memory.c" 1
  28  000B              	LDWAIT:
  29  000B              #line 29 "c:\users\h469388\desktop\todo\projects\1_ngb\1_firmware\ngb_low_power_consumption_v3\source\memory.c"
  29  000B              ;# 29 "c:\users\h469388\desktop\todo\projects\1_ngb\1_firmware\ngb_low_power_consumption_v3\source\memory.c" 1
  29  000B  3C02        	SZ  IAR1.0 
  30  000C              #line 30 "c:\users\h469388\desktop\todo\projects\1_ngb\1_firmware\ngb_low_power_consumption_v3\source\memory.c"
  30  000C              ;# 30 "c:\users\h469388\desktop\todo\projects\1_ngb\1_firmware\ngb_low_power_consumption_v3\source\memory.c" 1
  30  000C  2800     R  	JMP LDWAIT 
  32  000D              #line 32 "c:\users\h469388\desktop\todo\projects\1_ngb\1_firmware\ngb_low_power_consumption_v3\source\memory.c"
  32  000D  1F02        	clr [2]
  33  000E              #line 33 "c:\users\h469388\desktop\todo\projects\1_ngb\1_firmware\ngb_low_power_consumption_v3\source\memory.c"
  33  000E  1F04        	clr [4]
  35  000F              #line 35 "c:\users\h469388\desktop\todo\projects\1_ngb\1_firmware\ngb_low_power_consumption_v3\source\memory.c"
  35  000F  0F00     E  	mov a,low (offset _MemData+4)
  35  0010  0300     E  	add a,ra
  35  0011  0083        	mov mp,a
"File: memory.c      Assembler  Version HGASM0202      Page 3

  35  0012  0F00     E  	mov a,high (offset _MemData+4)
  35  0013  1F04        	clr sbp
  35  0014  1384        	adcm a,sbp
  35  0015  073F        	mov a,[63]
  35  0016  0082        	mov ir,a
  19  0017              #line 19 "c:\users\h469388\desktop\todo\projects\1_ngb\1_firmware\ngb_low_power_consumption_v3\source\memory.c"
  19  0017  1480     E  	inc ra
  19  0018  1780     E  	sdz rb
  19  0019  2800     R  	jmp _L3
  37  001A              #line 37 "c:\users\h469388\desktop\todo\projects\1_ngb\1_firmware\ngb_low_power_consumption_v3\source\memory.c"
  37  001A  0F07        	mov a,7
  37  001B  0080     E  	mov _MemData[18],a
  37  001C  0003        	ret
  37  001D              _MemoryInit endp
  37  001D              #line 37 "c:\users\h469388\desktop\todo\projects\1_ngb\1_firmware\ngb_low_power_consumption_v3\source\memory.c"
  37  001D              #pragma debug scope 1 1
  37  001D              public _MemoryWrite
  37  001D              #pragma debug scope 3 1
  45  001D              #line 45 "c:\users\h469388\desktop\todo\projects\1_ngb\1_firmware\ngb_low_power_consumption_v3\source\memory.c"
  45  0000              _MemoryWrite .section 'code'
  45  0000              _MemoryWrite proc
  45  0000  00              local _MemoryWrite_2 db 1 dup(?)	; 0,1
  48  0001              #line 48 "c:\users\h469388\desktop\todo\projects\1_ngb\1_firmware\ngb_low_power_consumption_v3\source\memory.c"
  48  0000  1080     E  	sz _MemData[0]
  48  0001  2800     R  	jmp _L8
  52  0002              #line 52 "c:\users\h469388\desktop\todo\projects\1_ngb\1_firmware\ngb_low_power_consumption_v3\source\memory.c"
  52  0002  0700     E  	mov a,_MemData[39]
  52  0003  0080     E  	mov _MemData[2],a
  53  0004              #line 53 "c:\users\h469388\desktop\todo\projects\1_ngb\1_firmware\ngb_low_power_consumption_v3\source\memory.c"
  53  0004  0700     E  	mov a,_MemData[36]
  53  0005  0080     E  	mov _MemData[1],a
  54  0006              #line 54 "c:\users\h469388\desktop\todo\projects\1_ngb\1_firmware\ngb_low_power_consumption_v3\source\memory.c"
  54  0006  0F01        	mov a,1
  54  0007  0080     E  	mov _MemData[0],a
  57  0008              #line 57 "c:\users\h469388\desktop\todo\projects\1_ngb\1_firmware\ngb_low_power_consumption_v3\source\memory.c"
  57  0008  0700     E  	mov a,_MemData[42]
  57  0009  0080     R  	mov _MemoryWrite_2[0],a
  57  000A  0F01        	mov a,1
  57  000B  0200     R  	sub a,_MemoryWrite_2[0]
  57  000C  3C0A        	sz c
  57  000D  2800     R  	jmp _L7
  59  000E              #line 59 "c:\users\h469388\desktop\todo\projects\1_ngb\1_firmware\ngb_low_power_consumption_v3\source\memory.c"
  59  000E  0700     E  	mov a,_MemData[37]
  59  000F  0080     E  	mov _MemData[36],a
  60  0010              #line 60 "c:\users\h469388\desktop\todo\projects\1_ngb\1_firmware\ngb_low_power_consumption_v3\source\memory.c"
  60  0010  0700     E  	mov a,_MemData[40]
  60  0011  0080     E  	mov _MemData[39],a
  57  0012              #line 57 "c:\users\h469388\desktop\todo\projects\1_ngb\1_firmware\ngb_low_power_consumption_v3\source\memory.c"
  57  0012  0F02        	mov a,2
  57  0013  0200     R  	sub a,_MemoryWrite_2[0]
  57  0014  3C0A        	sz c
  57  0015  2800     R  	jmp _L7
  59  0016              #line 59 "c:\users\h469388\desktop\todo\projects\1_ngb\1_firmware\ngb_low_power_consumption_v3\source\memory.c"
  59  0016  0700     E  	mov a,_MemData[38]
  59  0017  0080     E  	mov _MemData[37],a
  60  0018              #line 60 "c:\users\h469388\desktop\todo\projects\1_ngb\1_firmware\ngb_low_power_consumption_v3\source\memory.c"
  60  0018  0700     E  	mov a,_MemData[41]
  60  0019  0080     E  	mov _MemData[40],a
  60  001A              _L7:
  64  001A              #line 64 "c:\users\h469388\desktop\todo\projects\1_ngb\1_firmware\ngb_low_power_consumption_v3\source\memory.c"
"File: memory.c      Assembler  Version HGASM0202      Page 4

  64  001A  1E00     R  	snz _MemoryWrite_2[0]
  64  001B  2800     R  	jmp _L9
  65  001C              #line 65 "c:\users\h469388\desktop\todo\projects\1_ngb\1_firmware\ngb_low_power_consumption_v3\source\memory.c"
  65  001C  1500     R  	deca _MemoryWrite_2[0]
  65  001D  0080     E  	mov _MemData[42],a
  65  001E  2800     R  	jmp _L9
  65  001F              _L8:
  49  001F              #line 49 "c:\users\h469388\desktop\todo\projects\1_ngb\1_firmware\ngb_low_power_consumption_v3\source\memory.c"
  49  001F  0F01        	mov a,1
  49  0020  0080     E  	mov ra,a
  49  0021  2800     R  	jmp _L6
  49  0022              _L9:
  67  0022              #line 67 "c:\users\h469388\desktop\todo\projects\1_ngb\1_firmware\ngb_low_power_consumption_v3\source\memory.c"
  67  0022  1F00     E  	clr ra
  67  0023              _L6:
  68  0023              #line 68 "c:\users\h469388\desktop\todo\projects\1_ngb\1_firmware\ngb_low_power_consumption_v3\source\memory.c"
  68  0023  0700     E  	mov a,ra
  68  0024  0003        	ret
  68  0025              _MemoryWrite endp
  68  0025              #line 68 "c:\users\h469388\desktop\todo\projects\1_ngb\1_firmware\ngb_low_power_consumption_v3\source\memory.c"
  68  0025              #pragma debug scope 1 1
  68  0025              public _PutDataToWriteEEBuff
  68  0025              #pragma debug scope 4 1
  74  0025              #line 74 "c:\users\h469388\desktop\todo\projects\1_ngb\1_firmware\ngb_low_power_consumption_v3\source\memory.c"
  74  0000              _PutDataToWriteEEBuff .section 'code'
  74  0000              _PutDataToWriteEEBuff proc
  74  0000              public _PutDataToWriteEEBuff_2
  74  0000  0002[           local _PutDataToWriteEEBuff_2 db 2 dup(?)	; 1,1
            00
            ]
  74  0000  0080     E  	mov ra,a
  74  0001  0080     R  	mov _PutDataToWriteEEBuff_2[1],a
  74  0002              #pragma debug variable 8 4 _PutDataToWriteEEBuff_2+1 "Index"
  74  0002              #pragma debug variable 8 4 _PutDataToWriteEEBuff_2+0 "Data"
  76  0002              #line 76 "c:\users\h469388\desktop\todo\projects\1_ngb\1_firmware\ngb_low_power_consumption_v3\source\memory.c"
  76  0002  0F1F        	mov a,31
  76  0003  0200     E  	sub a,ra
  76  0004  380A        	snz c
  76  0005  2800     R  	jmp _L10
  81  0006              #line 81 "c:\users\h469388\desktop\todo\projects\1_ngb\1_firmware\ngb_low_power_consumption_v3\source\memory.c"
  81  0006  0700     E  	mov a,_MemData[42]
  81  0007  0080     E  	mov ra,a
  81  0008  0F02        	mov a,2
  81  0009  0200     E  	sub a,ra
  81  000A  380A        	snz c
  81  000B  2800     R  	jmp _L10
  83  000C              #line 83 "c:\users\h469388\desktop\todo\projects\1_ngb\1_firmware\ngb_low_power_consumption_v3\source\memory.c"
  83  000C  0700     E  	mov a,ra
  83  000D  0080     E  	mov rb,a
  83  000E  1F00     E  	clr rc
  83  000F  0F00     E  	mov a,low (offset _MemData+36)
  83  0010  0300     E  	add a,rb
  83  0011  0083        	mov mp,a
  83  0012  0F00     E  	mov a,high (offset _MemData+36)
  83  0013  1300     E  	adc a,rc
  83  0014  0084        	mov sbp,a
  83  0015  0700     R  	mov a,_PutDataToWriteEEBuff_2[1]
  83  0016  0082        	mov ir,a
  84  0017              #line 84 "c:\users\h469388\desktop\todo\projects\1_ngb\1_firmware\ngb_low_power_consumption_v3\source\memory.c"
  84  0017  0F00     E  	mov a,low (offset _MemData+39)
"File: memory.c      Assembler  Version HGASM0202      Page 5

  84  0018  0300     E  	add a,rb
  84  0019  0083        	mov mp,a
  84  001A  0F00     E  	mov a,high (offset _MemData+39)
  84  001B  1300     E  	adc a,rc
  84  001C  0084        	mov sbp,a
  84  001D  0700     R  	mov a,_PutDataToWriteEEBuff_2[0]
  84  001E  0082        	mov ir,a
  85  001F              #line 85 "c:\users\h469388\desktop\todo\projects\1_ngb\1_firmware\ngb_low_power_consumption_v3\source\memory.c"
  85  001F  1400     E  	inca ra
  85  0020  0080     E  	mov _MemData[42],a
  85  0021              _L10:
  85  0021  0003        	ret
  85  0022              _PutDataToWriteEEBuff endp
  85  0022              #line 85 "c:\users\h469388\desktop\todo\projects\1_ngb\1_firmware\ngb_low_power_consumption_v3\source\memory.c"
  85  0022              #pragma debug scope 1 1
  85  0022              public _MemoryProcess
  85  0022              #pragma debug scope 5 1
  95  0022              #line 95 "c:\users\h469388\desktop\todo\projects\1_ngb\1_firmware\ngb_low_power_consumption_v3\source\memory.c"
  95  0000              _MemoryProcess .section 'code'
  95  0000              _MemoryProcess proc
  95  0000  00              local _MemoryProcess_2 db 1 dup(?)	; 0,1
  97  0001              #line 97 "c:\users\h469388\desktop\todo\projects\1_ngb\1_firmware\ngb_low_power_consumption_v3\source\memory.c"
  97  0000  0700     E  	mov a,_MemData[0]
  97  0001  0080     R  	mov _MemoryProcess_2[0],a
  97  0002  1080     R  	sz _MemoryProcess_2[0]
  97  0003  2800     R  	jmp _L13
  99  0004              #line 99 "c:\users\h469388\desktop\todo\projects\1_ngb\1_firmware\ngb_low_power_consumption_v3\source\memory.c"
  99  0004  3400     E  	clr _SysData[0].3
 100  0005              #line 100 "c:\users\h469388\desktop\todo\projects\1_ngb\1_firmware\ngb_low_power_consumption_v3\source\memory.c"
 100  0005  2800     R  	jmp _L12
 100  0006              _L13:
 104  0006              #line 104 "c:\users\h469388\desktop\todo\projects\1_ngb\1_firmware\ngb_low_power_consumption_v3\source\memory.c"
 104  0006  3000     E  	set _SysData[0].3
 107  0007              #line 107 "c:\users\h469388\desktop\todo\projects\1_ngb\1_firmware\ngb_low_power_consumption_v3\source\memory.c"
 107  0007  1080     E  	sz _CommData[0]
 107  0008  2800     R  	jmp _L12
 112  0009              #line 112 "c:\users\h469388\desktop\todo\projects\1_ngb\1_firmware\ngb_low_power_consumption_v3\source\memory.c"
 112  0009  0700     R  	mov a,_MemoryProcess_2[0]
 112  000A  0A01        	sub a,1
 112  000B  3D0A        	sz z
 112  000C  2800     R  	jmp _L16
 112  000D  0A01        	sub a,(2)-(1)
 112  000E  3D0A        	sz z
 112  000F  2800     R  	jmp _L16
 112  0010  0700     R  	mov a,_MemoryProcess_2[0]
 112  0011  0A03        	sub a,3
 112  0012  390A        	snz z
 112  0013  2800     R  	jmp _L28
 167  0014              #line 167 "c:\users\h469388\desktop\todo\projects\1_ngb\1_firmware\ngb_low_power_consumption_v3\source\memory.c"
 167  0014  0700     E  	mov a,_MemData[1]
 167  0015  0080     E  	mov ra,a
 167  0016  0700     E  	mov a,ra
 167  0017  00BE        	mov [62],a
 168  0018              #line 168 "c:\users\h469388\desktop\todo\projects\1_ngb\1_firmware\ngb_low_power_consumption_v3\source\memory.c"
 168  0018  0700     E  	mov a,_MemData[2]
 168  0019  00BF        	mov [63],a
 170  001A              #line 170 "c:\users\h469388\desktop\todo\projects\1_ngb\1_firmware\ngb_low_power_consumption_v3\source\memory.c"
 170  001A  0F40        	mov a,64
 170  001B  0083        	mov [3],a
 171  001C              #line 171 "c:\users\h469388\desktop\todo\projects\1_ngb\1_firmware\ngb_low_power_consumption_v3\source\memory.c"
"File: memory.c      Assembler  Version HGASM0202      Page 6

 171  001C  0F01        	mov a,1
 171  001D  0084        	mov [4],a
 173  001E              #line 173 "c:\users\h469388\desktop\todo\projects\1_ngb\1_firmware\ngb_low_power_consumption_v3\source\memory.c"
 173  001E              ;# 173 "c:\users\h469388\desktop\todo\projects\1_ngb\1_firmware\ngb_low_power_consumption_v3\source\memory.c" 1
 173  001E              	WR:
 174  001E              #line 174 "c:\users\h469388\desktop\todo\projects\1_ngb\1_firmware\ngb_low_power_consumption_v3\source\memory.c"
 174  001E              ;# 174 "c:\users\h469388\desktop\todo\projects\1_ngb\1_firmware\ngb_low_power_consumption_v3\source\memory.c" 1
 174  001E  3182        	SET IAR1.3 
 175  001F              #line 175 "c:\users\h469388\desktop\todo\projects\1_ngb\1_firmware\ngb_low_power_consumption_v3\source\memory.c"
 175  001F              ;# 175 "c:\users\h469388\desktop\todo\projects\1_ngb\1_firmware\ngb_low_power_consumption_v3\source\memory.c" 1
 175  001F  3102        	SET IAR1.2 
 176  0020              #line 176 "c:\users\h469388\desktop\todo\projects\1_ngb\1_firmware\ngb_low_power_consumption_v3\source\memory.c"
 176  0020              ;# 176 "c:\users\h469388\desktop\todo\projects\1_ngb\1_firmware\ngb_low_power_consumption_v3\source\memory.c" 1
 176  0020              	WRWAIT:
 177  0020              #line 177 "c:\users\h469388\desktop\todo\projects\1_ngb\1_firmware\ngb_low_power_consumption_v3\source\memory.c"
 177  0020              ;# 177 "c:\users\h469388\desktop\todo\projects\1_ngb\1_firmware\ngb_low_power_consumption_v3\source\memory.c" 1
 177  0020  3D02        	SZ  IAR1.2 
 178  0021              #line 178 "c:\users\h469388\desktop\todo\projects\1_ngb\1_firmware\ngb_low_power_consumption_v3\source\memory.c"
 178  0021              ;# 178 "c:\users\h469388\desktop\todo\projects\1_ngb\1_firmware\ngb_low_power_consumption_v3\source\memory.c" 1
 178  0021  2800     R  	JMP WRWAIT
 179  0022              #line 179 "c:\users\h469388\desktop\todo\projects\1_ngb\1_firmware\ngb_low_power_consumption_v3\source\memory.c"
 179  0022              ;# 179 "c:\users\h469388\desktop\todo\projects\1_ngb\1_firmware\ngb_low_power_consumption_v3\source\memory.c" 1
 179  0022  3582        	CLR IAR1.3 
 180  0023              #line 180 "c:\users\h469388\desktop\todo\projects\1_ngb\1_firmware\ngb_low_power_consumption_v3\source\memory.c"
 180  0023              ;# 180 "c:\users\h469388\desktop\todo\projects\1_ngb\1_firmware\ngb_low_power_consumption_v3\source\memory.c" 1
 180  0023              	RD:
 181  0023              #line 181 "c:\users\h469388\desktop\todo\projects\1_ngb\1_firmware\ngb_low_power_consumption_v3\source\memory.c"
 181  0023              ;# 181 "c:\users\h469388\desktop\todo\projects\1_ngb\1_firmware\ngb_low_power_consumption_v3\source\memory.c" 1
 181  0023  3082        	SET IAR1.1 
 182  0024              #line 182 "c:\users\h469388\desktop\todo\projects\1_ngb\1_firmware\ngb_low_power_consumption_v3\source\memory.c"
 182  0024              ;# 182 "c:\users\h469388\desktop\todo\projects\1_ngb\1_firmware\ngb_low_power_consumption_v3\source\memory.c" 1
 182  0024  3002        	SET IAR1.0 
 183  0025              #line 183 "c:\users\h469388\desktop\todo\projects\1_ngb\1_firmware\ngb_low_power_consumption_v3\source\memory.c"
 183  0025              ;# 183 "c:\users\h469388\desktop\todo\projects\1_ngb\1_firmware\ngb_low_power_consumption_v3\source\memory.c" 1
 183  0025              	RDWAIT:
 184  0025              #line 184 "c:\users\h469388\desktop\todo\projects\1_ngb\1_firmware\ngb_low_power_consumption_v3\source\memory.c"
 184  0025              ;# 184 "c:\users\h469388\desktop\todo\projects\1_ngb\1_firmware\ngb_low_power_consumption_v3\source\memory.c" 1
 184  0025  3C02        	SZ  IAR1.0 
 185  0026              #line 185 "c:\users\h469388\desktop\todo\projects\1_ngb\1_firmware\ngb_low_power_consumption_v3\source\memory.c"
 185  0026              ;# 185 "c:\users\h469388\desktop\todo\projects\1_ngb\1_firmware\ngb_low_power_consumption_v3\source\memory.c" 1
 185  0026  2800     R  	JMP RDWAIT
 187  0027              #line 187 "c:\users\h469388\desktop\todo\projects\1_ngb\1_firmware\ngb_low_power_consumption_v3\source\memory.c"
 187  0027  1F02        	clr [2]
 188  0028              #line 188 "c:\users\h469388\desktop\todo\projects\1_ngb\1_firmware\ngb_low_power_consumption_v3\source\memory.c"
 188  0028  1F04        	clr [4]
 190  0029              #line 190 "c:\users\h469388\desktop\todo\projects\1_ngb\1_firmware\ngb_low_power_consumption_v3\source\memory.c"
 190  0029  1F00     E  	clr _MemData[0]
 191  002A              #line 191 "c:\users\h469388\desktop\todo\projects\1_ngb\1_firmware\ngb_low_power_consumption_v3\source\memory.c"
 191  002A  0F00     E  	mov a,low (offset _MemData+4)
 191  002B  0300     E  	add a,ra
 191  002C  0083        	mov mp,a
 191  002D  0F00     E  	mov a,high (offset _MemData+4)
 191  002E  1F04        	clr sbp
 191  002F  1384        	adcm a,sbp
 191  0030  073F        	mov a,[63]
 191  0031  0082        	mov ir,a
 193  0032              #line 193 "c:\users\h469388\desktop\todo\projects\1_ngb\1_firmware\ngb_low_power_consumption_v3\source\memory.c"
 193  0032  2800     R  	jmp _L12
 193  0033              _L16:
 121  0033              #line 121 "c:\users\h469388\desktop\todo\projects\1_ngb\1_firmware\ngb_low_power_consumption_v3\source\memory.c"
"File: memory.c      Assembler  Version HGASM0202      Page 7

 121  0033  0700     E  	mov a,_MemData[1]
 121  0034  0080     E  	mov ra,a
 122  0035              #line 122 "c:\users\h469388\desktop\todo\projects\1_ngb\1_firmware\ngb_low_power_consumption_v3\source\memory.c"
 122  0035  0700     E  	mov a,ra
 122  0036  0BFC        	add a,252
 122  0037  0080     E  	mov rb,a
 121  0038              #line 121 "c:\users\h469388\desktop\todo\projects\1_ngb\1_firmware\ngb_low_power_consumption_v3\source\memory.c"
 121  0038  0F3A        	mov a,58
 121  0039  0200     E  	sub a,rb
 121  003A  380A        	snz c
 121  003B  2800     R  	jmp _L18
 125  003C              #line 125 "c:\users\h469388\desktop\todo\projects\1_ngb\1_firmware\ngb_low_power_consumption_v3\source\memory.c"
 125  003C  1600     E  	siza _MemData[8]
 125  003D  2800     R  	jmp _LI1
 125  003E  2800     R  	jmp _L18
 125  003F              _LI1:
 125  003F  0700     R  	mov a,_MemoryProcess_2[0]
 125  0040  0A02        	sub a,2
 125  0041  390A        	snz z
 125  0042  2800     R  	jmp _L19
 125  0043              _L18:
 128  0043              #line 128 "c:\users\h469388\desktop\todo\projects\1_ngb\1_firmware\ngb_low_power_consumption_v3\source\memory.c"
 128  0043  1F00     E  	clr _MemData[3]
 128  0044  2800     R  	jmp _L29
 128  0045              _L19:
 132  0045              #line 132 "c:\users\h469388\desktop\todo\projects\1_ngb\1_firmware\ngb_low_power_consumption_v3\source\memory.c"
 132  0045  0700     E  	mov a,ra
 132  0046  0A04        	sub a,4
 132  0047  390A        	snz z
 132  0048  2800     R  	jmp _L20
 134  0049              #line 134 "c:\users\h469388\desktop\todo\projects\1_ngb\1_firmware\ngb_low_power_consumption_v3\source\memory.c"
 134  0049  0700     E  	mov a,_MemData[3]
 134  004A  0A55        	sub a,85
 134  004B  390A        	snz z
 134  004C  2800     R  	jmp _L21
 134  004D  0700     E  	mov a,_MemData[2]
 134  004E  0A3A        	sub a,58
 134  004F  390A        	snz z
 134  0050  2800     R  	jmp _L21
 137  0051              #line 137 "c:\users\h469388\desktop\todo\projects\1_ngb\1_firmware\ngb_low_power_consumption_v3\source\memory.c"
 137  0051  1F00     E  	clr _MemData[3]
 138  0052              #line 138 "c:\users\h469388\desktop\todo\projects\1_ngb\1_firmware\ngb_low_power_consumption_v3\source\memory.c"
 138  0052  1F80     E  	set _MemData[2]
 138  0053              _L29:
 139  0053              #line 139 "c:\users\h469388\desktop\todo\projects\1_ngb\1_firmware\ngb_low_power_consumption_v3\source\memory.c"
 139  0053  0F03        	mov a,3
 139  0054  0080     E  	mov _MemData[0],a
 139  0055  2800     R  	jmp _L12
 139  0056              _L21:
 143  0056              #line 143 "c:\users\h469388\desktop\todo\projects\1_ngb\1_firmware\ngb_low_power_consumption_v3\source\memory.c"
 143  0056  0700     E  	mov a,_MemData[2]
 143  0057  0080     E  	mov _MemData[3],a
 143  0058  2800     R  	jmp _L30
 143  0059              _L20:
 151  0059              #line 151 "c:\users\h469388\desktop\todo\projects\1_ngb\1_firmware\ngb_low_power_consumption_v3\source\memory.c"
 151  0059  1F00     E  	clr _MemData[3]
 151  005A              _L30:
 152  005A              #line 152 "c:\users\h469388\desktop\todo\projects\1_ngb\1_firmware\ngb_low_power_consumption_v3\source\memory.c"
 152  005A  1F00     E  	clr _MemData[1]
 153  005B              #line 153 "c:\users\h469388\desktop\todo\projects\1_ngb\1_firmware\ngb_low_power_consumption_v3\source\memory.c"
"File: memory.c      Assembler  Version HGASM0202      Page 8

 153  005B  1F00     E  	clr _MemData[2]
 153  005C              _L28:
 194  005C              #line 194 "c:\users\h469388\desktop\todo\projects\1_ngb\1_firmware\ngb_low_power_consumption_v3\source\memory.c"
 194  005C  1F00     E  	clr _MemData[0]
 194  005D              _L12:
 194  005D  0003        	ret
 194  005E              _MemoryProcess endp
 194  005E              #line 194 "c:\users\h469388\desktop\todo\projects\1_ngb\1_firmware\ngb_low_power_consumption_v3\source\memory.c"
 194  005E              #pragma debug scope 1 1
 194  005E              #pragma debug variable 8 1 ___mp1l "__mp1l" 1
 194  005E              #pragma debug variable 8 1 ___mp1h "__mp1h" 1
 194  005E              #pragma debug struct_end
 194  005E              #pragma debug struct_end
 194  005E              #pragma debug union_end
 194  005E              #pragma debug union_end
 194  005E              #pragma debug variable 43 1 ___eea "__eea" 1
 194  005E              #pragma debug variable 8 1 ___eed "__eed" 1
 194  005E              #pragma debug variable 8 1 ___iar1 "__iar1" 1
 194  005E              
 194  005E              ; output external variables
 194  005E              extern _CommData:byte
 194  005E              extern _SysData:byte
 194  005E              extern _MemData:byte
 194  005E              
 194  005E              ; 
 194  005E              ; Generated by holtek-gcc v3.19, Mon Oct 10 15:45:33 2022
 194  005E              ; Rebuild 718
 194  005E              ; end of file


        0 Errors, 0