"File: interrupt_5541.c  Assembler  Version HGASM0202      Page 1


   1  0000              ; Generated by holtek-gcc v3.19, Mon Oct 10 16:01:46 2022
   2  0000              ; 
   3  0000              ; Configuration:
   4  0000              ;       with long instruction
   5  0000              ;       Single ROM, Multi-RAM
   6  0000              ;       bits_per_rom_unit:16
   7  0000              ;       with mp1
   8  0000              ;       with tbhp, address(0x9)
   9  0000              ;          Use tabrd-const
  10  0000              ;       
  11  0000              ; SFR address of long-instruction arch:
  12  0000              ;    mp0 = -1,1,0
  13  0000              ;    mp1 = 4,3,2
  14  0000              ;    mp2 = 14,13,12
  15  0000              ;    tbp = 9,7,8
  16  0000              ;    acc = 5
  17  0000              ;    pcl = 6
  18  0000              ;    status = 10
  19  0000              ;    bp = 11
  20  0000              ;    intc = 72
  21  0000              ;       
  22  0000              ;       
  23  0000              ; use 'tabrdc' instead of 'tabrd'
  24  0000              ;       
  25  0000              
  26  0000              #pragma translator "holtek-gcc 4.6.4" "3.19" "build 20130711"
  27  0000              ; Rebuild 718
  28  0000              
  29  0000              ir equ [2]
  30  0000              mp equ [3]
  31  0000              sbp equ [4]
  32  0000              acc equ [5]
  33  0000              bp equ [11]
  34  0000              tblp equ [7]
  35  0000              tbhp equ [9]
  36  0000              status equ [10]
  37  0000              c equ [10].0
  38  0000              ac equ [10].1
  39  0000              z equ [10].2
  40  0000              ov equ [10].3
  41  0000              cz equ [10].6
  42  0000              sc equ [10].7
  43  0000              intc equ [72]
  44  0000              
  45  0000              extern ra:byte
  46  0000              extern rb:byte
  47  0000              extern rc:byte
  48  0000              extern rd:byte
  49  0000              extern re:byte
  50  0000              extern rf:byte
  51  0000              extern rg:byte
  52  0000              extern rh:byte
  53  0000              extern _Crom2Prom:near
  54  0000              extern _Crom2PromNext:near
  55  0000              
  56  0000              RAMBANK 0 @BITDATASEC, @BITDATASEC1
  57  0000              @HCCINIT	.section 'data'
  58  0000              @HCCINIT0	.section 'data'
  59  0000              @BITDATASEC	 .section 'data'
"File: interrupt_5541.ASM  Assembler  Version HGASM0202      Page 2

  60  0000              @BITDATASEC1	 .section 'data'
  61  0000              
  62  0000              #pragma debug scope 1 1
  63  0000              	extern __DELAY3:near
  64  0000              	extern __DELAYX3:near
  65  0000              	extern __DELAYX6:near
  66  0000              	extern __DELAYY5:near
  67  0000              	extern __DELAYY3:near
  68  0000              	extern _builtin_holtek_delay_2:byte
  69  0000              ___scc equ [18]
  70  0000              ___pltchyc equ [58]
  71  0000              ___ctm0c0 equ [39]
  72  0000              ___intc0 equ [72]
  73  0000              public _ISR_PLTCMP0
  74  0000              #pragma debug scope 2 1

  21  0000              #line 21 "c:\users\h469388\desktop\todo\projects\1_ngb\1_firmware\ngb_low_power_consumption_v3\source\interrupt_5541.c"
  21  0000              @ISR_PLTCMP0_code .section at 4 'code'
  21  0000              ifdef INTERRUPT_DELAY
  21  0000              	nop
  21  0000              endif
  21  0000  0080     E  	mov r1,a
  21  0001  070A        	mov a,status
  21  0002              ifndef INTERRUPT_DELAY
  21  0002  0080     E  	mov r2,a
  21  0003              endif
  21  0003  2800     R  	jmp _ISR_PLTCMP0
  21  0004              #pragma debug scope 1 1
  21  0004              @dummy4 endp
  21  0004              #pragma debug scope 3 1
  21  0000              _ISR_PLTCMP0 .section 'code'
  21  0000              _ISR_PLTCMP0 proc
  21  0000              ifdef INTERRUPT_DELAY
  21  0000              	mov r2,a
  21  0000              endif
  22  0000              #line 22 "c:\users\h469388\desktop\todo\projects\1_ngb\1_firmware\ngb_low_power_consumption_v3\source\interrupt_5541.c"
  22  0000  0F03        	mov a,3
  22  0001  0092        	mov [18],a
  24  0002              #line 24 "c:\users\h469388\desktop\todo\projects\1_ngb\1_firmware\ngb_low_power_consumption_v3\source\interrupt_5541.c"
  24  0002  3A3A        	snz [58].4
  24  0003  2800     R  	jmp _L2
  26  0004              #line 26 "c:\users\h469388\desktop\todo\projects\1_ngb\1_firmware\ngb_low_power_consumption_v3\source\interrupt_5541.c"
  26  0004  363A        	clr [58].4
  27  0005              #line 27 "c:\users\h469388\desktop\todo\projects\1_ngb\1_firmware\ngb_low_power_consumption_v3\source\interrupt_5541.c"
  27  0005  35A7        	clr [39].3
  28  0006              #line 28 "c:\users\h469388\desktop\todo\projects\1_ngb\1_firmware\ngb_low_power_consumption_v3\source\interrupt_5541.c"
  28  0006  0F02        	mov a,2
  28  0007  0092        	mov [18],a
  28  0008  2800     R  	jmp _L4
  28  0009              _L2:
  34  0009              #line 34 "c:\users\h469388\desktop\todo\projects\1_ngb\1_firmware\ngb_low_power_consumption_v3\source\interrupt_5541.c"
  34  0009  323A        	set [58].4
  35  000A              #line 35 "c:\users\h469388\desktop\todo\projects\1_ngb\1_firmware\ngb_low_power_consumption_v3\source\interrupt_5541.c"
  35  000A  35A7        	clr [39].3
  36  000B              #line 36 "c:\users\h469388\desktop\todo\projects\1_ngb\1_firmware\ngb_low_power_consumption_v3\source\interrupt_5541.c"
  36  000B  31A7        	set [39].3
  37  000C              #line 37 "c:\users\h469388\desktop\todo\projects\1_ngb\1_firmware\ngb_low_power_consumption_v3\source\interrupt_5541.c"
  37  000C  0F03        	mov a,3
  37  000D  0092        	mov [18],a
  37  000E              _L4:
"File: interrupt_5541.c  Assembler  Version HGASM0202      Page 3

  38  000E              #line 38 "c:\users\h469388\desktop\todo\projects\1_ngb\1_firmware\ngb_low_power_consumption_v3\source\interrupt_5541.c"
  38  000E  3400     E  	clr _SysData[0].0
  42  000F              #line 42 "c:\users\h469388\desktop\todo\projects\1_ngb\1_firmware\ngb_low_power_consumption_v3\source\interrupt_5541.c"
  42  000F  3648        	clr [72].4
  42  0010  0700     E  	mov a,r2
  42  0011  008A        	mov status,a
  42  0012  0700     E  	mov a,r1
  42  0013  0004        	reti
  42  0014              _ISR_PLTCMP0 endp
  42  0014              
  42  0014              #line 42 "c:\users\h469388\desktop\todo\projects\1_ngb\1_firmware\ngb_low_power_consumption_v3\source\interrupt_5541.c"
  42  0014              #pragma debug scope 1 1
  42  0014              public _ISR_INT0
  42  0014              #pragma debug scope 4 1
  48  0014              #line 48 "c:\users\h469388\desktop\todo\projects\1_ngb\1_firmware\ngb_low_power_consumption_v3\source\interrupt_5541.c"
  48  0000              @ISR_INT0_code .section at 8 'code'
  48  0000              _ISR_INT0:
  48  0000              ifdef INTERRUPT_DELAY
  48  0000              	nop
  48  0000              endif
  48  0000  0004        	reti
  48  0001              #line 48 "c:\users\h469388\desktop\todo\projects\1_ngb\1_firmware\ngb_low_power_consumption_v3\source\interrupt_5541.c"
  48  0001              #pragma debug scope 1 1
  48  0001              public _ISR_INT1
  48  0001              #pragma debug scope 5 1
  54  0001              #line 54 "c:\users\h469388\desktop\todo\projects\1_ngb\1_firmware\ngb_low_power_consumption_v3\source\interrupt_5541.c"
  54  0000              @ISR_INT1_code .section at 12 'code'
  54  0000              _ISR_INT1:
  54  0000              ifdef INTERRUPT_DELAY
  54  0000              	nop
  54  0000              endif
  54  0000  0004        	reti
  54  0001              #line 54 "c:\users\h469388\desktop\todo\projects\1_ngb\1_firmware\ngb_low_power_consumption_v3\source\interrupt_5541.c"
  54  0001              #pragma debug scope 1 1
  54  0001              public _ISR_UART
  54  0001              #pragma debug scope 6 1
  60  0001              #line 60 "c:\users\h469388\desktop\todo\projects\1_ngb\1_firmware\ngb_low_power_consumption_v3\source\interrupt_5541.c"
  60  0000              @ISR_UART_code .section at 16 'code'
  60  0000              _ISR_UART:
  60  0000              ifdef INTERRUPT_DELAY
  60  0000              	nop
  60  0000              endif
  60  0000  0004        	reti
  60  0001              #line 60 "c:\users\h469388\desktop\todo\projects\1_ngb\1_firmware\ngb_low_power_consumption_v3\source\interrupt_5541.c"
  60  0001              #pragma debug scope 1 1
  60  0001              public _ISR_LVD
  60  0001              #pragma debug scope 7 1
  66  0001              #line 66 "c:\users\h469388\desktop\todo\projects\1_ngb\1_firmware\ngb_low_power_consumption_v3\source\interrupt_5541.c"
  66  0000              @ISR_LVD_code .section at 20 'code'
  66  0000              _ISR_LVD:
  66  0000              ifdef INTERRUPT_DELAY
  66  0000              	nop
  66  0000              endif
  66  0000  0004        	reti
  66  0001              #line 66 "c:\users\h469388\desktop\todo\projects\1_ngb\1_firmware\ngb_low_power_consumption_v3\source\interrupt_5541.c"
  66  0001              #pragma debug scope 1 1
  66  0001              public _ISR_ADC_EEPROM
  66  0001              #pragma debug scope 8 1
  72  0001              #line 72 "c:\users\h469388\desktop\todo\projects\1_ngb\1_firmware\ngb_low_power_consumption_v3\source\interrupt_5541.c"
  72  0000              @ISR_ADC_EEPROM_code .section at 24 'code'
"File: interrupt_5541.c  Assembler  Version HGASM0202      Page 4

  72  0000              _ISR_ADC_EEPROM:
  72  0000              ifdef INTERRUPT_DELAY
  72  0000              	nop
  72  0000              endif
  72  0000  0004        	reti
  72  0001              #line 72 "c:\users\h469388\desktop\todo\projects\1_ngb\1_firmware\ngb_low_power_consumption_v3\source\interrupt_5541.c"
  72  0001              #pragma debug scope 1 1
  72  0001              ___mfi1 equ [77]
  72  0001              ___ptm0c0 equ [82]
  72  0001              ___ptm0c2 equ [84]
  72  0001              ___pltsw equ [49]
  72  0001              ___pltda2l equ [53]
  72  0001              ___ptm0rpl equ [91]
  72  0001              ___ptm0rph equ [92]
  72  0001              ___pltc0c equ [54]
  72  0001              ___ctm0c1 equ [40]
  72  0001              ___ctm0al equ [43]
  72  0001              ___ctm0ah equ [44]
  72  0001              ___mfi3 equ [79]
  72  0001              ___intc2 equ [74]
  72  0001              ___ctm1c0 equ [101]
  72  0001              ___pltdacc equ [50]
  72  0001              ___pltac equ [59]
  72  0001              ___pltc1c equ [56]
  72  0001              ___pa equ [20]
  72  0001              public _ISR_PTM0CMP_PTM0CMA
  72  0001              #pragma debug scope 9 1
  78  0001              #line 78 "c:\users\h469388\desktop\todo\projects\1_ngb\1_firmware\ngb_low_power_consumption_v3\source\interrupt_5541.c"
  78  0000              @ISR_PTM0CMP_PTM0CMA_code .section at 28 'code'
  78  0000              ifdef INTERRUPT_DELAY
  78  0000              	nop
  78  0000              endif
  78  0000  0080     E  	mov r1,a
  78  0001  070A        	mov a,status
  78  0002              ifndef INTERRUPT_DELAY
  78  0002  0080     E  	mov r2,a
  78  0003              endif
  78  0003  2800     R  	jmp _ISR_PTM0CMP_PTM0CMA
  78  0004              #pragma debug scope 1 1
  78  0004              @dummy28 endp
  78  0004              #pragma debug scope 10 1
  78  0000              _ISR_PTM0CMP_PTM0CMA .section 'code'
  78  0000              _ISR_PTM0CMP_PTM0CMA proc
  78  0000  0002[       local _ISR_PTM0CMP_PTM0CMA_2 db 2 dup(?)
            00
            ]
  78  0000              ifdef INTERRUPT_DELAY
  78  0000              	mov r2,a
  78  0000              endif
  78  0000  0703        	mov a,mp
  78  0001  0080     E  	mov r3,a
  78  0002  0704        	mov a,sbp
  78  0003  0080     E  	mov r4,a
  78  0004  0707        	mov a,tblp
  78  0005  0080     E  	mov r5,a
  78  0006  0709        	mov a,tbhp
  78  0007  0080     E  	mov r6,a
  79  0008              #line 79 "c:\users\h469388\desktop\todo\projects\1_ngb\1_firmware\ngb_low_power_consumption_v3\source\interrupt_5541.c"
  79  0008  35A7        	clr [39].3
  82  0009              #line 82 "c:\users\h469388\desktop\todo\projects\1_ngb\1_firmware\ngb_low_power_consumption_v3\source\interrupt_5541.c"
"File: interrupt_5541.c  Assembler  Version HGASM0202      Page 5

  82  0009  3ACD        	snz [77].5
  82  000A  2800     R  	jmp _L12
  82  000B              #pragma debug scope 11 10
  82  000B              ;begin block, line: 82.-1
  87  000B              #line 87 "c:\users\h469388\desktop\todo\projects\1_ngb\1_firmware\ngb_low_power_consumption_v3\source\interrupt_5541.c"
  87  000B  0F01        	mov a,1
  87  000C  0080     E  	mov _FuncData[3],a
  89  000D              #line 89 "c:\users\h469388\desktop\todo\projects\1_ngb\1_firmware\ngb_low_power_consumption_v3\source\interrupt_5541.c"
  89  000D  0F03        	mov a,3
  89  000E  0092        	mov [18],a
  90  000F              #line 90 "c:\users\h469388\desktop\todo\projects\1_ngb\1_firmware\ngb_low_power_consumption_v3\source\interrupt_5541.c"
  90  000F  35D2        	clr [82].3
  91  0010              #line 91 "c:\users\h469388\desktop\todo\projects\1_ngb\1_firmware\ngb_low_power_consumption_v3\source\interrupt_5541.c"
  91  0010  31D2        	set [82].3
  92  0011              #line 92 "c:\users\h469388\desktop\todo\projects\1_ngb\1_firmware\ngb_low_power_consumption_v3\source\interrupt_5541.c"
  92  0011  37D2        	clr [82].7
  95  0012              #line 95 "c:\users\h469388\desktop\todo\projects\1_ngb\1_firmware\ngb_low_power_consumption_v3\source\interrupt_5541.c"
  95  0012  3C54        	sz [84].0
  95  0013  2800     R  	jmp _L13
  98  0014              #line 98 "c:\users\h469388\desktop\todo\projects\1_ngb\1_firmware\ngb_low_power_consumption_v3\source\interrupt_5541.c"
  98  0014  3800     E  	snz _CommData[7].7
  98  0015  2800     R  	jmp _L13
  98  0016  1700     E  	sdza _CommData[26]
  98  0017  2800     R  	jmp _L13
 100  0018              #line 100 "c:\users\h469388\desktop\todo\projects\1_ngb\1_firmware\ngb_low_power_consumption_v3\source\interrupt_5541.c"
 100  0018  3031        	set [49].0
 101  0019              #line 101 "c:\users\h469388\desktop\todo\projects\1_ngb\1_firmware\ngb_low_power_consumption_v3\source\interrupt_5541.c"
 101  0019  0F26        	mov a,38
 101  001A  00B5        	mov [53],a
 102  001B              #line 102 "c:\users\h469388\desktop\todo\projects\1_ngb\1_firmware\ngb_low_power_consumption_v3\source\interrupt_5541.c"
 102  001B  0F01        	mov a,1
 102  001C  0080     R  	mov _m_ptm0Pfunc[0],a
 103  001D              #line 103 "c:\users\h469388\desktop\todo\projects\1_ngb\1_firmware\ngb_low_power_consumption_v3\source\interrupt_5541.c"
 103  001D  0700     E  	mov a,_CommData[0]
 103  001E  0A02        	sub a,2
 103  001F  390A        	snz z
 103  0020  2800     R  	jmp _L14
 105  0021              #line 105 "c:\users\h469388\desktop\todo\projects\1_ngb\1_firmware\ngb_low_power_consumption_v3\source\interrupt_5541.c"
 105  0021  0700     E  	mov a,_CommData[18]
 105  0022  0080     E  	mov rb,a
 105  0023  0700     E  	mov a,_CommData[19]
 105  0024  0080     E  	mov rc,a
 105  0025  0700     E  	mov a,rb
 105  0026  0500     E  	or a,rc
 105  0027  3D0A        	sz z
 105  0028  2800     R  	jmp _L15
 107  0029              #line 107 "c:\users\h469388\desktop\todo\projects\1_ngb\1_firmware\ngb_low_power_consumption_v3\source\interrupt_5541.c"
 107  0029              ;# 107 "c:\users\h469388\desktop\todo\projects\1_ngb\1_firmware\ngb_low_power_consumption_v3\source\interrupt_5541.c" 1
 107  0029              	IF 15>263690
 107  0029              ;# 107 "c:\users\h469388\desktop\todo\projects\1_ngb\1_firmware\ngb_low_power_consumption_v3\source\interrupt_5541.c" 1
 107  0029              	ERRMESSAGE 'the value 15of the argument exceeds the maxinum 263690'
 107  0029              	ENDIF
 107  0029              ;# 107 "c:\users\h469388\desktop\todo\projects\1_ngb\1_firmware\ngb_low_power_consumption_v3\source\interrupt_5541.c" 1
 107  0029              	IF 15<0
 107  0029              ;# 107 "c:\users\h469388\desktop\todo\projects\1_ngb\1_firmware\ngb_low_power_consumption_v3\source\interrupt_5541.c" 1
 107  0029              	ERRMESSAGE 'the value 15 of the argument exceeds the mininum 0'
 107  0029              	ENDIF
 107  0029              ;# 107 "c:\users\h469388\desktop\todo\projects\1_ngb\1_firmware\ngb_low_power_consumption_v3\source\interrupt_5541.c" 1
 107  0029              	IF 15==0
 107  0029              ;# 107 "c:\users\h469388\desktop\todo\projects\1_ngb\1_firmware\ngb_low_power_consumption_v3\source\interrupt_5541.c" 1
"File: interrupt_5541.c  Assembler  Version HGASM0202      Page 6

 107  0029              	JMP $
 107  0029              	ENDIF
 107  0029              ;# 107 "c:\users\h469388\desktop\todo\projects\1_ngb\1_firmware\ngb_low_power_consumption_v3\source\interrupt_5541.c" 1
 107  0029              	IF 15==1
 107  0029              ;# 107 "c:\users\h469388\desktop\todo\projects\1_ngb\1_firmware\ngb_low_power_consumption_v3\source\interrupt_5541.c" 1
 107  0029              	NOP
 107  0029              	ENDIF
 107  0029              ;# 107 "c:\users\h469388\desktop\todo\projects\1_ngb\1_firmware\ngb_low_power_consumption_v3\source\interrupt_5541.c" 1
 107  0029              	IF 15==2
 107  0029              ;# 107 "c:\users\h469388\desktop\todo\projects\1_ngb\1_firmware\ngb_low_power_consumption_v3\source\interrupt_5541.c" 1
 107  0029              	NOP
 107  0029              ;# 107 "c:\users\h469388\desktop\todo\projects\1_ngb\1_firmware\ngb_low_power_consumption_v3\source\interrupt_5541.c" 1
 107  0029              	NOP
 107  0029              	ENDIF
 107  0029              ;# 107 "c:\users\h469388\desktop\todo\projects\1_ngb\1_firmware\ngb_low_power_consumption_v3\source\interrupt_5541.c" 1
 107  0029              	IF 15==3
 107  0029              ;# 107 "c:\users\h469388\desktop\todo\projects\1_ngb\1_firmware\ngb_low_power_consumption_v3\source\interrupt_5541.c" 1
 107  0029              	NOP
 107  0029              ;# 107 "c:\users\h469388\desktop\todo\projects\1_ngb\1_firmware\ngb_low_power_consumption_v3\source\interrupt_5541.c" 1
 107  0029              	NOP
 107  0029              ;# 107 "c:\users\h469388\desktop\todo\projects\1_ngb\1_firmware\ngb_low_power_consumption_v3\source\interrupt_5541.c" 1
 107  0029              	NOP
 107  0029              	ENDIF
 107  0029              ;# 107 "c:\users\h469388\desktop\todo\projects\1_ngb\1_firmware\ngb_low_power_consumption_v3\source\interrupt_5541.c" 1
 107  0029              	IF (15<8) AND (15>3)
 107  0029              ;# 107 "c:\users\h469388\desktop\todo\projects\1_ngb\1_firmware\ngb_low_power_consumption_v3\source\interrupt_5541.c" 1
 107  0029              	CALL __DELAY3 + 7 -15
 107  0029              	ENDIF
 107  0029              ;# 107 "c:\users\h469388\desktop\todo\projects\1_ngb\1_firmware\ngb_low_power_consumption_v3\source\interrupt_5541.c" 1
 107  0029              	IF (15< 0404h) AND (15>7)
 107  0029              ;# 107 "c:\users\h469388\desktop\todo\projects\1_ngb\1_firmware\ngb_low_power_consumption_v3\source\interrupt_5541.c" 1
 107  0029  0F02        	MOV A,15/4-1
 107  002A              ;# 107 "c:\users\h469388\desktop\todo\projects\1_ngb\1_firmware\ngb_low_power_consumption_v3\source\interrupt_5541.c" 1
 107  002A  2000     E  	CALL __DELAYX3 + 3 -(15 MOD 4)
 107  002B              	ENDIF
 107  002B              ;# 107 "c:\users\h469388\desktop\todo\projects\1_ngb\1_firmware\ngb_low_power_consumption_v3\source\interrupt_5541.c" 1
 107  002B              	IF (15< 0x40B) AND (15> 0403h)
 107  002B              ;# 107 "c:\users\h469388\desktop\todo\projects\1_ngb\1_firmware\ngb_low_power_consumption_v3\source\interrupt_5541.c" 1
 107  002B              	MOV A,0 
 107  002B              ;# 107 "c:\users\h469388\desktop\todo\projects\1_ngb\1_firmware\ngb_low_power_consumption_v3\source\interrupt_5541.c" 1
 107  002B              	CALL __DELAYX6 + 0x40a -15
 107  002B              	ENDIF
 107  002B              ;# 107 "c:\users\h469388\desktop\todo\projects\1_ngb\1_firmware\ngb_low_power_consumption_v3\source\interrupt_5541.c" 1
 107  002B              	IF (15 >= 0x40b) AND ((((15-9)%0402h)/4+1)>256)
 107  002B              ;# 107 "c:\users\h469388\desktop\todo\projects\1_ngb\1_firmware\ngb_low_power_consumption_v3\source\interrupt_5541.c" 1
 107  002B              	MOV A,(15-9)/0402h
 107  002B              ;# 107 "c:\users\h469388\desktop\todo\projects\1_ngb\1_firmware\ngb_low_power_consumption_v3\source\interrupt_5541.c" 1
 107  002B              	MOV _builtin_holtek_delay_2,A
 107  002B              ;# 107 "c:\users\h469388\desktop\todo\projects\1_ngb\1_firmware\ngb_low_power_consumption_v3\source\interrupt_5541.c" 1
 107  002B              	MOV A,0
 107  002B              ;# 107 "c:\users\h469388\desktop\todo\projects\1_ngb\1_firmware\ngb_low_power_consumption_v3\source\interrupt_5541.c" 1
 107  002B              	CALL __DELAYY5 +5- (((15-9)%0402h)%6)
 107  002B              	ENDIF
 107  002B              ;# 107 "c:\users\h469388\desktop\todo\projects\1_ngb\1_firmware\ngb_low_power_consumption_v3\source\interrupt_5541.c" 1
 107  002B              	IF (15 >= 0x40b) AND ((((15-9)%0402h)/4+1)<=256)
 107  002B              ;# 107 "c:\users\h469388\desktop\todo\projects\1_ngb\1_firmware\ngb_low_power_consumption_v3\source\interrupt_5541.c" 1
 107  002B              	MOV A,(15-9)/0402h
 107  002B              ;# 107 "c:\users\h469388\desktop\todo\projects\1_ngb\1_firmware\ngb_low_power_consumption_v3\source\interrupt_5541.c" 1
 107  002B              	MOV _builtin_holtek_delay_2,A
 107  002B              ;# 107 "c:\users\h469388\desktop\todo\projects\1_ngb\1_firmware\ngb_low_power_consumption_v3\source\interrupt_5541.c" 1
"File: interrupt_5541.c  Assembler  Version HGASM0202      Page 7

 107  002B              	MOV A,((15-9)%0402h)/4+1
 107  002B              ;# 107 "c:\users\h469388\desktop\todo\projects\1_ngb\1_firmware\ngb_low_power_consumption_v3\source\interrupt_5541.c" 1
 107  002B              	CALL __DELAYY3 +3-(((15-9)%0402h)%4)
 107  002B              	ENDIF
 108  002B              #line 108 "c:\users\h469388\desktop\todo\projects\1_ngb\1_firmware\ngb_low_power_consumption_v3\source\interrupt_5541.c"
 108  002B  3031        	set [49].0
 109  002C              #line 109 "c:\users\h469388\desktop\todo\projects\1_ngb\1_firmware\ngb_low_power_consumption_v3\source\interrupt_5541.c"
 109  002C  0F0D        	mov a,13
 109  002D  00B5        	mov [53],a
 110  002E              #line 110 "c:\users\h469388\desktop\todo\projects\1_ngb\1_firmware\ngb_low_power_consumption_v3\source\interrupt_5541.c"
 110  002E  0FEB        	mov a,235
 110  002F  0380     E  	addm a,rb
 110  0030  0FFF        	mov a,255
 110  0031  1380     E  	adcm a,rc
 111  0032              #line 111 "c:\users\h469388\desktop\todo\projects\1_ngb\1_firmware\ngb_low_power_consumption_v3\source\interrupt_5541.c"
 111  0032  1F00     E  	clr _timeLoopCounter[0]
 112  0033              #line 112 "c:\users\h469388\desktop\todo\projects\1_ngb\1_firmware\ngb_low_power_consumption_v3\source\interrupt_5541.c"
 112  0033  0700     E  	mov a,rb
 112  0034  00DB        	mov [91],a
 113  0035              #line 113 "c:\users\h469388\desktop\todo\projects\1_ngb\1_firmware\ngb_low_power_consumption_v3\source\interrupt_5541.c"
 113  0035  0700     E  	mov a,rc
 113  0036  00DC        	mov [92],a
 113  0037  2800     R  	jmp _L16
 113  0038              _L15:
 117  0038              #line 117 "c:\users\h469388\desktop\todo\projects\1_ngb\1_firmware\ngb_low_power_consumption_v3\source\interrupt_5541.c"
 117  0038  2000     E  	call _PltOpaSwitchOff
 118  0039              #line 118 "c:\users\h469388\desktop\todo\projects\1_ngb\1_firmware\ngb_low_power_consumption_v3\source\interrupt_5541.c"
 118  0039  1F00     R  	clr _m_ptm0Pfunc[0]
 118  003A  2800     R  	jmp _L16
 118  003B              _L14:
 123  003B              #line 123 "c:\users\h469388\desktop\todo\projects\1_ngb\1_firmware\ngb_low_power_consumption_v3\source\interrupt_5541.c"
 123  003B  3031        	set [49].0
 124  003C              #line 124 "c:\users\h469388\desktop\todo\projects\1_ngb\1_firmware\ngb_low_power_consumption_v3\source\interrupt_5541.c"
 124  003C  0F0D        	mov a,13
 124  003D  00B5        	mov [53],a
 124  003E              _L16:
 126  003E              #line 126 "c:\users\h469388\desktop\todo\projects\1_ngb\1_firmware\ngb_low_power_consumption_v3\source\interrupt_5541.c"
 126  003E  35D2        	clr [82].3
 127  003F              #line 127 "c:\users\h469388\desktop\todo\projects\1_ngb\1_firmware\ngb_low_power_consumption_v3\source\interrupt_5541.c"
 127  003F  31D2        	set [82].3
 127  0040              _L13:
 132  0040              #line 132 "c:\users\h469388\desktop\todo\projects\1_ngb\1_firmware\ngb_low_power_consumption_v3\source\interrupt_5541.c"
 132  0040  1836        	rla [54]
 132  0041  0E01        	and a,1
 132  0042  0080     E  	mov rb,a
 131  0043              #line 131 "c:\users\h469388\desktop\todo\projects\1_ngb\1_firmware\ngb_low_power_consumption_v3\source\interrupt_5541.c"
 131  0043  1836        	rla [54]
 131  0044  0E01        	and a,1
 131  0045  0080     E  	mov ra,a
 132  0046              #line 132 "c:\users\h469388\desktop\todo\projects\1_ngb\1_firmware\ngb_low_power_consumption_v3\source\interrupt_5541.c"
 132  0046  0700     E  	mov a,ra
 132  0047  0380     E  	addm a,rb
 133  0048              #line 133 "c:\users\h469388\desktop\todo\projects\1_ngb\1_firmware\ngb_low_power_consumption_v3\source\interrupt_5541.c"
 133  0048  1836        	rla [54]
 133  0049  0E01        	and a,1
 133  004A  0080     E  	mov ra,a
 133  004B  0700     E  	mov a,ra
 133  004C  0380     E  	addm a,rb
 134  004D              #line 134 "c:\users\h469388\desktop\todo\projects\1_ngb\1_firmware\ngb_low_power_consumption_v3\source\interrupt_5541.c"
 134  004D  1836        	rla [54]
"File: interrupt_5541.c  Assembler  Version HGASM0202      Page 8

 134  004E  0E01        	and a,1
 134  004F  0080     E  	mov ra,a
 134  0050  0700     E  	mov a,ra
 134  0051  0380     E  	addm a,rb
 135  0052              #line 135 "c:\users\h469388\desktop\todo\projects\1_ngb\1_firmware\ngb_low_power_consumption_v3\source\interrupt_5541.c"
 135  0052  1836        	rla [54]
 135  0053  0E01        	and a,1
 135  0054  0080     E  	mov ra,a
 135  0055  0700     E  	mov a,ra
 135  0056  0380     E  	addm a,rb
 136  0057              #line 136 "c:\users\h469388\desktop\todo\projects\1_ngb\1_firmware\ngb_low_power_consumption_v3\source\interrupt_5541.c"
 136  0057  1836        	rla [54]
 136  0058  0E01        	and a,1
 136  0059  0080     E  	mov ra,a
 136  005A  0700     E  	mov a,rb
 136  005B  0300     E  	add a,ra
 136  005C  0080     R  	mov _ISR_PTM0CMP_PTM0CMA_2[0],a
 138  005D              #line 138 "c:\users\h469388\desktop\todo\projects\1_ngb\1_firmware\ngb_low_power_consumption_v3\source\interrupt_5541.c"
 138  005D  0F03        	mov a,3
 138  005E  0200     R  	sub a,_ISR_PTM0CMP_PTM0CMA_2[0]
 138  005F  3C0A        	sz c
 138  0060  2800     R  	jmp _L17
 138  0061  1080     E  	sz _CommData[26]
 138  0062  2800     R  	jmp _L18
 141  0063              #line 141 "c:\users\h469388\desktop\todo\projects\1_ngb\1_firmware\ngb_low_power_consumption_v3\source\interrupt_5541.c"
 141  0063  2000     E  	call _PltOpaSwitchOff
 142  0064              #line 142 "c:\users\h469388\desktop\todo\projects\1_ngb\1_firmware\ngb_low_power_consumption_v3\source\interrupt_5541.c"
 142  0064  0F01        	mov a,1
 142  0065  0080     E  	mov _CommData[26],a
 143  0066              #line 143 "c:\users\h469388\desktop\todo\projects\1_ngb\1_firmware\ngb_low_power_consumption_v3\source\interrupt_5541.c"
 143  0066  0700     E  	mov a,_CommData[5]
 143  0067  0080     E  	mov ra,a
 143  0068  0F63        	mov a,99
 143  0069  0200     E  	sub a,ra
 143  006A  380A        	snz c
 143  006B  2800     R  	jmp _L19
 145  006C              #line 145 "c:\users\h469388\desktop\todo\projects\1_ngb\1_firmware\ngb_low_power_consumption_v3\source\interrupt_5541.c"
 145  006C  1400     E  	inca ra
 145  006D  0080     E  	mov _CommData[5],a
 145  006E              _L19:
 149  006E              #line 149 "c:\users\h469388\desktop\todo\projects\1_ngb\1_firmware\ngb_low_power_consumption_v3\source\interrupt_5541.c"
 149  006E  2000     E  	call _CommProtocol
 150  006F              #line 150 "c:\users\h469388\desktop\todo\projects\1_ngb\1_firmware\ngb_low_power_consumption_v3\source\interrupt_5541.c"
 150  006F  0700     R  	mov a,_CLIPDLIPFlag[0]
 150  0070  0A04        	sub a,4
 150  0071  390A        	snz z
 150  0072  2800     R  	jmp _L20
 152  0073              #line 152 "c:\users\h469388\desktop\todo\projects\1_ngb\1_firmware\ngb_low_power_consumption_v3\source\interrupt_5541.c"
 152  0073  1F00     E  	clr _FuncData[3]
 153  0074              #line 153 "c:\users\h469388\desktop\todo\projects\1_ngb\1_firmware\ngb_low_power_consumption_v3\source\interrupt_5541.c"
 153  0074  1F00     R  	clr _m_ptm0Pfunc[0]
 154  0075              #line 154 "c:\users\h469388\desktop\todo\projects\1_ngb\1_firmware\ngb_low_power_consumption_v3\source\interrupt_5541.c"
 154  0075  1F00     R  	clr _timeoutDurationFlag[0]
 155  0076              #line 155 "c:\users\h469388\desktop\todo\projects\1_ngb\1_firmware\ngb_low_power_consumption_v3\source\interrupt_5541.c"
 155  0076  1F00     R  	clr _CLIPDLIPFlag[0]
 158  0077              #line 158 "c:\users\h469388\desktop\todo\projects\1_ngb\1_firmware\ngb_low_power_consumption_v3\source\interrupt_5541.c"
 158  0077  0F30        	mov a,48
 158  0078  00A7        	mov [39],a
 159  0079              #line 159 "c:\users\h469388\desktop\todo\projects\1_ngb\1_firmware\ngb_low_power_consumption_v3\source\interrupt_5541.c"
 159  0079  0FC1        	mov a,193
"File: interrupt_5541.c  Assembler  Version HGASM0202      Page 9

 159  007A  00A8        	mov [40],a
 161  007B              #line 161 "c:\users\h469388\desktop\todo\projects\1_ngb\1_firmware\ngb_low_power_consumption_v3\source\interrupt_5541.c"
 161  007B  0F64        	mov a,100
 161  007C  00AB        	mov [43],a
 163  007D              #line 163 "c:\users\h469388\desktop\todo\projects\1_ngb\1_firmware\ngb_low_power_consumption_v3\source\interrupt_5541.c"
 163  007D  1F2C        	clr [44]
 164  007E              #line 164 "c:\users\h469388\desktop\todo\projects\1_ngb\1_firmware\ngb_low_power_consumption_v3\source\interrupt_5541.c"
 164  007E  36CF        	clr [79].5
 165  007F              #line 165 "c:\users\h469388\desktop\todo\projects\1_ngb\1_firmware\ngb_low_power_consumption_v3\source\interrupt_5541.c"
 165  007F  30CF        	set [79].1
 166  0080              #line 166 "c:\users\h469388\desktop\todo\projects\1_ngb\1_firmware\ngb_low_power_consumption_v3\source\interrupt_5541.c"
 166  0080  30CA        	set [74].1
 167  0081              #line 167 "c:\users\h469388\desktop\todo\projects\1_ngb\1_firmware\ngb_low_power_consumption_v3\source\interrupt_5541.c"
 167  0081  31A7        	set [39].3
 168  0082              #line 168 "c:\users\h469388\desktop\todo\projects\1_ngb\1_firmware\ngb_low_power_consumption_v3\source\interrupt_5541.c"
 168  0082  364D        	clr [77].4
 169  0083              #line 169 "c:\users\h469388\desktop\todo\projects\1_ngb\1_firmware\ngb_low_power_consumption_v3\source\interrupt_5541.c"
 169  0083  36CD        	clr [77].5
 170  0084              #line 170 "c:\users\h469388\desktop\todo\projects\1_ngb\1_firmware\ngb_low_power_consumption_v3\source\interrupt_5541.c"
 170  0084  35D2        	clr [82].3
 171  0085              #line 171 "c:\users\h469388\desktop\todo\projects\1_ngb\1_firmware\ngb_low_power_consumption_v3\source\interrupt_5541.c"
 171  0085  30C8        	set [72].1
 173  0086              #line 173 "c:\users\h469388\desktop\todo\projects\1_ngb\1_firmware\ngb_low_power_consumption_v3\source\interrupt_5541.c"
 173  0086  35E5        	clr [101].3
 174  0087              #line 174 "c:\users\h469388\desktop\todo\projects\1_ngb\1_firmware\ngb_low_power_consumption_v3\source\interrupt_5541.c"
 174  0087  0F03        	mov a,3
 174  0088  0092        	mov [18],a
 175  0089              #line 175 "c:\users\h469388\desktop\todo\projects\1_ngb\1_firmware\ngb_low_power_consumption_v3\source\interrupt_5541.c"
 175  0089  3400     E  	clr _SysData[0].0
 177  008A              #line 177 "c:\users\h469388\desktop\todo\projects\1_ngb\1_firmware\ngb_low_power_consumption_v3\source\interrupt_5541.c"
 177  008A  2800     R  	jmp _L11
 177  008B              _L20:
 181  008B              #line 181 "c:\users\h469388\desktop\todo\projects\1_ngb\1_firmware\ngb_low_power_consumption_v3\source\interrupt_5541.c"
 181  008B  3800     E  	snz _CommData[7].7
 181  008C  2800     R  	jmp _L22
 184  008D              #line 184 "c:\users\h469388\desktop\todo\projects\1_ngb\1_firmware\ngb_low_power_consumption_v3\source\interrupt_5541.c"
 184  008D  1F35        	clr [53]
 185  008E              #line 185 "c:\users\h469388\desktop\todo\projects\1_ngb\1_firmware\ngb_low_power_consumption_v3\source\interrupt_5541.c"
 185  008E  3132        	set [50].2
 186  008F              #line 186 "c:\users\h469388\desktop\todo\projects\1_ngb\1_firmware\ngb_low_power_consumption_v3\source\interrupt_5541.c"
 186  008F  333B        	set [59].6
 186  0090              _L22:
 190  0090              #line 190 "c:\users\h469388\desktop\todo\projects\1_ngb\1_firmware\ngb_low_power_consumption_v3\source\interrupt_5541.c"
 190  0090  0F02        	mov a,2
 190  0091  0080     R  	mov _m_ptm0Pfunc[0],a
 191  0092              #line 191 "c:\users\h469388\desktop\todo\projects\1_ngb\1_firmware\ngb_low_power_consumption_v3\source\interrupt_5541.c"
 191  0092  0FFA        	mov a,250
 191  0093  00DB        	mov [91],a
 192  0094              #line 192 "c:\users\h469388\desktop\todo\projects\1_ngb\1_firmware\ngb_low_power_consumption_v3\source\interrupt_5541.c"
 192  0094  1F5C        	clr [92]
 193  0095              #line 193 "c:\users\h469388\desktop\todo\projects\1_ngb\1_firmware\ngb_low_power_consumption_v3\source\interrupt_5541.c"
 193  0095  35D2        	clr [82].3
 194  0096              #line 194 "c:\users\h469388\desktop\todo\projects\1_ngb\1_firmware\ngb_low_power_consumption_v3\source\interrupt_5541.c"
 194  0096  31D2        	set [82].3
 195  0097              #line 195 "c:\users\h469388\desktop\todo\projects\1_ngb\1_firmware\ngb_low_power_consumption_v3\source\interrupt_5541.c"
 195  0097  1F00     E  	clr _timeLoopCounter[0]
 196  0098              #line 196 "c:\users\h469388\desktop\todo\projects\1_ngb\1_firmware\ngb_low_power_consumption_v3\source\interrupt_5541.c"
 196  0098  1F00     R  	clr _timeoutDurationFlag[0]
 196  0099  2800     R  	jmp _L23
 196  009A              _L17:
"File: interrupt_5541.c  Assembler  Version HGASM0202      Page 10

 199  009A              #line 199 "c:\users\h469388\desktop\todo\projects\1_ngb\1_firmware\ngb_low_power_consumption_v3\source\interrupt_5541.c"
 199  009A  0F01        	mov a,1
 199  009B  0200     R  	sub a,_ISR_PTM0CMP_PTM0CMA_2[0]
 199  009C  380A        	snz c
 199  009D  2800     R  	jmp _L18
 199  009E  1700     E  	sdza _CommData[26]
 199  009F  2800     R  	jmp _L18
 202  00A0              #line 202 "c:\users\h469388\desktop\todo\projects\1_ngb\1_firmware\ngb_low_power_consumption_v3\source\interrupt_5541.c"
 202  00A0  0F01        	mov a,1
 202  00A1  0080     R  	mov _timeoutDurationFlag[0],a
 203  00A2              #line 203 "c:\users\h469388\desktop\todo\projects\1_ngb\1_firmware\ngb_low_power_consumption_v3\source\interrupt_5541.c"
 203  00A2  0700     E  	mov a,_CommData[6]
 203  00A3  0080     E  	mov rb,a
 203  00A4  0700     E  	mov a,_CommData[7]
 203  00A5  0080     E  	mov rc,a
 203  00A6  0700     E  	mov a,rb
 203  00A7  0500     E  	or a,rc
 203  00A8  390A        	snz z
 203  00A9  2800     R  	jmp _L25
 205  00AA              #line 205 "c:\users\h469388\desktop\todo\projects\1_ngb\1_firmware\ngb_low_power_consumption_v3\source\interrupt_5541.c"
 205  00AA  0FF4        	mov a,244
 205  00AB  00DB        	mov [91],a
 206  00AC              #line 206 "c:\users\h469388\desktop\todo\projects\1_ngb\1_firmware\ngb_low_power_consumption_v3\source\interrupt_5541.c"
 206  00AC  0F01        	mov a,1
 206  00AD  00DC        	mov [92],a
 207  00AE              #line 207 "c:\users\h469388\desktop\todo\projects\1_ngb\1_firmware\ngb_low_power_consumption_v3\source\interrupt_5541.c"
 207  00AE  1F00     E  	clr _timeLoopCounter[0]
 208  00AF              #line 208 "c:\users\h469388\desktop\todo\projects\1_ngb\1_firmware\ngb_low_power_consumption_v3\source\interrupt_5541.c"
 208  00AF  35D2        	clr [82].3
 209  00B0              #line 209 "c:\users\h469388\desktop\todo\projects\1_ngb\1_firmware\ngb_low_power_consumption_v3\source\interrupt_5541.c"
 209  00B0  31D2        	set [82].3
 211  00B1              #line 211 "c:\users\h469388\desktop\todo\projects\1_ngb\1_firmware\ngb_low_power_consumption_v3\source\interrupt_5541.c"
 211  00B1  0F02        	mov a,2
 211  00B2  0080     R  	mov _m_ptm0Pfunc[0],a
 215  00B3              #line 215 "c:\users\h469388\desktop\todo\projects\1_ngb\1_firmware\ngb_low_power_consumption_v3\source\interrupt_5541.c"
 215  00B3  1080     E  	sz _CommData[0]
 215  00B4  2800     R  	jmp _L25
 217  00B5              #line 217 "c:\users\h469388\desktop\todo\projects\1_ngb\1_firmware\ngb_low_power_consumption_v3\source\interrupt_5541.c"
 217  00B5  0F01        	mov a,1
 217  00B6  0080     E  	mov _CommData[0],a
 217  00B7              _L25:
 223  00B7              #line 223 "c:\users\h469388\desktop\todo\projects\1_ngb\1_firmware\ngb_low_power_consumption_v3\source\interrupt_5541.c"
 223  00B7  0736        	mov a,[54]
 223  00B8  0080     E  	mov re,a
 226  00B9              #line 226 "c:\users\h469388\desktop\todo\projects\1_ngb\1_firmware\ngb_low_power_consumption_v3\source\interrupt_5541.c"
 226  00B9  0736        	mov a,[54]
 226  00BA  0080     E  	mov rf,a
 229  00BB              #line 229 "c:\users\h469388\desktop\todo\projects\1_ngb\1_firmware\ngb_low_power_consumption_v3\source\interrupt_5541.c"
 229  00BB  0736        	mov a,[54]
 229  00BC  0080     E  	mov rd,a
 232  00BD              #line 232 "c:\users\h469388\desktop\todo\projects\1_ngb\1_firmware\ngb_low_power_consumption_v3\source\interrupt_5541.c"
 232  00BD  0736        	mov a,[54]
 232  00BE  0080     E  	mov ra,a
 235  00BF              #line 235 "c:\users\h469388\desktop\todo\projects\1_ngb\1_firmware\ngb_low_power_consumption_v3\source\interrupt_5541.c"
 235  00BF  0736        	mov a,[54]
 235  00C0  0080     R  	mov _ISR_PTM0CMP_PTM0CMA_2[1],a
 225  00C1              #line 225 "c:\users\h469388\desktop\todo\projects\1_ngb\1_firmware\ngb_low_power_consumption_v3\source\interrupt_5541.c"
 225  00C1  1838        	rla [56]
 225  00C2  0E01        	and a,1
 225  00C3  0080     E  	mov rh,a
"File: interrupt_5541.c  Assembler  Version HGASM0202      Page 11

 222  00C4              #line 222 "c:\users\h469388\desktop\todo\projects\1_ngb\1_firmware\ngb_low_power_consumption_v3\source\interrupt_5541.c"
 222  00C4  1838        	rla [56]
 222  00C5  0E01        	and a,1
 222  00C6  0080     E  	mov rg,a
 225  00C7              #line 225 "c:\users\h469388\desktop\todo\projects\1_ngb\1_firmware\ngb_low_power_consumption_v3\source\interrupt_5541.c"
 225  00C7  0700     E  	mov a,rg
 225  00C8  0380     E  	addm a,rh
 228  00C9              #line 228 "c:\users\h469388\desktop\todo\projects\1_ngb\1_firmware\ngb_low_power_consumption_v3\source\interrupt_5541.c"
 228  00C9  1838        	rla [56]
 228  00CA  0E01        	and a,1
 228  00CB  0080     E  	mov rg,a
 228  00CC  0700     E  	mov a,rg
 228  00CD  0380     E  	addm a,rh
 231  00CE              #line 231 "c:\users\h469388\desktop\todo\projects\1_ngb\1_firmware\ngb_low_power_consumption_v3\source\interrupt_5541.c"
 231  00CE  1838        	rla [56]
 231  00CF  0E01        	and a,1
 231  00D0  0080     E  	mov rg,a
 231  00D1  0700     E  	mov a,rg
 231  00D2  0380     E  	addm a,rh
 234  00D3              #line 234 "c:\users\h469388\desktop\todo\projects\1_ngb\1_firmware\ngb_low_power_consumption_v3\source\interrupt_5541.c"
 234  00D3  1838        	rla [56]
 234  00D4  0E01        	and a,1
 234  00D5  0080     E  	mov rg,a
 234  00D6  0700     E  	mov a,rg
 234  00D7  0380     E  	addm a,rh
 237  00D8              #line 237 "c:\users\h469388\desktop\todo\projects\1_ngb\1_firmware\ngb_low_power_consumption_v3\source\interrupt_5541.c"
 237  00D8  1838        	rla [56]
 237  00D9  0E01        	and a,1
 237  00DA  0080     E  	mov rg,a
 237  00DB  0700     E  	mov a,rh
 237  00DC  0380     E  	addm a,rg
 237  00DD  0700     E  	mov a,rg
 237  00DE  0080     R  	mov _sucTmpDin[0],a
 226  00DF              #line 226 "c:\users\h469388\desktop\todo\projects\1_ngb\1_firmware\ngb_low_power_consumption_v3\source\interrupt_5541.c"
 226  00DF  1A80     E  	rlc rf
 226  00E0  1F00     E  	clr rf
 226  00E1  1A80     E  	rlc rf
 223  00E2              #line 223 "c:\users\h469388\desktop\todo\projects\1_ngb\1_firmware\ngb_low_power_consumption_v3\source\interrupt_5541.c"
 223  00E2  1A80     E  	rlc re
 223  00E3  1F00     E  	clr re
 223  00E4  1A80     E  	rlc re
 223  00E5  0700     E  	mov a,rf
 223  00E6  0380     E  	addm a,re
 229  00E7              #line 229 "c:\users\h469388\desktop\todo\projects\1_ngb\1_firmware\ngb_low_power_consumption_v3\source\interrupt_5541.c"
 229  00E7  1A80     E  	rlc rd
 229  00E8  1F00     E  	clr rd
 229  00E9  1A80     E  	rlc rd
 226  00EA              #line 226 "c:\users\h469388\desktop\todo\projects\1_ngb\1_firmware\ngb_low_power_consumption_v3\source\interrupt_5541.c"
 226  00EA  0700     E  	mov a,re
 226  00EB  0380     E  	addm a,rd
 232  00EC              #line 232 "c:\users\h469388\desktop\todo\projects\1_ngb\1_firmware\ngb_low_power_consumption_v3\source\interrupt_5541.c"
 232  00EC  1A80     E  	rlc ra
 232  00ED  1F00     E  	clr ra
 232  00EE  1A80     E  	rlc ra
 229  00EF              #line 229 "c:\users\h469388\desktop\todo\projects\1_ngb\1_firmware\ngb_low_power_consumption_v3\source\interrupt_5541.c"
 229  00EF  0700     E  	mov a,rd
 229  00F0  0380     E  	addm a,ra
 235  00F1              #line 235 "c:\users\h469388\desktop\todo\projects\1_ngb\1_firmware\ngb_low_power_consumption_v3\source\interrupt_5541.c"
 235  00F1  1800     R  	rla _ISR_PTM0CMP_PTM0CMA_2[1]
 235  00F2  0E01        	and a,1
"File: interrupt_5541.c  Assembler  Version HGASM0202      Page 12

 235  00F3  0080     E  	mov rh,a
 232  00F4              #line 232 "c:\users\h469388\desktop\todo\projects\1_ngb\1_firmware\ngb_low_power_consumption_v3\source\interrupt_5541.c"
 232  00F4  0700     E  	mov a,rh
 232  00F5  0380     E  	addm a,ra
 238  00F6              #line 238 "c:\users\h469388\desktop\todo\projects\1_ngb\1_firmware\ngb_low_power_consumption_v3\source\interrupt_5541.c"
 238  00F6  1836        	rla [54]
 238  00F7  0E01        	and a,1
 238  00F8  0080     E  	mov re,a
 235  00F9              #line 235 "c:\users\h469388\desktop\todo\projects\1_ngb\1_firmware\ngb_low_power_consumption_v3\source\interrupt_5541.c"
 235  00F9  0700     E  	mov a,re
 235  00FA  0380     E  	addm a,ra
 238  00FB              #line 238 "c:\users\h469388\desktop\todo\projects\1_ngb\1_firmware\ngb_low_power_consumption_v3\source\interrupt_5541.c"
 238  00FB  0700     R  	mov a,_ISR_PTM0CMP_PTM0CMA_2[0]
 238  00FC  0380     E  	addm a,ra
 240  00FD              #line 240 "c:\users\h469388\desktop\todo\projects\1_ngb\1_firmware\ngb_low_power_consumption_v3\source\interrupt_5541.c"
 240  00FD  0F03        	mov a,3
 240  00FE  0200     E  	sub a,ra
 240  00FF  380A        	snz c
 240  0100  2800     R  	jmp _L27
 243  0101              #line 243 "c:\users\h469388\desktop\todo\projects\1_ngb\1_firmware\ngb_low_power_consumption_v3\source\interrupt_5541.c"
 243  0101  0F01        	mov a,1
 243  0102  0080     E  	mov ra,a
 243  0103  0F03        	mov a,3
 243  0104  0200     E  	sub a,rg
 243  0105  380A        	snz c
 243  0106  2800     R  	jmp _L28
 243  0107  1F00     E  	clr ra
 243  0108              _L28:
 243  0108  0700     E  	mov a,ra
 243  0109  0080     R  	mov _sucTmpDin[0],a
 245  010A              #line 245 "c:\users\h469388\desktop\todo\projects\1_ngb\1_firmware\ngb_low_power_consumption_v3\source\interrupt_5541.c"
 245  010A  340A        	clr c
 245  010B  1A00     E  	rlca _CommData[8]
 245  010C  0080     E  	mov rd,a
 245  010D  1A00     E  	rlca _CommData[9]
 245  010E  0080     E  	mov re,a
 246  010F              #line 246 "c:\users\h469388\desktop\todo\projects\1_ngb\1_firmware\ngb_low_power_consumption_v3\source\interrupt_5541.c"
 246  010F  0700     E  	mov a,re
 246  0110  0080     E  	mov _CommData[9],a
 246  0111  0700     E  	mov a,ra
 246  0112  0500     E  	or a,rd
 246  0113  0080     E  	mov _CommData[8],a
 247  0114              #line 247 "c:\users\h469388\desktop\todo\projects\1_ngb\1_firmware\ngb_low_power_consumption_v3\source\interrupt_5541.c"
 247  0114  0700     E  	mov a,ra
 247  0115  0380     E  	addm a,_CommData[15]
 249  0116              #line 249 "c:\users\h469388\desktop\todo\projects\1_ngb\1_firmware\ngb_low_power_consumption_v3\source\interrupt_5541.c"
 249  0116  340A        	clr c
 249  0117  1A00     E  	rlca rb
 249  0118  0080     E  	mov _CommData[6],a
 249  0119  1A00     E  	rlca rc
 249  011A  0080     E  	mov _CommData[7],a
 250  011B              #line 250 "c:\users\h469388\desktop\todo\projects\1_ngb\1_firmware\ngb_low_power_consumption_v3\source\interrupt_5541.c"
 250  011B  1F00     E  	clr _CommData[26]
 250  011C  2800     R  	jmp _L29
 250  011D              _L27:
 256  011D              #line 256 "c:\users\h469388\desktop\todo\projects\1_ngb\1_firmware\ngb_low_power_consumption_v3\source\interrupt_5541.c"
 256  011D  2000     E  	call _PltOpaSwitchOff
 257  011E              #line 257 "c:\users\h469388\desktop\todo\projects\1_ngb\1_firmware\ngb_low_power_consumption_v3\source\interrupt_5541.c"
 257  011E  0F09        	mov a,9
 257  011F  0080     E  	mov _CommData[0],a
"File: interrupt_5541.c  Assembler  Version HGASM0202      Page 13

 258  0120              #line 258 "c:\users\h469388\desktop\todo\projects\1_ngb\1_firmware\ngb_low_power_consumption_v3\source\interrupt_5541.c"
 258  0120  1F00     E  	clr _CommData[6]
 258  0121  1F00     E  	clr _CommData[7]
 259  0122              #line 259 "c:\users\h469388\desktop\todo\projects\1_ngb\1_firmware\ngb_low_power_consumption_v3\source\interrupt_5541.c"
 259  0122  1F00     E  	clr _CommData[8]
 259  0123  1F00     E  	clr _CommData[9]
 260  0124              #line 260 "c:\users\h469388\desktop\todo\projects\1_ngb\1_firmware\ngb_low_power_consumption_v3\source\interrupt_5541.c"
 260  0124  1F00     E  	clr _CommData[5]
 260  0125              _L29:
 262  0125              #line 262 "c:\users\h469388\desktop\todo\projects\1_ngb\1_firmware\ngb_low_power_consumption_v3\source\interrupt_5541.c"
 262  0125  0700     E  	mov a,_CommData[0]
 262  0126  0A06        	sub a,6
 262  0127  390A        	snz z
 262  0128  2800     R  	jmp _L23
 264  0129              #line 264 "c:\users\h469388\desktop\todo\projects\1_ngb\1_firmware\ngb_low_power_consumption_v3\source\interrupt_5541.c"
 264  0129  1F35        	clr [53]
 265  012A              #line 265 "c:\users\h469388\desktop\todo\projects\1_ngb\1_firmware\ngb_low_power_consumption_v3\source\interrupt_5541.c"
 265  012A  3431        	clr [49].0
 266  012B              #line 266 "c:\users\h469388\desktop\todo\projects\1_ngb\1_firmware\ngb_low_power_consumption_v3\source\interrupt_5541.c"
 266  012B  3532        	clr [50].2
 267  012C              #line 267 "c:\users\h469388\desktop\todo\projects\1_ngb\1_firmware\ngb_low_power_consumption_v3\source\interrupt_5541.c"
 267  012C  373B        	clr [59].6
 267  012D  2800     R  	jmp _L23
 267  012E              _L18:
 272  012E              #line 272 "c:\users\h469388\desktop\todo\projects\1_ngb\1_firmware\ngb_low_power_consumption_v3\source\interrupt_5541.c"
 272  012E  2000     E  	call _PltOpaSwitchOff
 272  012F              _L23:
 275  012F              #line 275 "c:\users\h469388\desktop\todo\projects\1_ngb\1_firmware\ngb_low_power_consumption_v3\source\interrupt_5541.c"
 275  012F  3000     E  	set _SysData[0].0
 276  0130              #line 276 "c:\users\h469388\desktop\todo\projects\1_ngb\1_firmware\ngb_low_power_consumption_v3\source\interrupt_5541.c"
 276  0130  36CD        	clr [77].5
 276  0131              _L12:
 276  0131              #pragma debug scope 10 1
 281  0131              #line 281 "c:\users\h469388\desktop\todo\projects\1_ngb\1_firmware\ngb_low_power_consumption_v3\source\interrupt_5541.c"
 281  0131  3A4D        	snz [77].4
 281  0132  2800     R  	jmp _L11
 284  0133              #line 284 "c:\users\h469388\desktop\todo\projects\1_ngb\1_firmware\ngb_low_power_consumption_v3\source\interrupt_5541.c"
 284  0133  35D2        	clr [82].3
 285  0134              #line 285 "c:\users\h469388\desktop\todo\projects\1_ngb\1_firmware\ngb_low_power_consumption_v3\source\interrupt_5541.c"
 285  0134  31D2        	set [82].3
 288  0135              #line 288 "c:\users\h469388\desktop\todo\projects\1_ngb\1_firmware\ngb_low_power_consumption_v3\source\interrupt_5541.c"
 288  0135  0700     E  	mov a,_timeLoopCounter[0]
 288  0136  0080     R  	mov _ISR_PTM0CMP_PTM0CMA_2[0],a
 288  0137  0700     R  	mov a,_ISR_PTM0CMP_PTM0CMA_2[0]
 288  0138  0A00        	sub a,0
 288  0139  3D0A        	sz z
 288  013A  2800     R  	jmp _L31
 288  013B  0A01        	sub a,(1)-(0)
 288  013C  3D0A        	sz z
 288  013D  2800     R  	jmp _L32
 288  013E  0700     R  	mov a,_ISR_PTM0CMP_PTM0CMA_2[0]
 288  013F  0A02        	sub a,2
 288  0140  3D0A        	sz z
 288  0141  2800     R  	jmp _L33
 288  0142  0A01        	sub a,(3)-(2)
 288  0143  3D0A        	sz z
 288  0144  2800     R  	jmp _L33
 288  0145  0700     R  	mov a,_ISR_PTM0CMP_PTM0CMA_2[0]
 288  0146  0A04        	sub a,4
 288  0147  3D0A        	sz z
"File: interrupt_5541.c  Assembler  Version HGASM0202      Page 14

 288  0148  2800     R  	jmp _L33
 288  0149  0700     R  	mov a,_ISR_PTM0CMP_PTM0CMA_2[0]
 288  014A  0A05        	sub a,5
 288  014B  390A        	snz z
 288  014C  2800     R  	jmp _L30
 288  014D  2800     R  	jmp _L33
 288  014E              _L31:
 293  014E              #line 293 "c:\users\h469388\desktop\todo\projects\1_ngb\1_firmware\ngb_low_power_consumption_v3\source\interrupt_5541.c"
 293  014E  0700     R  	mov a,_m_ptm0Pfunc[0]
 293  014F  0A00        	sub a,0
 293  0150  3D0A        	sz z
 293  0151  2800     R  	jmp _L34
 293  0152  0A01        	sub a,(1)-(0)
 293  0153  3D0A        	sz z
 293  0154  2800     R  	jmp _L35
 293  0155  0700     R  	mov a,_m_ptm0Pfunc[0]
 293  0156  0A02        	sub a,2
 293  0157  390A        	snz z
 293  0158  2800     R  	jmp _L30
 293  0159  2800     R  	jmp _L65
 293  015A              _L35:
 297  015A              #line 297 "c:\users\h469388\desktop\todo\projects\1_ngb\1_firmware\ngb_low_power_consumption_v3\source\interrupt_5541.c"
 297  015A  2000     E  	call _PltOpaSwitchOff
 298  015B              #line 298 "c:\users\h469388\desktop\todo\projects\1_ngb\1_firmware\ngb_low_power_consumption_v3\source\interrupt_5541.c"
 298  015B  1F00     R  	clr _m_ptm0Pfunc[0]
 299  015C              #line 299 "c:\users\h469388\desktop\todo\projects\1_ngb\1_firmware\ngb_low_power_consumption_v3\source\interrupt_5541.c"
 299  015C  0F04        	mov a,4
 299  015D  0080     E  	mov _timeLoopCounter[0],a
 300  015E              #line 300 "c:\users\h469388\desktop\todo\projects\1_ngb\1_firmware\ngb_low_power_consumption_v3\source\interrupt_5541.c"
 300  015E  1FDB        	set [91]
 301  015F              #line 301 "c:\users\h469388\desktop\todo\projects\1_ngb\1_firmware\ngb_low_power_consumption_v3\source\interrupt_5541.c"
 301  015F  0F03        	mov a,3
 301  0160  00DC        	mov [92],a
 302  0161              #line 302 "c:\users\h469388\desktop\todo\projects\1_ngb\1_firmware\ngb_low_power_consumption_v3\source\interrupt_5541.c"
 302  0161  35D2        	clr [82].3
 303  0162              #line 303 "c:\users\h469388\desktop\todo\projects\1_ngb\1_firmware\ngb_low_power_consumption_v3\source\interrupt_5541.c"
 303  0162  31D2        	set [82].3
 304  0163              #line 304 "c:\users\h469388\desktop\todo\projects\1_ngb\1_firmware\ngb_low_power_consumption_v3\source\interrupt_5541.c"
 304  0163  37D2        	clr [82].7
 306  0164              #line 306 "c:\users\h469388\desktop\todo\projects\1_ngb\1_firmware\ngb_low_power_consumption_v3\source\interrupt_5541.c"
 306  0164  2800     R  	jmp _L30
 306  0165              _L65:
 308  0165              #line 308 "c:\users\h469388\desktop\todo\projects\1_ngb\1_firmware\ngb_low_power_consumption_v3\source\interrupt_5541.c"
 308  0165  3BB6        	snz [54].7
 308  0166  2800     R  	jmp _L37
 310  0167              #line 310 "c:\users\h469388\desktop\todo\projects\1_ngb\1_firmware\ngb_low_power_consumption_v3\source\interrupt_5541.c"
 310  0167  1F00     R  	clr _m_ptm0Pfunc[0]
 311  0168              #line 311 "c:\users\h469388\desktop\todo\projects\1_ngb\1_firmware\ngb_low_power_consumption_v3\source\interrupt_5541.c"
 311  0168  0F71        	mov a,113
 311  0169  00DB        	mov [91],a
 312  016A              #line 312 "c:\users\h469388\desktop\todo\projects\1_ngb\1_firmware\ngb_low_power_consumption_v3\source\interrupt_5541.c"
 312  016A  0F02        	mov a,2
 312  016B  00DC        	mov [92],a
 313  016C              #line 313 "c:\users\h469388\desktop\todo\projects\1_ngb\1_firmware\ngb_low_power_consumption_v3\source\interrupt_5541.c"
 313  016C  35D2        	clr [82].3
 314  016D              #line 314 "c:\users\h469388\desktop\todo\projects\1_ngb\1_firmware\ngb_low_power_consumption_v3\source\interrupt_5541.c"
 314  016D  31D2        	set [82].3
 315  016E              #line 315 "c:\users\h469388\desktop\todo\projects\1_ngb\1_firmware\ngb_low_power_consumption_v3\source\interrupt_5541.c"
 315  016E  1F00     E  	clr _timeLoopCounter[0]
 316  016F              #line 316 "c:\users\h469388\desktop\todo\projects\1_ngb\1_firmware\ngb_low_power_consumption_v3\source\interrupt_5541.c"
"File: interrupt_5541.c  Assembler  Version HGASM0202      Page 15

 316  016F  1F00     R  	clr _timeoutDurationFlag[0]
 316  0170  2800     R  	jmp _L30
 316  0171              _L37:
 320  0171              #line 320 "c:\users\h469388\desktop\todo\projects\1_ngb\1_firmware\ngb_low_power_consumption_v3\source\interrupt_5541.c"
 320  0171  0F0A        	mov a,10
 320  0172  0080     E  	mov _CommData[0],a
 320  0173  2800     R  	jmp _L30
 320  0174              _L34:
 326  0174              #line 326 "c:\users\h469388\desktop\todo\projects\1_ngb\1_firmware\ngb_low_power_consumption_v3\source\interrupt_5541.c"
 326  0174  0700     E  	mov a,_CommData[12]
 326  0175  0A05        	sub a,5
 326  0176  390A        	snz z
 326  0177  2800     R  	jmp _L38
 328  0178              #line 328 "c:\users\h469388\desktop\todo\projects\1_ngb\1_firmware\ngb_low_power_consumption_v3\source\interrupt_5541.c"
 328  0178  0700     E  	mov a,_CommData[21]
 328  0179  0080     E  	mov ra,a
 328  017A  0700     E  	mov a,ra
 328  017B  0080     E  	mov _CommData[20],a
 329  017C              #line 329 "c:\users\h469388\desktop\todo\projects\1_ngb\1_firmware\ngb_low_power_consumption_v3\source\interrupt_5541.c"
 329  017C  0700     E  	mov a,_CommData[22]
 329  017D  0080     R  	mov _ISR_PTM0CMP_PTM0CMA_2[0],a
 329  017E  0700     R  	mov a,_ISR_PTM0CMP_PTM0CMA_2[0]
 329  017F  0080     E  	mov _CommData[21],a
 330  0180              #line 330 "c:\users\h469388\desktop\todo\projects\1_ngb\1_firmware\ngb_low_power_consumption_v3\source\interrupt_5541.c"
 330  0180  0700     E  	mov a,_CommData[10]
 330  0181  0080     E  	mov rb,a
 330  0182  0700     E  	mov a,_CommData[11]
 330  0183  0080     E  	mov rc,a
 330  0184  0700     E  	mov a,rb
 330  0185  0080     E  	mov _CommData[22],a
 331  0186              #line 331 "c:\users\h469388\desktop\todo\projects\1_ngb\1_firmware\ngb_low_power_consumption_v3\source\interrupt_5541.c"
 331  0186  0700     R  	mov a,_ISR_PTM0CMP_PTM0CMA_2[0]
 331  0187  0AAA        	sub a,170
 331  0188  390A        	snz z
 331  0189  2800     R  	jmp _L39
 331  018A  0700     E  	mov a,rb
 331  018B  0AA9        	sub a,169
 331  018C  390A        	snz z
 331  018D  2800     R  	jmp _L39
 333  018E              #line 333 "c:\users\h469388\desktop\todo\projects\1_ngb\1_firmware\ngb_low_power_consumption_v3\source\interrupt_5541.c"
 333  018E  0F01        	mov a,1
 333  018F  0080     E  	mov _CLIPWriteFlag[0],a
 333  0190  2800     R  	jmp _L40
 333  0191              _L39:
 337  0191              #line 337 "c:\users\h469388\desktop\todo\projects\1_ngb\1_firmware\ngb_low_power_consumption_v3\source\interrupt_5541.c"
 337  0191  1F00     E  	clr _CLIPWriteFlag[0]
 340  0192              #line 340 "c:\users\h469388\desktop\todo\projects\1_ngb\1_firmware\ngb_low_power_consumption_v3\source\interrupt_5541.c"
 340  0192  0700     E  	mov a,ra
 340  0193  0AAA        	sub a,170
 340  0194  390A        	snz z
 340  0195  2800     R  	jmp _L40
 340  0196  0700     R  	mov a,_ISR_PTM0CMP_PTM0CMA_2[0]
 340  0197  0AA9        	sub a,169
 340  0198  390A        	snz z
 340  0199  2800     R  	jmp _L40
 344  019A              #line 344 "c:\users\h469388\desktop\todo\projects\1_ngb\1_firmware\ngb_low_power_consumption_v3\source\interrupt_5541.c"
 344  019A  0700     E  	mov a,rb
 344  019B  0080     E  	mov rd,a
 344  019C  0700     E  	mov a,rc
 344  019D  0080     E  	mov re,a
"File: interrupt_5541.c  Assembler  Version HGASM0202      Page 16

 344  019E  0F04        	mov a,4
 344  019F              _LI1:
 344  019F  340A        	clr c
 344  01A0  1B80     E  	rrc re
 344  01A1  1B80     E  	rrc rd
 344  01A2  1785        	sdz acc
 344  01A3  2800     R  	jmp _LI1
 344  01A4  0F0F        	mov a,15
 344  01A5  0680     E  	andm a,rd
 346  01A6              #line 346 "c:\users\h469388\desktop\todo\projects\1_ngb\1_firmware\ngb_low_power_consumption_v3\source\interrupt_5541.c"
 346  01A6  0F09        	mov a,9
 346  01A7  0200     E  	sub a,rd
 346  01A8  380A        	snz c
 346  01A9  2800     R  	jmp _L38
 345  01AA              #line 345 "c:\users\h469388\desktop\todo\projects\1_ngb\1_firmware\ngb_low_power_consumption_v3\source\interrupt_5541.c"
 345  01AA  0700     E  	mov a,rb
 345  01AB  0E0F        	and a,15
 345  01AC  0080     E  	mov re,a
 346  01AD              #line 346 "c:\users\h469388\desktop\todo\projects\1_ngb\1_firmware\ngb_low_power_consumption_v3\source\interrupt_5541.c"
 346  01AD  0F09        	mov a,9
 346  01AE  0200     E  	sub a,re
 346  01AF  380A        	snz c
 346  01B0  2800     R  	jmp _L38
 348  01B1              #line 348 "c:\users\h469388\desktop\todo\projects\1_ngb\1_firmware\ngb_low_power_consumption_v3\source\interrupt_5541.c"
 348  01B1  0F00        	mov a,0  
 348  01B2  0680     E  	andm a,rb  
 348  01B3  0F01        	mov a,1  
 348  01B4  0680     E  	andm a,rc
 348  01B5  0700     E  	mov a,rb
 348  01B6  0500     E  	or a,rc
 348  01B7  3D0A        	sz z
 348  01B8  2800     R  	jmp _L45
 348  01B9  0F64        	mov a,100
 348  01BA  0080     E  	mov rb,a
 348  01BB  2800     R  	jmp _L42
 348  01BC              _L45:
 348  01BC  1F00     E  	clr rb
 348  01BD              _L42:
 349  01BD              #line 349 "c:\users\h469388\desktop\todo\projects\1_ngb\1_firmware\ngb_low_power_consumption_v3\source\interrupt_5541.c"
 349  01BD  0F00     E  	mov a,low offset _CLIPAddrDecode
 349  01BE  0300     E  	add a,rd
 349  01BF  0083        	mov mp,a
 349  01C0  0F00     E  	mov a,high offset _CLIPAddrDecode
 349  01C1  1F04        	clr sbp
 349  01C2  1384        	adcm a,sbp
 349  01C3  2000     E  	call _Crom2Prom
 349  01C4  0080     E  	mov ra,a
 349  01C5  0700     E  	mov a,ra
 349  01C6  0300     E  	add a,ra
 349  01C7  0080     E  	mov rc,a
 349  01C8  0700     E  	mov a,rc
 349  01C9  0380     E  	addm a,rc
 349  01CA  0700     E  	mov a,rc
 349  01CB  0380     E  	addm a,ra
 349  01CC  0700     E  	mov a,ra
 349  01CD  0380     E  	addm a,ra
 349  01CE  0700     E  	mov a,ra
 349  01CF  0380     E  	addm a,rb
 350  01D0              #line 350 "c:\users\h469388\desktop\todo\projects\1_ngb\1_firmware\ngb_low_power_consumption_v3\source\interrupt_5541.c"
 350  01D0  0F00     E  	mov a,low offset _CLIPAddrDecode
"File: interrupt_5541.c  Assembler  Version HGASM0202      Page 17

 350  01D1  0300     E  	add a,re
 350  01D2  0083        	mov mp,a
 350  01D3  0F00     E  	mov a,high offset _CLIPAddrDecode
 350  01D4  1F04        	clr sbp
 350  01D5  1384        	adcm a,sbp
 350  01D6  2000     E  	call _Crom2Prom
 350  01D7  0080     E  	mov rc,a
 351  01D8              #line 351 "c:\users\h469388\desktop\todo\projects\1_ngb\1_firmware\ngb_low_power_consumption_v3\source\interrupt_5541.c"
 351  01D8  0700     E  	mov a,rb
 351  01D9  0300     E  	add a,rc
 351  01DA  0080     E  	mov _PutDataToWriteEEBuff_2[0],a
 351  01DB  0F00        	mov a,0
 351  01DC  2000     E  	call _PutDataToWriteEEBuff
 351  01DD              _L38:
 359  01DD              #line 359 "c:\users\h469388\desktop\todo\projects\1_ngb\1_firmware\ngb_low_power_consumption_v3\source\interrupt_5541.c"
 359  01DD  1F00     E  	clr _CommData[22]
 359  01DE              _L40:
 362  01DE              #line 362 "c:\users\h469388\desktop\todo\projects\1_ngb\1_firmware\ngb_low_power_consumption_v3\source\interrupt_5541.c"
 362  01DE  1E00     R  	snz _timeoutDurationFlag[0]
 362  01DF  2800     R  	jmp _L43
 364  01E0              #line 364 "c:\users\h469388\desktop\todo\projects\1_ngb\1_firmware\ngb_low_power_consumption_v3\source\interrupt_5541.c"
 364  01E0  1FDB        	set [91]
 365  01E1              #line 365 "c:\users\h469388\desktop\todo\projects\1_ngb\1_firmware\ngb_low_power_consumption_v3\source\interrupt_5541.c"
 365  01E1  0F03        	mov a,3
 365  01E2  00DC        	mov [92],a
 366  01E3              #line 366 "c:\users\h469388\desktop\todo\projects\1_ngb\1_firmware\ngb_low_power_consumption_v3\source\interrupt_5541.c"
 366  01E3  0F04        	mov a,4
 366  01E4  0080     E  	mov _timeLoopCounter[0],a
 367  01E5              #line 367 "c:\users\h469388\desktop\todo\projects\1_ngb\1_firmware\ngb_low_power_consumption_v3\source\interrupt_5541.c"
 367  01E5  2800     R  	jmp _L30
 367  01E6              _L43:
 369  01E6              #line 369 "c:\users\h469388\desktop\todo\projects\1_ngb\1_firmware\ngb_low_power_consumption_v3\source\interrupt_5541.c"
 369  01E6  0700     E  	mov a,_CommData[12]
 369  01E7  0E05        	and a,5
 369  01E8  0080     E  	mov ra,a
 369  01E9  0700     E  	mov a,ra
 369  01EA  0A05        	sub a,5
 369  01EB  390A        	snz z
 369  01EC  2800     R  	jmp _L44
 369  01ED  0700     E  	mov a,_CommData[0]
 369  01EE  0A02        	sub a,2
 369  01EF  390A        	snz z
 369  01F0  2800     R  	jmp _L44
 371  01F1              #line 371 "c:\users\h469388\desktop\todo\projects\1_ngb\1_firmware\ngb_low_power_consumption_v3\source\interrupt_5541.c"
 371  01F1  3494        	clr [20].1
 372  01F2              #line 372 "c:\users\h469388\desktop\todo\projects\1_ngb\1_firmware\ngb_low_power_consumption_v3\source\interrupt_5541.c"
 372  01F2  0FFF        	mov a,255  
 372  01F3  0680     E  	andm a,_FuncData[6]  
 372  01F4  0FF7        	mov a,247  
 372  01F5  0680     E  	andm a,_FuncData[7]
 372  01F6              _L44:
 374  01F6              #line 374 "c:\users\h469388\desktop\todo\projects\1_ngb\1_firmware\ngb_low_power_consumption_v3\source\interrupt_5541.c"
 374  01F6  1F00     E  	clr _CommData[0]
 375  01F7              #line 375 "c:\users\h469388\desktop\todo\projects\1_ngb\1_firmware\ngb_low_power_consumption_v3\source\interrupt_5541.c"
 375  01F7  1F00     E  	clr _CommData[6]
 375  01F8  1F00     E  	clr _CommData[7]
 376  01F9              #line 376 "c:\users\h469388\desktop\todo\projects\1_ngb\1_firmware\ngb_low_power_consumption_v3\source\interrupt_5541.c"
 376  01F9  1F00     E  	clr _CommData[8]
 376  01FA  1F00     E  	clr _CommData[9]
 377  01FB              #line 377 "c:\users\h469388\desktop\todo\projects\1_ngb\1_firmware\ngb_low_power_consumption_v3\source\interrupt_5541.c"
"File: interrupt_5541.c  Assembler  Version HGASM0202      Page 18

 377  01FB  1F00     E  	clr _CommData[5]
 378  01FC              #line 378 "c:\users\h469388\desktop\todo\projects\1_ngb\1_firmware\ngb_low_power_consumption_v3\source\interrupt_5541.c"
 378  01FC  1F00     E  	clr _CommData[18]
 378  01FD  1F00     E  	clr _CommData[19]
 379  01FE              #line 379 "c:\users\h469388\desktop\todo\projects\1_ngb\1_firmware\ngb_low_power_consumption_v3\source\interrupt_5541.c"
 379  01FE  1F00     E  	clr _CommData[15]
 380  01FF              #line 380 "c:\users\h469388\desktop\todo\projects\1_ngb\1_firmware\ngb_low_power_consumption_v3\source\interrupt_5541.c"
 380  01FF  1F00     R  	clr _CLIPDLIPFlag[0]
 381  0200              #line 381 "c:\users\h469388\desktop\todo\projects\1_ngb\1_firmware\ngb_low_power_consumption_v3\source\interrupt_5541.c"
 381  0200  0F01        	mov a,1
 381  0201  0080     E  	mov _CommData[26],a
 382  0202              #line 382 "c:\users\h469388\desktop\todo\projects\1_ngb\1_firmware\ngb_low_power_consumption_v3\source\interrupt_5541.c"
 382  0202  1F00     R  	clr _timeoutDurationFlag[0]
 383  0203              #line 383 "c:\users\h469388\desktop\todo\projects\1_ngb\1_firmware\ngb_low_power_consumption_v3\source\interrupt_5541.c"
 383  0203  33D2        	set [82].7
 384  0204              #line 384 "c:\users\h469388\desktop\todo\projects\1_ngb\1_firmware\ngb_low_power_consumption_v3\source\interrupt_5541.c"
 384  0204  0F01        	mov a,1
 384  0205  0092        	mov [18],a
 385  0206              #line 385 "c:\users\h469388\desktop\todo\projects\1_ngb\1_firmware\ngb_low_power_consumption_v3\source\interrupt_5541.c"
 385  0206  3400     E  	clr _SysData[0].0
 386  0207              #line 386 "c:\users\h469388\desktop\todo\projects\1_ngb\1_firmware\ngb_low_power_consumption_v3\source\interrupt_5541.c"
 386  0207  1F00     E  	clr _FuncData[3]
 390  0208              #line 390 "c:\users\h469388\desktop\todo\projects\1_ngb\1_firmware\ngb_low_power_consumption_v3\source\interrupt_5541.c"
 390  0208  2800     R  	jmp _L30
 390  0209              _L32:
 397  0209              #line 397 "c:\users\h469388\desktop\todo\projects\1_ngb\1_firmware\ngb_low_power_consumption_v3\source\interrupt_5541.c"
 397  0209  0FDD        	mov a,221
 397  020A  00DB        	mov [91],a
 398  020B              #line 398 "c:\users\h469388\desktop\todo\projects\1_ngb\1_firmware\ngb_low_power_consumption_v3\source\interrupt_5541.c"
 398  020B  0F01        	mov a,1
 398  020C  00DC        	mov [92],a
 399  020D              #line 399 "c:\users\h469388\desktop\todo\projects\1_ngb\1_firmware\ngb_low_power_consumption_v3\source\interrupt_5541.c"
 399  020D  1F00     E  	clr _timeLoopCounter[0]
 399  020E  2800     R  	jmp _L64
 399  020F              _L33:
 411  020F              #line 411 "c:\users\h469388\desktop\todo\projects\1_ngb\1_firmware\ngb_low_power_consumption_v3\source\interrupt_5541.c"
 411  020F  1FDB        	set [91]
 412  0210              #line 412 "c:\users\h469388\desktop\todo\projects\1_ngb\1_firmware\ngb_low_power_consumption_v3\source\interrupt_5541.c"
 412  0210  0F03        	mov a,3
 412  0211  00DC        	mov [92],a
 413  0212              #line 413 "c:\users\h469388\desktop\todo\projects\1_ngb\1_firmware\ngb_low_power_consumption_v3\source\interrupt_5541.c"
 413  0212  1500     R  	deca _ISR_PTM0CMP_PTM0CMA_2[0]
 413  0213  0080     E  	mov _timeLoopCounter[0],a
 413  0214              _L64:
 414  0214              #line 414 "c:\users\h469388\desktop\todo\projects\1_ngb\1_firmware\ngb_low_power_consumption_v3\source\interrupt_5541.c"
 414  0214  37D2        	clr [82].7
 415  0215              #line 415 "c:\users\h469388\desktop\todo\projects\1_ngb\1_firmware\ngb_low_power_consumption_v3\source\interrupt_5541.c"
 415  0215  35D2        	clr [82].3
 416  0216              #line 416 "c:\users\h469388\desktop\todo\projects\1_ngb\1_firmware\ngb_low_power_consumption_v3\source\interrupt_5541.c"
 416  0216  31D2        	set [82].3
 416  0217              _L30:
 422  0217              #line 422 "c:\users\h469388\desktop\todo\projects\1_ngb\1_firmware\ngb_low_power_consumption_v3\source\interrupt_5541.c"
 422  0217  364D        	clr [77].4
 422  0218              _L11:
 422  0218  0700     E  	mov a,r2
 422  0219  008A        	mov status,a
 422  021A  0700     E  	mov a,r3
 422  021B  0083        	mov mp,a
 422  021C  0700     E  	mov a,r4
 422  021D  0084        	mov sbp,a
"File: interrupt_5541.c  Assembler  Version HGASM0202      Page 19

 422  021E  0700     E  	mov a,r5
 422  021F  0087        	mov tblp,a
 422  0220  0700     E  	mov a,r6
 422  0221  0089        	mov tbhp,a
 422  0222  1D05        	tabrdc acc
 422  0223  0700     E  	mov a,r1
 422  0224  0004        	reti
 422  0225              _ISR_PTM0CMP_PTM0CMA endp
 422  0225              
 422  0225              #line 422 "c:\users\h469388\desktop\todo\projects\1_ngb\1_firmware\ngb_low_power_consumption_v3\source\interrupt_5541.c"
 422  0225              #pragma debug scope 1 1
 422  0225              public _ISR_PTM1CMP_PTM1CMA
 422  0225              #pragma debug scope 12 1
 431  0225              #line 431 "c:\users\h469388\desktop\todo\projects\1_ngb\1_firmware\ngb_low_power_consumption_v3\source\interrupt_5541.c"
 431  0000              @ISR_PTM1CMP_PTM1CMA_code .section at 32 'code'
 431  0000              _ISR_PTM1CMP_PTM1CMA:
 431  0000              ifdef INTERRUPT_DELAY
 431  0000              	nop
 431  0000              endif
 431  0000  0004        	reti
 431  0001              #line 431 "c:\users\h469388\desktop\todo\projects\1_ngb\1_firmware\ngb_low_power_consumption_v3\source\interrupt_5541.c"
 431  0001              #pragma debug scope 1 1
 431  0001              public _ISR_CTM0CMP_CTM0CMA
 431  0001              #pragma debug scope 13 1
 437  0001              #line 437 "c:\users\h469388\desktop\todo\projects\1_ngb\1_firmware\ngb_low_power_consumption_v3\source\interrupt_5541.c"
 437  0000              @ISR_CTM0CMP_CTM0CMA_code .section at 36 'code'
 437  0000              ifdef INTERRUPT_DELAY
 437  0000              	nop
 437  0000              endif
 437  0000  0080     E  	mov r1,a
 437  0001  070A        	mov a,status
 437  0002              ifndef INTERRUPT_DELAY
 437  0002  0080     E  	mov r2,a
 437  0003              endif
 437  0003  2800     R  	jmp _ISR_CTM0CMP_CTM0CMA
 437  0004              #pragma debug scope 1 1
 437  0004              @dummy36 endp
 437  0004              #pragma debug scope 14 1
 437  0000              _ISR_CTM0CMP_CTM0CMA .section 'code'
 437  0000              _ISR_CTM0CMP_CTM0CMA proc
 437  0000              ifdef INTERRUPT_DELAY
 437  0000              	mov r2,a
 437  0000              endif
 448  0000              #line 448 "c:\users\h469388\desktop\todo\projects\1_ngb\1_firmware\ngb_low_power_consumption_v3\source\interrupt_5541.c"
 448  0000  364D        	clr [77].4
 449  0001              #line 449 "c:\users\h469388\desktop\todo\projects\1_ngb\1_firmware\ngb_low_power_consumption_v3\source\interrupt_5541.c"
 449  0001  36CD        	clr [77].5
 450  0002              #line 450 "c:\users\h469388\desktop\todo\projects\1_ngb\1_firmware\ngb_low_power_consumption_v3\source\interrupt_5541.c"
 450  0002  35A7        	clr [39].3
 451  0003              #line 451 "c:\users\h469388\desktop\todo\projects\1_ngb\1_firmware\ngb_low_power_consumption_v3\source\interrupt_5541.c"
 451  0003  31D2        	set [82].3
 453  0004              #line 453 "c:\users\h469388\desktop\todo\projects\1_ngb\1_firmware\ngb_low_power_consumption_v3\source\interrupt_5541.c"
 453  0004  1F00     E  	clr _CommData[0]
 454  0005              #line 454 "c:\users\h469388\desktop\todo\projects\1_ngb\1_firmware\ngb_low_power_consumption_v3\source\interrupt_5541.c"
 454  0005  1F00     E  	clr _CommData[6]
 454  0006  1F00     E  	clr _CommData[7]
 455  0007              #line 455 "c:\users\h469388\desktop\todo\projects\1_ngb\1_firmware\ngb_low_power_consumption_v3\source\interrupt_5541.c"
 455  0007  1F00     E  	clr _CommData[8]
 455  0008  1F00     E  	clr _CommData[9]
 456  0009              #line 456 "c:\users\h469388\desktop\todo\projects\1_ngb\1_firmware\ngb_low_power_consumption_v3\source\interrupt_5541.c"
"File: interrupt_5541.c  Assembler  Version HGASM0202      Page 20

 456  0009  1F00     E  	clr _CommData[5]
 457  000A              #line 457 "c:\users\h469388\desktop\todo\projects\1_ngb\1_firmware\ngb_low_power_consumption_v3\source\interrupt_5541.c"
 457  000A  1F00     E  	clr _CommData[18]
 457  000B  1F00     E  	clr _CommData[19]
 458  000C              #line 458 "c:\users\h469388\desktop\todo\projects\1_ngb\1_firmware\ngb_low_power_consumption_v3\source\interrupt_5541.c"
 458  000C  1F00     E  	clr _CommData[15]
 459  000D              #line 459 "c:\users\h469388\desktop\todo\projects\1_ngb\1_firmware\ngb_low_power_consumption_v3\source\interrupt_5541.c"
 459  000D  1F00     R  	clr _CLIPDLIPFlag[0]
 460  000E              #line 460 "c:\users\h469388\desktop\todo\projects\1_ngb\1_firmware\ngb_low_power_consumption_v3\source\interrupt_5541.c"
 460  000E  0F01        	mov a,1
 460  000F  0080     E  	mov _CommData[26],a
 461  0010              #line 461 "c:\users\h469388\desktop\todo\projects\1_ngb\1_firmware\ngb_low_power_consumption_v3\source\interrupt_5541.c"
 461  0010  33D2        	set [82].7
 462  0011              #line 462 "c:\users\h469388\desktop\todo\projects\1_ngb\1_firmware\ngb_low_power_consumption_v3\source\interrupt_5541.c"
 462  0011  1F00     R  	clr _timeoutDurationFlag[0]
 463  0012              #line 463 "c:\users\h469388\desktop\todo\projects\1_ngb\1_firmware\ngb_low_power_consumption_v3\source\interrupt_5541.c"
 463  0012  3648        	clr [72].4
 464  0013              #line 464 "c:\users\h469388\desktop\todo\projects\1_ngb\1_firmware\ngb_low_power_consumption_v3\source\interrupt_5541.c"
 464  0013  34C8        	clr [72].1
 465  0014              #line 465 "c:\users\h469388\desktop\todo\projects\1_ngb\1_firmware\ngb_low_power_consumption_v3\source\interrupt_5541.c"
 465  0014  1F00     E  	clr _FuncData[3]
 467  0015              #line 467 "c:\users\h469388\desktop\todo\projects\1_ngb\1_firmware\ngb_low_power_consumption_v3\source\interrupt_5541.c"
 467  0015  36CF        	clr [79].5
 468  0016              #line 468 "c:\users\h469388\desktop\todo\projects\1_ngb\1_firmware\ngb_low_power_consumption_v3\source\interrupt_5541.c"
 468  0016  35E5        	clr [101].3
 470  0017              #line 470 "c:\users\h469388\desktop\todo\projects\1_ngb\1_firmware\ngb_low_power_consumption_v3\source\interrupt_5541.c"
 470  0017  363A        	clr [58].4
 472  0018              #line 472 "c:\users\h469388\desktop\todo\projects\1_ngb\1_firmware\ngb_low_power_consumption_v3\source\interrupt_5541.c"
 472  0018  0F01        	mov a,1
 472  0019  0092        	mov [18],a
 473  001A              #line 473 "c:\users\h469388\desktop\todo\projects\1_ngb\1_firmware\ngb_low_power_consumption_v3\source\interrupt_5541.c"
 473  001A  3400     E  	clr _SysData[0].0
 481  001B              #line 481 "c:\users\h469388\desktop\todo\projects\1_ngb\1_firmware\ngb_low_power_consumption_v3\source\interrupt_5541.c"
 481  001B  36CF        	clr [79].5
 482  001C              #line 482 "c:\users\h469388\desktop\todo\projects\1_ngb\1_firmware\ngb_low_power_consumption_v3\source\interrupt_5541.c"
 482  001C  0F03        	mov a,3
 482  001D  0092        	mov [18],a
 482  001E  0700     E  	mov a,r2
 482  001F  008A        	mov status,a
 482  0020  0700     E  	mov a,r1
 482  0021  0004        	reti
 482  0022              _ISR_CTM0CMP_CTM0CMA endp
 482  0022              
 482  0022              #line 482 "c:\users\h469388\desktop\todo\projects\1_ngb\1_firmware\ngb_low_power_consumption_v3\source\interrupt_5541.c"
 482  0022              #pragma debug scope 1 1
 482  0022              ___mfi4 equ [80]
 482  0022              public _ISR_CTM1CMP_CTM1CMA
 482  0022              #pragma debug scope 15 1
 488  0022              #line 488 "c:\users\h469388\desktop\todo\projects\1_ngb\1_firmware\ngb_low_power_consumption_v3\source\interrupt_5541.c"
 488  0000              @ISR_CTM1CMP_CTM1CMA_code .section at 40 'code'
 488  0000              ifdef INTERRUPT_DELAY
 488  0000              	nop
 488  0000              endif
 488  0000  0080     E  	mov r1,a
 488  0001  070A        	mov a,status
 488  0002              ifndef INTERRUPT_DELAY
 488  0002  0080     E  	mov r2,a
 488  0003              endif
 488  0003  2800     R  	jmp _ISR_CTM1CMP_CTM1CMA
 488  0004              #pragma debug scope 1 1
"File: interrupt_5541.c  Assembler  Version HGASM0202      Page 21

 488  0004              @dummy40 endp
 488  0004              #pragma debug scope 16 1
 488  0000              _ISR_CTM1CMP_CTM1CMA .section 'code'
 488  0000              _ISR_CTM1CMP_CTM1CMA proc
 488  0000              ifdef INTERRUPT_DELAY
 488  0000              	mov r2,a
 488  0000              endif
 490  0000              #line 490 "c:\users\h469388\desktop\todo\projects\1_ngb\1_firmware\ngb_low_power_consumption_v3\source\interrupt_5541.c"
 490  0000  3AD0        	snz [80].5
 490  0001  2800     R  	jmp _L69
 492  0002              #line 492 "c:\users\h469388\desktop\todo\projects\1_ngb\1_firmware\ngb_low_power_consumption_v3\source\interrupt_5541.c"
 492  0002  3048        	set [72].0
 493  0003              #line 493 "c:\users\h469388\desktop\todo\projects\1_ngb\1_firmware\ngb_low_power_consumption_v3\source\interrupt_5541.c"
 493  0003  0700     E  	mov a,_FuncData[0]
 493  0004  0080     E  	mov ra,a
 493  0005  1E00     E  	snz ra
 493  0006  2800     R  	jmp _L70
 495  0007              #line 495 "c:\users\h469388\desktop\todo\projects\1_ngb\1_firmware\ngb_low_power_consumption_v3\source\interrupt_5541.c"
 495  0007  1500     E  	deca ra
 495  0008  0080     E  	mov _FuncData[0],a
 495  0009              _L70:
 499  0009              #line 499 "c:\users\h469388\desktop\todo\projects\1_ngb\1_firmware\ngb_low_power_consumption_v3\source\interrupt_5541.c"
 499  0009  3000     E  	set _SysData[0].7
 500  000A              #line 500 "c:\users\h469388\desktop\todo\projects\1_ngb\1_firmware\ngb_low_power_consumption_v3\source\interrupt_5541.c"
 500  000A  36D0        	clr [80].5
 500  000B              _L69:
 503  000B              #line 503 "c:\users\h469388\desktop\todo\projects\1_ngb\1_firmware\ngb_low_power_consumption_v3\source\interrupt_5541.c"
 503  000B  3A50        	snz [80].4
 503  000C  2800     R  	jmp _L68
 505  000D              #line 505 "c:\users\h469388\desktop\todo\projects\1_ngb\1_firmware\ngb_low_power_consumption_v3\source\interrupt_5541.c"
 505  000D  3650        	clr [80].4
 505  000E              _L68:
 505  000E  0700     E  	mov a,r2
 505  000F  008A        	mov status,a
 505  0010  0700     E  	mov a,r1
 505  0011  0004        	reti
 505  0012              _ISR_CTM1CMP_CTM1CMA endp
 505  0012              
 505  0012              #line 505 "c:\users\h469388\desktop\todo\projects\1_ngb\1_firmware\ngb_low_power_consumption_v3\source\interrupt_5541.c"
 505  0012              #pragma debug scope 1 1
 505  0012              public _ISR_TIMEBASE0
 505  0012              #pragma debug scope 17 1
 513  0012              #line 513 "c:\users\h469388\desktop\todo\projects\1_ngb\1_firmware\ngb_low_power_consumption_v3\source\interrupt_5541.c"
 513  0000              @ISR_TIMEBASE0_code .section at 44 'code'
 513  0000              _ISR_TIMEBASE0:
 513  0000              ifdef INTERRUPT_DELAY
 513  0000              	nop
 513  0000              endif
 513  0000  0004        	reti
 513  0001              #line 513 "c:\users\h469388\desktop\todo\projects\1_ngb\1_firmware\ngb_low_power_consumption_v3\source\interrupt_5541.c"
 513  0001              #pragma debug scope 1 1
 513  0001              public _ISR_TIMEBASE1
 513  0001              #pragma debug scope 18 1
 520  0001              #line 520 "c:\users\h469388\desktop\todo\projects\1_ngb\1_firmware\ngb_low_power_consumption_v3\source\interrupt_5541.c"
 520  0000              @ISR_TIMEBASE1_code .section at 48 'code'
 520  0000              _ISR_TIMEBASE1:
 520  0000              ifdef INTERRUPT_DELAY
 520  0000              	nop
 520  0000              endif
 520  0000  0004        	reti
"File: interrupt_5541.c  Assembler  Version HGASM0202      Page 22

 520  0001              #line 520 "c:\users\h469388\desktop\todo\projects\1_ngb\1_firmware\ngb_low_power_consumption_v3\source\interrupt_5541.c"
 520  0001              #pragma debug scope 1 1
 520  0001              public _ISR_PLTCMP1
 520  0001              #pragma debug scope 19 1
 526  0001              #line 526 "c:\users\h469388\desktop\todo\projects\1_ngb\1_firmware\ngb_low_power_consumption_v3\source\interrupt_5541.c"
 526  0000              @ISR_PLTCMP1_code .section at 52 'code'
 526  0000              _ISR_PLTCMP1:
 526  0000              ifdef INTERRUPT_DELAY
 526  0000              	nop
 526  0000              endif
 526  0000  0004        	reti
 526  0001              #line 526 "c:\users\h469388\desktop\todo\projects\1_ngb\1_firmware\ngb_low_power_consumption_v3\source\interrupt_5541.c"
 526  0001              #pragma debug scope 1 1
 526  0001              public _CLIPDLIPFlag
 526  0000              @HCCINIT	.section 'data'
  17  0000              #line 17 "c:\users\h469388\desktop\todo\projects\1_ngb\1_firmware\ngb_low_power_consumption_v3\source\interrupt_5541.c"
  17  0000              @HCCINIT_CLIPDLIPFlag .section 'data'
  17  0000              _CLIPDLIPFlag label byte
  17  0000              #pragma debug variable 8 1 _CLIPDLIPFlag "CLIPDLIPFlag"
  17  0000              	db 0
  17  0000              @ROMDATA_BASE .section inpage 'code'
  17  0000              	db 0
  17  0001              @HCCINIT_CLIPDLIPFlag .section 'data'
  17  0001              public _timeoutDurationFlag
  16  0001              #line 16 "c:\users\h469388\desktop\todo\projects\1_ngb\1_firmware\ngb_low_power_consumption_v3\source\interrupt_5541.c"
  16  0000              @HCCINIT_timeoutDurationFlag .section 'data'
  16  0000              _timeoutDurationFlag label byte
  16  0000              #pragma debug variable 8 1 _timeoutDurationFlag "timeoutDurationFlag"
  16  0000              	db 0
  16  0001              @ROMDATA_BASE .section inpage 'code'
  16  0001              	db 0
  16  0001              @HCCINIT_timeoutDurationFlag .section 'data'
  16  0001              public _m_ptm0Pfunc
  15  0001              #line 15 "c:\users\h469388\desktop\todo\projects\1_ngb\1_firmware\ngb_low_power_consumption_v3\source\interrupt_5541.c"
  15  0000              @HCCINIT_m_ptm0Pfunc .section 'data'
  15  0000              _m_ptm0Pfunc label byte
  15  0000              #pragma debug variable 8 1 _m_ptm0Pfunc "m_ptm0Pfunc"
  15  0000              	db 0
  15  0001              @ROMDATA_BASE .section inpage 'code'
  15  0001              	db 0
  15  0001              @HCCINIT_m_ptm0Pfunc .section 'data'
  14  0001              #line 14 "c:\users\h469388\desktop\todo\projects\1_ngb\1_firmware\ngb_low_power_consumption_v3\source\interrupt_5541.c"
  14  0000              @HCCINIT_sucTmpDin .section 'data'
  14  0000              _sucTmpDin label byte
  14  0000              #pragma debug variable 8 1 _sucTmpDin "sucTmpDin"
  14  0000              	db 0
  14  0002              @ROMDATA_BASE .section inpage 'code'
  14  0002              	db 0
  14  0001              @HCCINIT_sucTmpDin .section 'data'
  14  0001              #pragma debug struct_end
  14  0001              #pragma debug struct_end
  14  0001              #pragma debug union_end
  14  0001              #pragma debug union_end
  14  0001              #pragma debug variable 43 1 ___scc "__scc" 1
  14  0001              #pragma debug struct_end
  14  0001              #pragma debug struct_end
  14  0001              #pragma debug union_end
  14  0001              #pragma debug union_end
  14  0001              #pragma debug variable 45 1 ___pa "__pa" 1
  14  0001              #pragma debug struct_end
"File: interrupt_5541.c  Assembler  Version HGASM0202      Page 23

  14  0001              #pragma debug struct_end
  14  0001              #pragma debug union_end
  14  0001              #pragma debug union_end
  14  0001              #pragma debug variable 47 1 ___ctm0c0 "__ctm0c0" 1
  14  0001              #pragma debug struct_end
  14  0001              #pragma debug struct_end
  14  0001              #pragma debug union_end
  14  0001              #pragma debug union_end
  14  0001              #pragma debug variable 49 1 ___ctm0c1 "__ctm0c1" 1
  14  0001              #pragma debug variable 8 1 ___ctm0al "__ctm0al" 1
  14  0001              #pragma debug variable 8 1 ___ctm0ah "__ctm0ah" 1
  14  0001              #pragma debug struct_end
  14  0001              #pragma debug struct_end
  14  0001              #pragma debug union_end
  14  0001              #pragma debug union_end
  14  0001              #pragma debug variable 51 1 ___pltsw "__pltsw" 1
  14  0001              #pragma debug struct_end
  14  0001              #pragma debug struct_end
  14  0001              #pragma debug union_end
  14  0001              #pragma debug union_end
  14  0001              #pragma debug variable 53 1 ___pltdacc "__pltdacc" 1
  14  0001              #pragma debug variable 8 1 ___pltda2l "__pltda2l" 1
  14  0001              #pragma debug struct_end
  14  0001              #pragma debug struct_end
  14  0001              #pragma debug union_end
  14  0001              #pragma debug union_end
  14  0001              #pragma debug variable 55 1 ___pltc0c "__pltc0c" 1
  14  0001              #pragma debug struct_end
  14  0001              #pragma debug struct_end
  14  0001              #pragma debug union_end
  14  0001              #pragma debug union_end
  14  0001              #pragma debug variable 57 1 ___pltc1c "__pltc1c" 1
  14  0001              #pragma debug struct_end
  14  0001              #pragma debug struct_end
  14  0001              #pragma debug union_end
  14  0001              #pragma debug union_end
  14  0001              #pragma debug variable 59 1 ___pltchyc "__pltchyc" 1
  14  0001              #pragma debug struct_end
  14  0001              #pragma debug struct_end
  14  0001              #pragma debug union_end
  14  0001              #pragma debug union_end
  14  0001              #pragma debug variable 61 1 ___pltac "__pltac" 1
  14  0001              #pragma debug struct_end
  14  0001              #pragma debug struct_end
  14  0001              #pragma debug union_end
  14  0001              #pragma debug union_end
  14  0001              #pragma debug variable 63 1 ___intc0 "__intc0" 1
  14  0001              #pragma debug struct_end
  14  0001              #pragma debug struct_end
  14  0001              #pragma debug union_end
  14  0001              #pragma debug union_end
  14  0001              #pragma debug variable 65 1 ___intc2 "__intc2" 1
  14  0001              #pragma debug struct_end
  14  0001              #pragma debug struct_end
  14  0001              #pragma debug union_end
  14  0001              #pragma debug union_end
  14  0001              #pragma debug variable 67 1 ___mfi1 "__mfi1" 1
  14  0001              #pragma debug struct_end
  14  0001              #pragma debug struct_end
  14  0001              #pragma debug union_end
"File: interrupt_5541.c  Assembler  Version HGASM0202      Page 24

  14  0001              #pragma debug union_end
  14  0001              #pragma debug variable 69 1 ___mfi3 "__mfi3" 1
  14  0001              #pragma debug struct_end
  14  0001              #pragma debug struct_end
  14  0001              #pragma debug union_end
  14  0001              #pragma debug union_end
  14  0001              #pragma debug variable 71 1 ___mfi4 "__mfi4" 1
  14  0001              #pragma debug struct_end
  14  0001              #pragma debug struct_end
  14  0001              #pragma debug union_end
  14  0001              #pragma debug union_end
  14  0001              #pragma debug variable 73 1 ___ptm0c0 "__ptm0c0" 1
  14  0001              #pragma debug struct_end
  14  0001              #pragma debug struct_end
  14  0001              #pragma debug union_end
  14  0001              #pragma debug union_end
  14  0001              #pragma debug variable 75 1 ___ptm0c2 "__ptm0c2" 1
  14  0001              #pragma debug variable 8 1 ___ptm0rpl "__ptm0rpl" 1
  14  0001              #pragma debug variable 8 1 ___ptm0rph "__ptm0rph" 1
  14  0001              #pragma debug struct_end
  14  0001              #pragma debug struct_end
  14  0001              #pragma debug union_end
  14  0001              #pragma debug union_end
  14  0001              #pragma debug variable 77 1 ___ctm1c0 "__ctm1c0" 1
  14  0001              
  14  0001              ; output external variables
  14  0001              extern _CLIPAddrDecode:near
  14  0001              extern _CLIPWriteFlag:byte
  14  0001              extern _timeLoopCounter:byte
  14  0001              extern _CommData:byte
  14  0001              extern _FuncData:byte
  14  0001              extern _SysData:byte
  14  0001              extern r1:byte
  14  0001              extern r2:byte
  14  0001              extern r3:byte
  14  0001              extern r4:byte
  14  0001              extern r5:byte
  14  0001              extern r6:byte
  14  0001              extern _PltOpaSwitchOff:near
  14  0001              extern _CommProtocol:near
  14  0001              extern _PutDataToWriteEEBuff_2:byte
  14  0001              extern _PutDataToWriteEEBuff:near
  14  0001              
  14  0001              ; 
  14  0001              ; Generated by holtek-gcc v3.19, Mon Oct 10 16:01:46 2022
  14  0001              ; Rebuild 718
  14  0001              ; end of file


        0 Errors, 0